SF:crates/libcgroups/src/common.rs
FN:109,_RINvNtCslEpTaKix7hR_10libcgroups6common17write_cgroup_fileNtNtCslIgaOqvXPTn_3std4path7PathBufmEB4_
FN:103,_RNCINvNtCslEpTaKix7hR_10libcgroups6common21write_cgroup_file_strRNtNtCslIgaOqvXPTn_3std4path7PathBufEs_0B6_
FN:71,_RNvXs3_NtCslEpTaKix7hR_10libcgroups6commonNtB5_12FreezerStateNtNtCshypYLURccL2_4core3fmt5Debug3fmt
FN:126,_RNCINvNtCslEpTaKix7hR_10libcgroups6common16read_cgroup_fileNtNtCslIgaOqvXPTn_3std4path7PathBufE0B6_
FN:353,_RNvNtCslEpTaKix7hR_10libcgroups6common15default_devices
FN:297,_RNCINvXs_NtCslEpTaKix7hR_10libcgroups6commonNtNtCslIgaOqvXPTn_3std4path7PathBufNtB7_10PathBufExt11join_safelyRBG_E0B9_
FN:118,_RNCINvNtCslEpTaKix7hR_10libcgroups6common17write_cgroup_fileRNtNtCslIgaOqvXPTn_3std4path7PathBufRNtNtCsdfjrgz5TZDL_5alloc6string6StringEs_0B6_
FN:51,_RNvXs0_NtCslEpTaKix7hR_10libcgroups6commonNtB5_11CgroupSetupNtNtCshypYLURccL2_4core3fmt5Debug3fmt
FN:118,_RNCINvNtCslEpTaKix7hR_10libcgroups6common17write_cgroup_fileNtNtCslIgaOqvXPTn_3std4path7PathBufmEs_0B6_
FN:116,_RNCINvNtCslEpTaKix7hR_10libcgroups6common17write_cgroup_fileNtNtCslIgaOqvXPTn_3std4path7PathBufReE0B6_
FN:118,_RNCINvNtCslEpTaKix7hR_10libcgroups6common17write_cgroup_fileRNtNtCslIgaOqvXPTn_3std4path7PathBufyEs_0B6_
FN:252,_RNvNtCslEpTaKix7hR_10libcgroups6common12get_all_pids
FN:118,_RNCINvNtCslEpTaKix7hR_10libcgroups6common17write_cgroup_fileNtNtCslIgaOqvXPTn_3std4path7PathBufxEs_0B6_
FN:302,_RNvNtCslEpTaKix7hR_10libcgroups6common21default_allow_devices
FN:174,_RINvNtCslEpTaKix7hR_10libcgroups6common21create_cgroup_managerpEB4_
FN:272,_RINvNtCslEpTaKix7hR_10libcgroups6common8walk_dirpEB4_
FN:118,_RNCINvNtCslEpTaKix7hR_10libcgroups6common17write_cgroup_fileNtNtCslIgaOqvXPTn_3std4path7PathBuflEs_0B6_
FN:109,_RINvNtCslEpTaKix7hR_10libcgroups6common17write_cgroup_fileNtNtCslIgaOqvXPTn_3std4path7PathBuflEB4_
FN:118,_RNCINvNtCslEpTaKix7hR_10libcgroups6common17write_cgroup_fileNtNtCslIgaOqvXPTn_3std4path7PathBufNtNtCsdfjrgz5TZDL_5alloc6string6StringEs_0B6_
FN:109,_RINvNtCslEpTaKix7hR_10libcgroups6common17write_cgroup_fileNtNtCslIgaOqvXPTn_3std4path7PathBufNtNtCsdfjrgz5TZDL_5alloc6string6StringEB4_
FN:116,_RNCINvNtCslEpTaKix7hR_10libcgroups6common17write_cgroup_fileNtNtCslIgaOqvXPTn_3std4path7PathBufyE0B6_
FN:220,_RNvNtCslEpTaKix7hR_10libcgroups6common29create_systemd_cgroup_manager
FN:124,_RINvNtCslEpTaKix7hR_10libcgroups6common16read_cgroup_fileRNtNtCslIgaOqvXPTn_3std4path7PathBufEB4_
FN:116,_RNCINvNtCslEpTaKix7hR_10libcgroups6common17write_cgroup_fileNtNtCslIgaOqvXPTn_3std4path7PathBufNtNtCsc0Hr9amllDc_3nix6unistd3PidE0B6_
FN:101,_RNCINvNtCslEpTaKix7hR_10libcgroups6common21write_cgroup_file_strNtNtCslIgaOqvXPTn_3std4path7PathBufE0B6_
FN:116,_RNCINvNtCslEpTaKix7hR_10libcgroups6common17write_cgroup_fileNtNtCslIgaOqvXPTn_3std4path7PathBufRNtNtCsdfjrgz5TZDL_5alloc6string6StringE0B6_
FN:159,_RNCNvNtCslEpTaKix7hR_10libcgroups6common16get_cgroup_setups_0B5_
FN:109,_RINvNtCslEpTaKix7hR_10libcgroups6common17write_cgroup_fileRNtNtCslIgaOqvXPTn_3std4path7PathBufRNtNtCsdfjrgz5TZDL_5alloc6string6StringEB4_
FN:109,_RINvNtCslEpTaKix7hR_10libcgroups6common17write_cgroup_fileNtNtCslIgaOqvXPTn_3std4path7PathBufyEB4_
FN:71,_RNvXs7_NtCslEpTaKix7hR_10libcgroups6commonNtB5_12FreezerStateNtNtCshypYLURccL2_4core3cmp9PartialEq2eqB7_
FN:71,_RNvXs1_NtCslEpTaKix7hR_10libcgroups6commonNtB5_12FreezerStateNtNtCshypYLURccL2_4core5clone5Clone5cloneB7_
FN:297,_RNCINvXs_NtCslEpTaKix7hR_10libcgroups6commonNtNtCslIgaOqvXPTn_3std4path7PathBufNtB7_10PathBufExt11join_safelyRNtNtCsdfjrgz5TZDL_5alloc6string6StringE0B9_
FN:124,_RINvNtCslEpTaKix7hR_10libcgroups6common16read_cgroup_fileRNtNtCslIgaOqvXPTn_3std4path4PathEB4_
FN:116,_RNCINvNtCslEpTaKix7hR_10libcgroups6common17write_cgroup_fileNtNtCslIgaOqvXPTn_3std4path7PathBuftE0B6_
FN:118,_RNCINvNtCslEpTaKix7hR_10libcgroups6common17write_cgroup_fileNtNtCslIgaOqvXPTn_3std4path7PathBufNtNtCsc0Hr9amllDc_3nix6unistd3PidEs_0B6_
FN:118,_RNCINvNtCslEpTaKix7hR_10libcgroups6common17write_cgroup_fileNtNtCslIgaOqvXPTn_3std4path7PathBufRNtNtCsdfjrgz5TZDL_5alloc6string6StringEs_0B6_
FN:95,_RINvNtCslEpTaKix7hR_10libcgroups6common21write_cgroup_file_strNtNtCslIgaOqvXPTn_3std4path7PathBufEB4_
FN:109,_RINvNtCslEpTaKix7hR_10libcgroups6common17write_cgroup_fileRNtNtCslIgaOqvXPTn_3std4path7PathBuftEB4_
FN:118,_RNCINvNtCslEpTaKix7hR_10libcgroups6common17write_cgroup_fileRNtNtCslIgaOqvXPTn_3std4path7PathBuftEs_0B6_
FN:82,_RNvXs9_NtCslEpTaKix7hR_10libcgroups6commonNtB5_13ControllerOptNtNtCshypYLURccL2_4core3fmt5Debug3fmt
FN:109,_RINvNtCslEpTaKix7hR_10libcgroups6common17write_cgroup_fileNtNtCslIgaOqvXPTn_3std4path7PathBufNtNtCsc0Hr9amllDc_3nix6unistd3PidEB4_
FN:116,_RNCINvNtCslEpTaKix7hR_10libcgroups6common17write_cgroup_fileNtNtCslIgaOqvXPTn_3std4path7PathBufxE0B6_
FN:195,_RNvNtCslEpTaKix7hR_10libcgroups6common24create_v1_cgroup_manager
FN:116,_RNCINvNtCslEpTaKix7hR_10libcgroups6common17write_cgroup_fileNtNtCslIgaOqvXPTn_3std4path7PathBuflE0B6_
FN:116,_RNCINvNtCslEpTaKix7hR_10libcgroups6common17write_cgroup_fileRNtNtCslIgaOqvXPTn_3std4path7PathBuftE0B6_
FN:126,_RNCINvNtCslEpTaKix7hR_10libcgroups6common16read_cgroup_fileRNtNtCslIgaOqvXPTn_3std4path7PathBufE0B6_
FN:255,_RNCNvNtCslEpTaKix7hR_10libcgroups6common12get_all_pids0B5_
FN:137,_RNvNtCslEpTaKix7hR_10libcgroups6common16get_cgroup_setup
FN:109,_RINvNtCslEpTaKix7hR_10libcgroups6common17write_cgroup_fileNtNtCslIgaOqvXPTn_3std4path7PathBufRNtNtCsdfjrgz5TZDL_5alloc6string6StringEB4_
FN:124,_RINvNtCslEpTaKix7hR_10libcgroups6common16read_cgroup_fileNtNtCslIgaOqvXPTn_3std4path7PathBufEB4_
FN:109,_RINvNtCslEpTaKix7hR_10libcgroups6common17write_cgroup_fileNtNtCslIgaOqvXPTn_3std4path7PathBufReEB4_
FN:82,_RNvXs8_NtCslEpTaKix7hR_10libcgroups6commonNtB5_13ControllerOptNtNtCshypYLURccL2_4core5clone5Clone5cloneB7_
FN:118,_RNCINvNtCslEpTaKix7hR_10libcgroups6common17write_cgroup_fileNtNtCslIgaOqvXPTn_3std4path7PathBufyEs_0B6_
FN:109,_RINvNtCslEpTaKix7hR_10libcgroups6common17write_cgroup_fileNtNtCslIgaOqvXPTn_3std4path7PathBuftEB4_
FN:407,_RINvNtCslEpTaKix7hR_10libcgroups6common17delete_with_retryppEB4_
FN:59,_RNvXNtCslEpTaKix7hR_10libcgroups6commonNtB2_11CgroupSetupNtNtCshypYLURccL2_4core3fmt7Display3fmt
FN:95,_RINvNtCslEpTaKix7hR_10libcgroups6common21write_cgroup_file_strRNtNtCslIgaOqvXPTn_3std4path7PathBufEB4_
FN:116,_RNCINvNtCslEpTaKix7hR_10libcgroups6common17write_cgroup_fileNtNtCslIgaOqvXPTn_3std4path7PathBufNtNtCsdfjrgz5TZDL_5alloc6string6StringE0B6_
FN:101,_RNCINvNtCslEpTaKix7hR_10libcgroups6common21write_cgroup_file_strRNtNtCslIgaOqvXPTn_3std4path7PathBufE0B6_
FN:109,_RINvNtCslEpTaKix7hR_10libcgroups6common17write_cgroup_fileRNtNtCslIgaOqvXPTn_3std4path7PathBufyEB4_
FN:118,_RNCINvNtCslEpTaKix7hR_10libcgroups6common17write_cgroup_fileNtNtCslIgaOqvXPTn_3std4path7PathBufReEs_0B6_
FN:118,_RNCINvNtCslEpTaKix7hR_10libcgroups6common17write_cgroup_fileNtNtCslIgaOqvXPTn_3std4path7PathBuftEs_0B6_
FN:206,_RNvNtCslEpTaKix7hR_10libcgroups6common24create_v2_cgroup_manager
FN:109,_RINvNtCslEpTaKix7hR_10libcgroups6common17write_cgroup_fileNtNtCslIgaOqvXPTn_3std4path7PathBufxEB4_
FN:116,_RNCINvNtCslEpTaKix7hR_10libcgroups6common17write_cgroup_fileRNtNtCslIgaOqvXPTn_3std4path7PathBufRNtNtCsdfjrgz5TZDL_5alloc6string6StringE0B6_
FN:145,_RNCNvNtCslEpTaKix7hR_10libcgroups6common16get_cgroup_setup0B5_
FN:126,_RNCINvNtCslEpTaKix7hR_10libcgroups6common16read_cgroup_fileRNtNtCslIgaOqvXPTn_3std4path4PathE0B6_
FN:116,_RNCINvNtCslEpTaKix7hR_10libcgroups6common17write_cgroup_fileRNtNtCslIgaOqvXPTn_3std4path7PathBufyE0B6_
FN:116,_RNCINvNtCslEpTaKix7hR_10libcgroups6common17write_cgroup_fileNtNtCslIgaOqvXPTn_3std4path7PathBufmE0B6_
FN:103,_RNCINvNtCslEpTaKix7hR_10libcgroups6common21write_cgroup_file_strNtNtCslIgaOqvXPTn_3std4path7PathBufEs_0B6_
FN:289,_RINvXs_NtCslEpTaKix7hR_10libcgroups6commonNtNtCslIgaOqvXPTn_3std4path7PathBufNtB5_10PathBufExt11join_safelyRBE_EB7_
FN:289,_RINvXs_NtCslEpTaKix7hR_10libcgroups6commonNtNtCslIgaOqvXPTn_3std4path7PathBufNtB5_10PathBufExt11join_safelyRNtNtCsdfjrgz5TZDL_5alloc6string6StringEB7_
FN:289,_RINvXs_NtCs6dyzbgxNKb8_10libcgroups6commonNtNtCslIgaOqvXPTn_3std4path7PathBufNtB5_10PathBufExt11join_safelyRBE_EB7_
FN:289,_RINvXs_NtCs6dyzbgxNKb8_10libcgroups6commonNtNtCslIgaOqvXPTn_3std4path7PathBufNtB5_10PathBufExt11join_safelyRNtBG_4PathEB7_
FN:289,_RINvXs_NtCs6dyzbgxNKb8_10libcgroups6commonNtNtCslIgaOqvXPTn_3std4path7PathBufNtB5_10PathBufExt11join_safelyRNtNtCsdfjrgz5TZDL_5alloc6string6StringEB7_
FN:118,_RNCINvNtCs6dyzbgxNKb8_10libcgroups6common17write_cgroup_fileNtNtCslIgaOqvXPTn_3std4path7PathBuflEs_0B6_
FN:118,_RNCINvNtCs6dyzbgxNKb8_10libcgroups6common17write_cgroup_fileRNtNtCslIgaOqvXPTn_3std4path7PathBufNtNtCsc0Hr9amllDc_3nix6unistd3PidEs_0B6_
FN:95,_RINvNtCs6dyzbgxNKb8_10libcgroups6common21write_cgroup_file_strRNtNtCslIgaOqvXPTn_3std4path7PathBufEB4_
FN:126,_RNCINvNtCs6dyzbgxNKb8_10libcgroups6common16read_cgroup_fileRNtNtCslIgaOqvXPTn_3std4path7PathBufE0B6_
FN:297,_RNCINvXs_NtCs6dyzbgxNKb8_10libcgroups6commonNtNtCslIgaOqvXPTn_3std4path7PathBufNtB7_10PathBufExt11join_safelyRNtBI_4PathE0B9_
FN:109,_RINvNtCs6dyzbgxNKb8_10libcgroups6common17write_cgroup_fileNtNtCslIgaOqvXPTn_3std4path7PathBufyEB4_
FN:103,_RNCINvNtCs6dyzbgxNKb8_10libcgroups6common21write_cgroup_file_strNtNtCslIgaOqvXPTn_3std4path7PathBufEs_0B6_
FN:118,_RNCINvNtCs6dyzbgxNKb8_10libcgroups6common17write_cgroup_fileNtNtCslIgaOqvXPTn_3std4path7PathBufxEs_0B6_
FN:109,_RINvNtCs6dyzbgxNKb8_10libcgroups6common17write_cgroup_fileNtNtCslIgaOqvXPTn_3std4path7PathBufReEB4_
FN:109,_RINvNtCs6dyzbgxNKb8_10libcgroups6common17write_cgroup_fileRNtNtCslIgaOqvXPTn_3std4path7PathBuftEB4_
FN:101,_RNCINvNtCs6dyzbgxNKb8_10libcgroups6common21write_cgroup_file_strNtNtCslIgaOqvXPTn_3std4path7PathBufE0B6_
FN:116,_RNCINvNtCs6dyzbgxNKb8_10libcgroups6common17write_cgroup_fileNtNtCslIgaOqvXPTn_3std4path7PathBufNtNtCsdfjrgz5TZDL_5alloc6string6StringE0B6_
FN:206,_RNvNtCs6dyzbgxNKb8_10libcgroups6common24create_v2_cgroup_manager
FN:82,_RNvXs9_NtCs6dyzbgxNKb8_10libcgroups6commonNtB5_13ControllerOptNtNtCshypYLURccL2_4core3fmt5Debug3fmt
FN:126,_RNCINvNtCs6dyzbgxNKb8_10libcgroups6common16read_cgroup_fileRNtNtCslIgaOqvXPTn_3std4path4PathE0B6_
FN:116,_RNCINvNtCs6dyzbgxNKb8_10libcgroups6common17write_cgroup_fileNtNtCslIgaOqvXPTn_3std4path7PathBufReE0B6_
FN:195,_RNvNtCs6dyzbgxNKb8_10libcgroups6common24create_v1_cgroup_manager
FN:116,_RNCINvNtCs6dyzbgxNKb8_10libcgroups6common17write_cgroup_fileNtNtCslIgaOqvXPTn_3std4path7PathBufyE0B6_
FN:116,_RNCINvNtCs6dyzbgxNKb8_10libcgroups6common17write_cgroup_fileRNtNtCslIgaOqvXPTn_3std4path7PathBufRNtNtCsdfjrgz5TZDL_5alloc6string6StringE0B6_
FN:71,_RNvXs3_NtCs6dyzbgxNKb8_10libcgroups6commonNtB5_12FreezerStateNtNtCshypYLURccL2_4core3fmt5Debug3fmt
FN:118,_RNCINvNtCs6dyzbgxNKb8_10libcgroups6common17write_cgroup_fileNtNtCslIgaOqvXPTn_3std4path7PathBufNtNtCsdfjrgz5TZDL_5alloc6string6StringEs_0B6_
FN:109,_RINvNtCs6dyzbgxNKb8_10libcgroups6common17write_cgroup_fileNtNtCslIgaOqvXPTn_3std4path7PathBufNtNtCsc0Hr9amllDc_3nix6unistd3PidEB4_
FN:255,_RNCNvNtCs6dyzbgxNKb8_10libcgroups6common12get_all_pids0B5_
FN:103,_RNCINvNtCs6dyzbgxNKb8_10libcgroups6common21write_cgroup_file_strRNtNtCslIgaOqvXPTn_3std4path7PathBufEs_0B6_
FN:159,_RNCNvNtCs6dyzbgxNKb8_10libcgroups6common16get_cgroup_setups_0B5_
FN:118,_RNCINvNtCs6dyzbgxNKb8_10libcgroups6common17write_cgroup_fileNtNtCslIgaOqvXPTn_3std4path7PathBufReEs_0B6_
FN:145,_RNCNvNtCs6dyzbgxNKb8_10libcgroups6common16get_cgroup_setup0B5_
FN:174,_RINvNtCs6dyzbgxNKb8_10libcgroups6common21create_cgroup_managerpEB4_
FN:124,_RINvNtCs6dyzbgxNKb8_10libcgroups6common16read_cgroup_fileNtNtCslIgaOqvXPTn_3std4path7PathBufEB4_
FN:118,_RNCINvNtCs6dyzbgxNKb8_10libcgroups6common17write_cgroup_fileNtNtCslIgaOqvXPTn_3std4path7PathBufNtNtCsc0Hr9amllDc_3nix6unistd3PidEs_0B6_
FN:51,_RNvXs0_NtCs6dyzbgxNKb8_10libcgroups6commonNtB5_11CgroupSetupNtNtCshypYLURccL2_4core3fmt5Debug3fmt
FN:82,_RNvXs8_NtCs6dyzbgxNKb8_10libcgroups6commonNtB5_13ControllerOptNtNtCshypYLURccL2_4core5clone5Clone5cloneB7_
FN:116,_RNCINvNtCs6dyzbgxNKb8_10libcgroups6common17write_cgroup_fileNtNtCslIgaOqvXPTn_3std4path7PathBufxE0B6_
FN:116,_RNCINvNtCs6dyzbgxNKb8_10libcgroups6common17write_cgroup_fileRNtNtCslIgaOqvXPTn_3std4path7PathBuftE0B6_
FN:252,_RNvNtCs6dyzbgxNKb8_10libcgroups6common12get_all_pids
FN:109,_RINvNtCs6dyzbgxNKb8_10libcgroups6common17write_cgroup_fileNtNtCslIgaOqvXPTn_3std4path7PathBufmEB4_
FN:109,_RINvNtCs6dyzbgxNKb8_10libcgroups6common17write_cgroup_fileRNtNtCslIgaOqvXPTn_3std4path7PathBufRNtNtCsdfjrgz5TZDL_5alloc6string6StringEB4_
FN:353,_RNvNtCs6dyzbgxNKb8_10libcgroups6common15default_devices
FN:118,_RNCINvNtCs6dyzbgxNKb8_10libcgroups6common17write_cgroup_fileNtNtCslIgaOqvXPTn_3std4path7PathBuftEs_0B6_
FN:109,_RINvNtCs6dyzbgxNKb8_10libcgroups6common17write_cgroup_fileNtNtCslIgaOqvXPTn_3std4path7PathBufRNtNtCsdfjrgz5TZDL_5alloc6string6StringEB4_
FN:116,_RNCINvNtCs6dyzbgxNKb8_10libcgroups6common17write_cgroup_fileNtNtCslIgaOqvXPTn_3std4path7PathBuflE0B6_
FN:116,_RNCINvNtCs6dyzbgxNKb8_10libcgroups6common17write_cgroup_fileRNtNtCslIgaOqvXPTn_3std4path7PathBufNtNtCsc0Hr9amllDc_3nix6unistd3PidE0B6_
FN:118,_RNCINvNtCs6dyzbgxNKb8_10libcgroups6common17write_cgroup_fileRNtNtCslIgaOqvXPTn_3std4path7PathBuftEs_0B6_
FN:109,_RINvNtCs6dyzbgxNKb8_10libcgroups6common17write_cgroup_fileNtNtCslIgaOqvXPTn_3std4path7PathBuflEB4_
FN:137,_RNvNtCs6dyzbgxNKb8_10libcgroups6common16get_cgroup_setup
FN:407,_RINvNtCs6dyzbgxNKb8_10libcgroups6common17delete_with_retryRNtNtCslIgaOqvXPTn_3std4path7PathBufNtNtCshypYLURccL2_4core4time8DurationEB4_
FN:116,_RNCINvNtCs6dyzbgxNKb8_10libcgroups6common17write_cgroup_fileNtNtCslIgaOqvXPTn_3std4path7PathBufmE0B6_
FN:220,_RNvNtCs6dyzbgxNKb8_10libcgroups6common29create_systemd_cgroup_manager
FN:297,_RNCINvXs_NtCs6dyzbgxNKb8_10libcgroups6commonNtNtCslIgaOqvXPTn_3std4path7PathBufNtB7_10PathBufExt11join_safelyRNtNtCsdfjrgz5TZDL_5alloc6string6StringE0B9_
FN:59,_RNvXNtCs6dyzbgxNKb8_10libcgroups6commonNtB2_11CgroupSetupNtNtCshypYLURccL2_4core3fmt7Display3fmt
FN:109,_RINvNtCs6dyzbgxNKb8_10libcgroups6common17write_cgroup_fileNtNtCslIgaOqvXPTn_3std4path7PathBuftEB4_
FN:118,_RNCINvNtCs6dyzbgxNKb8_10libcgroups6common17write_cgroup_fileNtNtCslIgaOqvXPTn_3std4path7PathBufyEs_0B6_
FN:118,_RNCINvNtCs6dyzbgxNKb8_10libcgroups6common17write_cgroup_fileRNtNtCslIgaOqvXPTn_3std4path7PathBufRNtNtCsdfjrgz5TZDL_5alloc6string6StringEs_0B6_
FN:302,_RNvNtCs6dyzbgxNKb8_10libcgroups6common21default_allow_devices
FN:118,_RNCINvNtCs6dyzbgxNKb8_10libcgroups6common17write_cgroup_fileNtNtCslIgaOqvXPTn_3std4path7PathBufRNtNtCsdfjrgz5TZDL_5alloc6string6StringEs_0B6_
FN:109,_RINvNtCs6dyzbgxNKb8_10libcgroups6common17write_cgroup_fileNtNtCslIgaOqvXPTn_3std4path7PathBufxEB4_
FN:124,_RINvNtCs6dyzbgxNKb8_10libcgroups6common16read_cgroup_fileRNtNtCslIgaOqvXPTn_3std4path7PathBufEB4_
FN:118,_RNCINvNtCs6dyzbgxNKb8_10libcgroups6common17write_cgroup_fileNtNtCslIgaOqvXPTn_3std4path7PathBufmEs_0B6_
FN:116,_RNCINvNtCs6dyzbgxNKb8_10libcgroups6common17write_cgroup_fileNtNtCslIgaOqvXPTn_3std4path7PathBufNtNtCsc0Hr9amllDc_3nix6unistd3PidE0B6_
FN:116,_RNCINvNtCs6dyzbgxNKb8_10libcgroups6common17write_cgroup_fileNtNtCslIgaOqvXPTn_3std4path7PathBufRNtNtCsdfjrgz5TZDL_5alloc6string6StringE0B6_
FN:71,_RNvXs7_NtCs6dyzbgxNKb8_10libcgroups6commonNtB5_12FreezerStateNtNtCshypYLURccL2_4core3cmp9PartialEq2eqB7_
FN:109,_RINvNtCs6dyzbgxNKb8_10libcgroups6common17write_cgroup_fileNtNtCslIgaOqvXPTn_3std4path7PathBufNtNtCsdfjrgz5TZDL_5alloc6string6StringEB4_
FN:95,_RINvNtCs6dyzbgxNKb8_10libcgroups6common21write_cgroup_file_strNtNtCslIgaOqvXPTn_3std4path7PathBufEB4_
FN:101,_RNCINvNtCs6dyzbgxNKb8_10libcgroups6common21write_cgroup_file_strRNtNtCslIgaOqvXPTn_3std4path7PathBufE0B6_
FN:116,_RNCINvNtCs6dyzbgxNKb8_10libcgroups6common17write_cgroup_fileNtNtCslIgaOqvXPTn_3std4path7PathBuftE0B6_
FN:109,_RINvNtCs6dyzbgxNKb8_10libcgroups6common17write_cgroup_fileRNtNtCslIgaOqvXPTn_3std4path7PathBufNtNtCsc0Hr9amllDc_3nix6unistd3PidEB4_
FN:126,_RNCINvNtCs6dyzbgxNKb8_10libcgroups6common16read_cgroup_fileNtNtCslIgaOqvXPTn_3std4path7PathBufE0B6_
FN:124,_RINvNtCs6dyzbgxNKb8_10libcgroups6common16read_cgroup_fileRNtNtCslIgaOqvXPTn_3std4path4PathEB4_
FN:272,_RINvNtCs6dyzbgxNKb8_10libcgroups6common8walk_dirNCNvB2_12get_all_pids0EB4_
FN:297,_RNCINvXs_NtCs6dyzbgxNKb8_10libcgroups6commonNtNtCslIgaOqvXPTn_3std4path7PathBufNtB7_10PathBufExt11join_safelyRBG_E0B9_
FN:71,_RNvXs1_NtCs6dyzbgxNKb8_10libcgroups6commonNtB5_12FreezerStateNtNtCshypYLURccL2_4core5clone5Clone5cloneB7_
FN:174,_RINvNtCs6dyzbgxNKb8_10libcgroups6common21create_cgroup_managerRNtNtCslIgaOqvXPTn_3std4path7PathBufECs9aHzSL9YGbd_12libcontainer
FN:174,_RINvNtCs6dyzbgxNKb8_10libcgroups6common21create_cgroup_managerNtNtCslIgaOqvXPTn_3std4path7PathBufECs9aHzSL9YGbd_12libcontainer
FNDA:1,_RINvNtCslEpTaKix7hR_10libcgroups6common17write_cgroup_fileNtNtCslIgaOqvXPTn_3std4path7PathBufmEB4_
FNDA:0,_RNCINvNtCslEpTaKix7hR_10libcgroups6common21write_cgroup_file_strRNtNtCslIgaOqvXPTn_3std4path7PathBufEs_0B6_
FNDA:2,_RNvXs3_NtCslEpTaKix7hR_10libcgroups6commonNtB5_12FreezerStateNtNtCshypYLURccL2_4core3fmt5Debug3fmt
FNDA:0,_RNCINvNtCslEpTaKix7hR_10libcgroups6common16read_cgroup_fileNtNtCslIgaOqvXPTn_3std4path7PathBufE0B6_
FNDA:0,_RNvNtCslEpTaKix7hR_10libcgroups6common15default_devices
FNDA:0,_RNCINvXs_NtCslEpTaKix7hR_10libcgroups6commonNtNtCslIgaOqvXPTn_3std4path7PathBufNtB7_10PathBufExt11join_safelyRBG_E0B9_
FNDA:0,_RNCINvNtCslEpTaKix7hR_10libcgroups6common17write_cgroup_fileRNtNtCslIgaOqvXPTn_3std4path7PathBufRNtNtCsdfjrgz5TZDL_5alloc6string6StringEs_0B6_
FNDA:0,_RNvXs0_NtCslEpTaKix7hR_10libcgroups6commonNtB5_11CgroupSetupNtNtCshypYLURccL2_4core3fmt5Debug3fmt
FNDA:0,_RNCINvNtCslEpTaKix7hR_10libcgroups6common17write_cgroup_fileNtNtCslIgaOqvXPTn_3std4path7PathBufmEs_0B6_
FNDA:0,_RNCINvNtCslEpTaKix7hR_10libcgroups6common17write_cgroup_fileNtNtCslIgaOqvXPTn_3std4path7PathBufReE0B6_
FNDA:0,_RNCINvNtCslEpTaKix7hR_10libcgroups6common17write_cgroup_fileRNtNtCslIgaOqvXPTn_3std4path7PathBufyEs_0B6_
FNDA:0,_RNvNtCslEpTaKix7hR_10libcgroups6common12get_all_pids
FNDA:0,_RNCINvNtCslEpTaKix7hR_10libcgroups6common17write_cgroup_fileNtNtCslIgaOqvXPTn_3std4path7PathBufxEs_0B6_
FNDA:1,_RNvNtCslEpTaKix7hR_10libcgroups6common21default_allow_devices
FNDA:0,_RINvNtCslEpTaKix7hR_10libcgroups6common21create_cgroup_managerpEB4_
FNDA:0,_RINvNtCslEpTaKix7hR_10libcgroups6common8walk_dirpEB4_
FNDA:0,_RNCINvNtCslEpTaKix7hR_10libcgroups6common17write_cgroup_fileNtNtCslIgaOqvXPTn_3std4path7PathBuflEs_0B6_
FNDA:100,_RINvNtCslEpTaKix7hR_10libcgroups6common17write_cgroup_fileNtNtCslIgaOqvXPTn_3std4path7PathBuflEB4_
FNDA:0,_RNCINvNtCslEpTaKix7hR_10libcgroups6common17write_cgroup_fileNtNtCslIgaOqvXPTn_3std4path7PathBufNtNtCsdfjrgz5TZDL_5alloc6string6StringEs_0B6_
FNDA:3,_RINvNtCslEpTaKix7hR_10libcgroups6common17write_cgroup_fileNtNtCslIgaOqvXPTn_3std4path7PathBufNtNtCsdfjrgz5TZDL_5alloc6string6StringEB4_
FNDA:0,_RNCINvNtCslEpTaKix7hR_10libcgroups6common17write_cgroup_fileNtNtCslIgaOqvXPTn_3std4path7PathBufyE0B6_
FNDA:0,_RNvNtCslEpTaKix7hR_10libcgroups6common29create_systemd_cgroup_manager
FNDA:2,_RINvNtCslEpTaKix7hR_10libcgroups6common16read_cgroup_fileRNtNtCslIgaOqvXPTn_3std4path7PathBufEB4_
FNDA:0,_RNCINvNtCslEpTaKix7hR_10libcgroups6common17write_cgroup_fileNtNtCslIgaOqvXPTn_3std4path7PathBufNtNtCsc0Hr9amllDc_3nix6unistd3PidE0B6_
FNDA:2,_RNCINvNtCslEpTaKix7hR_10libcgroups6common21write_cgroup_file_strNtNtCslIgaOqvXPTn_3std4path7PathBufE0B6_
FNDA:0,_RNCINvNtCslEpTaKix7hR_10libcgroups6common17write_cgroup_fileNtNtCslIgaOqvXPTn_3std4path7PathBufRNtNtCsdfjrgz5TZDL_5alloc6string6StringE0B6_
FNDA:0,_RNCNvNtCslEpTaKix7hR_10libcgroups6common16get_cgroup_setups_0B5_
FNDA:2,_RINvNtCslEpTaKix7hR_10libcgroups6common17write_cgroup_fileRNtNtCslIgaOqvXPTn_3std4path7PathBufRNtNtCsdfjrgz5TZDL_5alloc6string6StringEB4_
FNDA:7,_RINvNtCslEpTaKix7hR_10libcgroups6common17write_cgroup_fileNtNtCslIgaOqvXPTn_3std4path7PathBufyEB4_
FNDA:3,_RNvXs7_NtCslEpTaKix7hR_10libcgroups6commonNtB5_12FreezerStateNtNtCshypYLURccL2_4core3cmp9PartialEq2eqB7_
FNDA:0,_RNvXs1_NtCslEpTaKix7hR_10libcgroups6commonNtB5_12FreezerStateNtNtCshypYLURccL2_4core5clone5Clone5cloneB7_
FNDA:0,_RNCINvXs_NtCslEpTaKix7hR_10libcgroups6commonNtNtCslIgaOqvXPTn_3std4path7PathBufNtB7_10PathBufExt11join_safelyRNtNtCsdfjrgz5TZDL_5alloc6string6StringE0B9_
FNDA:25,_RINvNtCslEpTaKix7hR_10libcgroups6common16read_cgroup_fileRNtNtCslIgaOqvXPTn_3std4path4PathEB4_
FNDA:0,_RNCINvNtCslEpTaKix7hR_10libcgroups6common17write_cgroup_fileNtNtCslIgaOqvXPTn_3std4path7PathBuftE0B6_
FNDA:0,_RNCINvNtCslEpTaKix7hR_10libcgroups6common17write_cgroup_fileNtNtCslIgaOqvXPTn_3std4path7PathBufNtNtCsc0Hr9amllDc_3nix6unistd3PidEs_0B6_
FNDA:0,_RNCINvNtCslEpTaKix7hR_10libcgroups6common17write_cgroup_fileNtNtCslIgaOqvXPTn_3std4path7PathBufRNtNtCsdfjrgz5TZDL_5alloc6string6StringEs_0B6_
FNDA:4915,_RINvNtCslEpTaKix7hR_10libcgroups6common21write_cgroup_file_strNtNtCslIgaOqvXPTn_3std4path7PathBufEB4_
FNDA:2,_RINvNtCslEpTaKix7hR_10libcgroups6common17write_cgroup_fileRNtNtCslIgaOqvXPTn_3std4path7PathBuftEB4_
FNDA:0,_RNCINvNtCslEpTaKix7hR_10libcgroups6common17write_cgroup_fileRNtNtCslIgaOqvXPTn_3std4path7PathBuftEs_0B6_
FNDA:0,_RNvXs9_NtCslEpTaKix7hR_10libcgroups6commonNtB5_13ControllerOptNtNtCshypYLURccL2_4core3fmt5Debug3fmt
FNDA:5,_RINvNtCslEpTaKix7hR_10libcgroups6common17write_cgroup_fileNtNtCslIgaOqvXPTn_3std4path7PathBufNtNtCsc0Hr9amllDc_3nix6unistd3PidEB4_
FNDA:8,_RNCINvNtCslEpTaKix7hR_10libcgroups6common17write_cgroup_fileNtNtCslIgaOqvXPTn_3std4path7PathBufxE0B6_
FNDA:0,_RNvNtCslEpTaKix7hR_10libcgroups6common24create_v1_cgroup_manager
FNDA:0,_RNCINvNtCslEpTaKix7hR_10libcgroups6common17write_cgroup_fileNtNtCslIgaOqvXPTn_3std4path7PathBuflE0B6_
FNDA:0,_RNCINvNtCslEpTaKix7hR_10libcgroups6common17write_cgroup_fileRNtNtCslIgaOqvXPTn_3std4path7PathBuftE0B6_
FNDA:0,_RNCINvNtCslEpTaKix7hR_10libcgroups6common16read_cgroup_fileRNtNtCslIgaOqvXPTn_3std4path7PathBufE0B6_
FNDA:0,_RNCNvNtCslEpTaKix7hR_10libcgroups6common12get_all_pids0B5_
FNDA:0,_RNvNtCslEpTaKix7hR_10libcgroups6common16get_cgroup_setup
FNDA:2,_RINvNtCslEpTaKix7hR_10libcgroups6common17write_cgroup_fileNtNtCslIgaOqvXPTn_3std4path7PathBufRNtNtCsdfjrgz5TZDL_5alloc6string6StringEB4_
FNDA:14,_RINvNtCslEpTaKix7hR_10libcgroups6common16read_cgroup_fileNtNtCslIgaOqvXPTn_3std4path7PathBufEB4_
FNDA:4,_RINvNtCslEpTaKix7hR_10libcgroups6common17write_cgroup_fileNtNtCslIgaOqvXPTn_3std4path7PathBufReEB4_
FNDA:0,_RNvXs8_NtCslEpTaKix7hR_10libcgroups6commonNtB5_13ControllerOptNtNtCshypYLURccL2_4core5clone5Clone5cloneB7_
FNDA:0,_RNCINvNtCslEpTaKix7hR_10libcgroups6common17write_cgroup_fileNtNtCslIgaOqvXPTn_3std4path7PathBufyEs_0B6_
FNDA:2,_RINvNtCslEpTaKix7hR_10libcgroups6common17write_cgroup_fileNtNtCslIgaOqvXPTn_3std4path7PathBuftEB4_
FNDA:0,_RINvNtCslEpTaKix7hR_10libcgroups6common17delete_with_retryppEB4_
FNDA:0,_RNvXNtCslEpTaKix7hR_10libcgroups6commonNtB2_11CgroupSetupNtNtCshypYLURccL2_4core3fmt7Display3fmt
FNDA:10,_RINvNtCslEpTaKix7hR_10libcgroups6common21write_cgroup_file_strRNtNtCslIgaOqvXPTn_3std4path7PathBufEB4_
FNDA:0,_RNCINvNtCslEpTaKix7hR_10libcgroups6common17write_cgroup_fileNtNtCslIgaOqvXPTn_3std4path7PathBufNtNtCsdfjrgz5TZDL_5alloc6string6StringE0B6_
FNDA:0,_RNCINvNtCslEpTaKix7hR_10libcgroups6common21write_cgroup_file_strRNtNtCslIgaOqvXPTn_3std4path7PathBufE0B6_
FNDA:1,_RINvNtCslEpTaKix7hR_10libcgroups6common17write_cgroup_fileRNtNtCslIgaOqvXPTn_3std4path7PathBufyEB4_
FNDA:0,_RNCINvNtCslEpTaKix7hR_10libcgroups6common17write_cgroup_fileNtNtCslIgaOqvXPTn_3std4path7PathBufReEs_0B6_
FNDA:0,_RNCINvNtCslEpTaKix7hR_10libcgroups6common17write_cgroup_fileNtNtCslIgaOqvXPTn_3std4path7PathBuftEs_0B6_
FNDA:0,_RNvNtCslEpTaKix7hR_10libcgroups6common24create_v2_cgroup_manager
FNDA:243,_RINvNtCslEpTaKix7hR_10libcgroups6common17write_cgroup_fileNtNtCslIgaOqvXPTn_3std4path7PathBufxEB4_
FNDA:0,_RNCINvNtCslEpTaKix7hR_10libcgroups6common17write_cgroup_fileRNtNtCslIgaOqvXPTn_3std4path7PathBufRNtNtCsdfjrgz5TZDL_5alloc6string6StringE0B6_
FNDA:0,_RNCNvNtCslEpTaKix7hR_10libcgroups6common16get_cgroup_setup0B5_
FNDA:0,_RNCINvNtCslEpTaKix7hR_10libcgroups6common16read_cgroup_fileRNtNtCslIgaOqvXPTn_3std4path4PathE0B6_
FNDA:0,_RNCINvNtCslEpTaKix7hR_10libcgroups6common17write_cgroup_fileRNtNtCslIgaOqvXPTn_3std4path7PathBufyE0B6_
FNDA:0,_RNCINvNtCslEpTaKix7hR_10libcgroups6common17write_cgroup_fileNtNtCslIgaOqvXPTn_3std4path7PathBufmE0B6_
FNDA:0,_RNCINvNtCslEpTaKix7hR_10libcgroups6common21write_cgroup_file_strNtNtCslIgaOqvXPTn_3std4path7PathBufEs_0B6_
FNDA:3,_RINvXs_NtCslEpTaKix7hR_10libcgroups6commonNtNtCslIgaOqvXPTn_3std4path7PathBufNtB5_10PathBufExt11join_safelyRBE_EB7_
FNDA:3,_RINvXs_NtCslEpTaKix7hR_10libcgroups6commonNtNtCslIgaOqvXPTn_3std4path7PathBufNtB5_10PathBufExt11join_safelyRNtNtCsdfjrgz5TZDL_5alloc6string6StringEB7_
FNDA:0,_RINvXs_NtCs6dyzbgxNKb8_10libcgroups6commonNtNtCslIgaOqvXPTn_3std4path7PathBufNtB5_10PathBufExt11join_safelyRBE_EB7_
FNDA:0,_RINvXs_NtCs6dyzbgxNKb8_10libcgroups6commonNtNtCslIgaOqvXPTn_3std4path7PathBufNtB5_10PathBufExt11join_safelyRNtBG_4PathEB7_
FNDA:0,_RINvXs_NtCs6dyzbgxNKb8_10libcgroups6commonNtNtCslIgaOqvXPTn_3std4path7PathBufNtB5_10PathBufExt11join_safelyRNtNtCsdfjrgz5TZDL_5alloc6string6StringEB7_
FNDA:0,_RNCINvNtCs6dyzbgxNKb8_10libcgroups6common17write_cgroup_fileNtNtCslIgaOqvXPTn_3std4path7PathBuflEs_0B6_
FNDA:0,_RNCINvNtCs6dyzbgxNKb8_10libcgroups6common17write_cgroup_fileRNtNtCslIgaOqvXPTn_3std4path7PathBufNtNtCsc0Hr9amllDc_3nix6unistd3PidEs_0B6_
FNDA:0,_RINvNtCs6dyzbgxNKb8_10libcgroups6common21write_cgroup_file_strRNtNtCslIgaOqvXPTn_3std4path7PathBufEB4_
FNDA:0,_RNCINvNtCs6dyzbgxNKb8_10libcgroups6common16read_cgroup_fileRNtNtCslIgaOqvXPTn_3std4path7PathBufE0B6_
FNDA:0,_RNCINvXs_NtCs6dyzbgxNKb8_10libcgroups6commonNtNtCslIgaOqvXPTn_3std4path7PathBufNtB7_10PathBufExt11join_safelyRNtBI_4PathE0B9_
FNDA:0,_RINvNtCs6dyzbgxNKb8_10libcgroups6common17write_cgroup_fileNtNtCslIgaOqvXPTn_3std4path7PathBufyEB4_
FNDA:0,_RNCINvNtCs6dyzbgxNKb8_10libcgroups6common21write_cgroup_file_strNtNtCslIgaOqvXPTn_3std4path7PathBufEs_0B6_
FNDA:0,_RNCINvNtCs6dyzbgxNKb8_10libcgroups6common17write_cgroup_fileNtNtCslIgaOqvXPTn_3std4path7PathBufxEs_0B6_
FNDA:0,_RINvNtCs6dyzbgxNKb8_10libcgroups6common17write_cgroup_fileNtNtCslIgaOqvXPTn_3std4path7PathBufReEB4_
FNDA:0,_RINvNtCs6dyzbgxNKb8_10libcgroups6common17write_cgroup_fileRNtNtCslIgaOqvXPTn_3std4path7PathBuftEB4_
FNDA:0,_RNCINvNtCs6dyzbgxNKb8_10libcgroups6common21write_cgroup_file_strNtNtCslIgaOqvXPTn_3std4path7PathBufE0B6_
FNDA:0,_RNCINvNtCs6dyzbgxNKb8_10libcgroups6common17write_cgroup_fileNtNtCslIgaOqvXPTn_3std4path7PathBufNtNtCsdfjrgz5TZDL_5alloc6string6StringE0B6_
FNDA:0,_RNvNtCs6dyzbgxNKb8_10libcgroups6common24create_v2_cgroup_manager
FNDA:0,_RNvXs9_NtCs6dyzbgxNKb8_10libcgroups6commonNtB5_13ControllerOptNtNtCshypYLURccL2_4core3fmt5Debug3fmt
FNDA:0,_RNCINvNtCs6dyzbgxNKb8_10libcgroups6common16read_cgroup_fileRNtNtCslIgaOqvXPTn_3std4path4PathE0B6_
FNDA:0,_RNCINvNtCs6dyzbgxNKb8_10libcgroups6common17write_cgroup_fileNtNtCslIgaOqvXPTn_3std4path7PathBufReE0B6_
FNDA:0,_RNvNtCs6dyzbgxNKb8_10libcgroups6common24create_v1_cgroup_manager
FNDA:0,_RNCINvNtCs6dyzbgxNKb8_10libcgroups6common17write_cgroup_fileNtNtCslIgaOqvXPTn_3std4path7PathBufyE0B6_
FNDA:0,_RNCINvNtCs6dyzbgxNKb8_10libcgroups6common17write_cgroup_fileRNtNtCslIgaOqvXPTn_3std4path7PathBufRNtNtCsdfjrgz5TZDL_5alloc6string6StringE0B6_
FNDA:0,_RNvXs3_NtCs6dyzbgxNKb8_10libcgroups6commonNtB5_12FreezerStateNtNtCshypYLURccL2_4core3fmt5Debug3fmt
FNDA:0,_RNCINvNtCs6dyzbgxNKb8_10libcgroups6common17write_cgroup_fileNtNtCslIgaOqvXPTn_3std4path7PathBufNtNtCsdfjrgz5TZDL_5alloc6string6StringEs_0B6_
FNDA:0,_RINvNtCs6dyzbgxNKb8_10libcgroups6common17write_cgroup_fileNtNtCslIgaOqvXPTn_3std4path7PathBufNtNtCsc0Hr9amllDc_3nix6unistd3PidEB4_
FNDA:0,_RNCNvNtCs6dyzbgxNKb8_10libcgroups6common12get_all_pids0B5_
FNDA:0,_RNCINvNtCs6dyzbgxNKb8_10libcgroups6common21write_cgroup_file_strRNtNtCslIgaOqvXPTn_3std4path7PathBufEs_0B6_
FNDA:0,_RNCNvNtCs6dyzbgxNKb8_10libcgroups6common16get_cgroup_setups_0B5_
FNDA:0,_RNCINvNtCs6dyzbgxNKb8_10libcgroups6common17write_cgroup_fileNtNtCslIgaOqvXPTn_3std4path7PathBufReEs_0B6_
FNDA:0,_RNCNvNtCs6dyzbgxNKb8_10libcgroups6common16get_cgroup_setup0B5_
FNDA:0,_RINvNtCs6dyzbgxNKb8_10libcgroups6common21create_cgroup_managerpEB4_
FNDA:0,_RINvNtCs6dyzbgxNKb8_10libcgroups6common16read_cgroup_fileNtNtCslIgaOqvXPTn_3std4path7PathBufEB4_
FNDA:0,_RNCINvNtCs6dyzbgxNKb8_10libcgroups6common17write_cgroup_fileNtNtCslIgaOqvXPTn_3std4path7PathBufNtNtCsc0Hr9amllDc_3nix6unistd3PidEs_0B6_
FNDA:0,_RNvXs0_NtCs6dyzbgxNKb8_10libcgroups6commonNtB5_11CgroupSetupNtNtCshypYLURccL2_4core3fmt5Debug3fmt
FNDA:0,_RNvXs8_NtCs6dyzbgxNKb8_10libcgroups6commonNtB5_13ControllerOptNtNtCshypYLURccL2_4core5clone5Clone5cloneB7_
FNDA:0,_RNCINvNtCs6dyzbgxNKb8_10libcgroups6common17write_cgroup_fileNtNtCslIgaOqvXPTn_3std4path7PathBufxE0B6_
FNDA:0,_RNCINvNtCs6dyzbgxNKb8_10libcgroups6common17write_cgroup_fileRNtNtCslIgaOqvXPTn_3std4path7PathBuftE0B6_
FNDA:0,_RNvNtCs6dyzbgxNKb8_10libcgroups6common12get_all_pids
FNDA:0,_RINvNtCs6dyzbgxNKb8_10libcgroups6common17write_cgroup_fileNtNtCslIgaOqvXPTn_3std4path7PathBufmEB4_
FNDA:0,_RINvNtCs6dyzbgxNKb8_10libcgroups6common17write_cgroup_fileRNtNtCslIgaOqvXPTn_3std4path7PathBufRNtNtCsdfjrgz5TZDL_5alloc6string6StringEB4_
FNDA:0,_RNvNtCs6dyzbgxNKb8_10libcgroups6common15default_devices
FNDA:0,_RNCINvNtCs6dyzbgxNKb8_10libcgroups6common17write_cgroup_fileNtNtCslIgaOqvXPTn_3std4path7PathBuftEs_0B6_
FNDA:0,_RINvNtCs6dyzbgxNKb8_10libcgroups6common17write_cgroup_fileNtNtCslIgaOqvXPTn_3std4path7PathBufRNtNtCsdfjrgz5TZDL_5alloc6string6StringEB4_
FNDA:0,_RNCINvNtCs6dyzbgxNKb8_10libcgroups6common17write_cgroup_fileNtNtCslIgaOqvXPTn_3std4path7PathBuflE0B6_
FNDA:0,_RNCINvNtCs6dyzbgxNKb8_10libcgroups6common17write_cgroup_fileRNtNtCslIgaOqvXPTn_3std4path7PathBufNtNtCsc0Hr9amllDc_3nix6unistd3PidE0B6_
FNDA:0,_RNCINvNtCs6dyzbgxNKb8_10libcgroups6common17write_cgroup_fileRNtNtCslIgaOqvXPTn_3std4path7PathBuftEs_0B6_
FNDA:0,_RINvNtCs6dyzbgxNKb8_10libcgroups6common17write_cgroup_fileNtNtCslIgaOqvXPTn_3std4path7PathBuflEB4_
FNDA:0,_RNvNtCs6dyzbgxNKb8_10libcgroups6common16get_cgroup_setup
FNDA:0,_RINvNtCs6dyzbgxNKb8_10libcgroups6common17delete_with_retryRNtNtCslIgaOqvXPTn_3std4path7PathBufNtNtCshypYLURccL2_4core4time8DurationEB4_
FNDA:0,_RNCINvNtCs6dyzbgxNKb8_10libcgroups6common17write_cgroup_fileNtNtCslIgaOqvXPTn_3std4path7PathBufmE0B6_
FNDA:0,_RNvNtCs6dyzbgxNKb8_10libcgroups6common29create_systemd_cgroup_manager
FNDA:0,_RNCINvXs_NtCs6dyzbgxNKb8_10libcgroups6commonNtNtCslIgaOqvXPTn_3std4path7PathBufNtB7_10PathBufExt11join_safelyRNtNtCsdfjrgz5TZDL_5alloc6string6StringE0B9_
FNDA:0,_RNvXNtCs6dyzbgxNKb8_10libcgroups6commonNtB2_11CgroupSetupNtNtCshypYLURccL2_4core3fmt7Display3fmt
FNDA:0,_RINvNtCs6dyzbgxNKb8_10libcgroups6common17write_cgroup_fileNtNtCslIgaOqvXPTn_3std4path7PathBuftEB4_
FNDA:0,_RNCINvNtCs6dyzbgxNKb8_10libcgroups6common17write_cgroup_fileNtNtCslIgaOqvXPTn_3std4path7PathBufyEs_0B6_
FNDA:0,_RNCINvNtCs6dyzbgxNKb8_10libcgroups6common17write_cgroup_fileRNtNtCslIgaOqvXPTn_3std4path7PathBufRNtNtCsdfjrgz5TZDL_5alloc6string6StringEs_0B6_
FNDA:0,_RNvNtCs6dyzbgxNKb8_10libcgroups6common21default_allow_devices
FNDA:0,_RNCINvNtCs6dyzbgxNKb8_10libcgroups6common17write_cgroup_fileNtNtCslIgaOqvXPTn_3std4path7PathBufRNtNtCsdfjrgz5TZDL_5alloc6string6StringEs_0B6_
FNDA:0,_RINvNtCs6dyzbgxNKb8_10libcgroups6common17write_cgroup_fileNtNtCslIgaOqvXPTn_3std4path7PathBufxEB4_
FNDA:0,_RINvNtCs6dyzbgxNKb8_10libcgroups6common16read_cgroup_fileRNtNtCslIgaOqvXPTn_3std4path7PathBufEB4_
FNDA:0,_RNCINvNtCs6dyzbgxNKb8_10libcgroups6common17write_cgroup_fileNtNtCslIgaOqvXPTn_3std4path7PathBufmEs_0B6_
FNDA:0,_RNCINvNtCs6dyzbgxNKb8_10libcgroups6common17write_cgroup_fileNtNtCslIgaOqvXPTn_3std4path7PathBufNtNtCsc0Hr9amllDc_3nix6unistd3PidE0B6_
FNDA:0,_RNCINvNtCs6dyzbgxNKb8_10libcgroups6common17write_cgroup_fileNtNtCslIgaOqvXPTn_3std4path7PathBufRNtNtCsdfjrgz5TZDL_5alloc6string6StringE0B6_
FNDA:0,_RNvXs7_NtCs6dyzbgxNKb8_10libcgroups6commonNtB5_12FreezerStateNtNtCshypYLURccL2_4core3cmp9PartialEq2eqB7_
FNDA:0,_RINvNtCs6dyzbgxNKb8_10libcgroups6common17write_cgroup_fileNtNtCslIgaOqvXPTn_3std4path7PathBufNtNtCsdfjrgz5TZDL_5alloc6string6StringEB4_
FNDA:0,_RINvNtCs6dyzbgxNKb8_10libcgroups6common21write_cgroup_file_strNtNtCslIgaOqvXPTn_3std4path7PathBufEB4_
FNDA:0,_RNCINvNtCs6dyzbgxNKb8_10libcgroups6common21write_cgroup_file_strRNtNtCslIgaOqvXPTn_3std4path7PathBufE0B6_
FNDA:0,_RNCINvNtCs6dyzbgxNKb8_10libcgroups6common17write_cgroup_fileNtNtCslIgaOqvXPTn_3std4path7PathBuftE0B6_
FNDA:0,_RINvNtCs6dyzbgxNKb8_10libcgroups6common17write_cgroup_fileRNtNtCslIgaOqvXPTn_3std4path7PathBufNtNtCsc0Hr9amllDc_3nix6unistd3PidEB4_
FNDA:0,_RNCINvNtCs6dyzbgxNKb8_10libcgroups6common16read_cgroup_fileNtNtCslIgaOqvXPTn_3std4path7PathBufE0B6_
FNDA:0,_RINvNtCs6dyzbgxNKb8_10libcgroups6common16read_cgroup_fileRNtNtCslIgaOqvXPTn_3std4path4PathEB4_
FNDA:0,_RINvNtCs6dyzbgxNKb8_10libcgroups6common8walk_dirNCNvB2_12get_all_pids0EB4_
FNDA:0,_RNCINvXs_NtCs6dyzbgxNKb8_10libcgroups6commonNtNtCslIgaOqvXPTn_3std4path7PathBufNtB7_10PathBufExt11join_safelyRBG_E0B9_
FNDA:0,_RNvXs1_NtCs6dyzbgxNKb8_10libcgroups6commonNtB5_12FreezerStateNtNtCshypYLURccL2_4core5clone5Clone5cloneB7_
FNDA:0,_RINvNtCs6dyzbgxNKb8_10libcgroups6common21create_cgroup_managerRNtNtCslIgaOqvXPTn_3std4path7PathBufECs9aHzSL9YGbd_12libcontainer
FNDA:0,_RINvNtCs6dyzbgxNKb8_10libcgroups6common21create_cgroup_managerNtNtCslIgaOqvXPTn_3std4path7PathBufECs9aHzSL9YGbd_12libcontainer
FNF:30
FNH:9
DA:51,0
DA:59,0
DA:60,0
DA:61,0
DA:62,0
DA:63,0
DA:66,0
DA:67,0
DA:71,3
DA:82,0
DA:95,4925
DA:96,4925
DA:97,4925
DA:98,4925
DA:99,4925
DA:100,4925
DA:101,4925
DA:102,4923
DA:103,4923
DA:105,4910
DA:106,4912
DA:109,372
DA:110,372
DA:111,372
DA:112,372
DA:113,372
DA:114,372
DA:115,372
DA:116,372
DA:117,364
DA:118,364
DA:120,364
DA:121,372
DA:124,41
DA:125,41
DA:126,41
DA:127,41
DA:137,0
DA:138,0
DA:139,0
DA:145,0
DA:146,0
DA:147,0
DA:148,0
DA:149,0
DA:150,0
DA:151,0
DA:152,0
DA:153,0
DA:154,0
DA:155,0
DA:156,0
DA:157,0
DA:158,0
DA:159,0
DA:160,0
DA:161,0
DA:162,0
DA:163,0
DA:165,0
DA:166,0
DA:168,0
DA:171,0
DA:172,0
DA:174,0
DA:175,0
DA:176,0
DA:177,0
DA:178,0
DA:179,0
DA:180,0
DA:181,0
DA:182,0
DA:183,0
DA:185,0
DA:186,0
DA:187,0
DA:188,0
DA:189,0
DA:192,0
DA:195,0
DA:196,0
DA:197,0
DA:198,0
DA:206,0
DA:207,0
DA:208,0
DA:209,0
DA:210,0
DA:211,0
DA:212,0
DA:220,0
DA:221,0
DA:222,0
DA:223,0
DA:224,0
DA:225,0
DA:226,0
DA:227,0
DA:228,0
DA:229,0
DA:230,0
DA:231,0
DA:232,0
DA:233,0
DA:234,0
DA:236,0
DA:237,0
DA:238,0
DA:239,0
DA:240,0
DA:241,0
DA:242,0
DA:252,0
DA:253,0
DA:254,0
DA:255,0
DA:256,0
DA:257,0
DA:258,0
DA:259,0
DA:260,0
DA:262,0
DA:263,0
DA:264,0
DA:265,0
DA:266,0
DA:272,0
DA:273,0
DA:274,0
DA:275,0
DA:276,0
DA:277,0
DA:278,0
DA:279,0
DA:281,0
DA:282,0
DA:289,6
DA:290,6
DA:291,6
DA:292,3
DA:293,3
DA:295,3
DA:296,3
DA:297,3
DA:298,3
DA:299,6
DA:302,1
DA:303,1
DA:304,1
DA:305,1
DA:306,1
DA:307,1
DA:308,1
DA:309,1
DA:310,1
DA:311,1
DA:312,1
DA:313,1
DA:314,1
DA:315,1
DA:316,1
DA:317,1
DA:318,1
DA:319,1
DA:320,1
DA:321,1
DA:322,1
DA:323,1
DA:324,1
DA:325,1
DA:326,1
DA:327,1
DA:328,1
DA:329,1
DA:330,1
DA:331,1
DA:332,1
DA:333,1
DA:334,1
DA:335,1
DA:336,1
DA:337,1
DA:338,1
DA:339,1
DA:340,1
DA:341,1
DA:342,1
DA:343,1
DA:344,1
DA:345,1
DA:346,1
DA:347,1
DA:348,1
DA:349,1
DA:350,1
DA:351,1
DA:353,0
DA:354,0
DA:355,0
DA:356,0
DA:357,0
DA:358,0
DA:359,0
DA:360,0
DA:361,0
DA:362,0
DA:363,0
DA:364,0
DA:365,0
DA:366,0
DA:367,0
DA:368,0
DA:369,0
DA:370,0
DA:371,0
DA:372,0
DA:373,0
DA:374,0
DA:375,0
DA:376,0
DA:377,0
DA:378,0
DA:379,0
DA:380,0
DA:381,0
DA:382,0
DA:383,0
DA:384,0
DA:385,0
DA:386,0
DA:387,0
DA:388,0
DA:389,0
DA:390,0
DA:391,0
DA:392,0
DA:393,0
DA:394,0
DA:395,0
DA:396,0
DA:397,0
DA:398,0
DA:399,0
DA:400,0
DA:401,0
DA:402,0
DA:403,0
DA:404,0
DA:407,0
DA:408,0
DA:409,0
DA:410,0
DA:411,0
DA:412,0
DA:413,0
DA:414,0
DA:415,0
DA:417,0
DA:418,0
DA:419,0
DA:420,0
DA:421,0
DA:422,0
DA:423,0
DA:424,0
DA:425,0
DA:426,0
DA:427,0
DA:430,0
DA:431,0
BRF:0
BRH:0
LF:285
LH:90
end_of_record
SF:crates/libcgroups/src/lib.rs
FN:1,_RNvCslEpTaKix7hR_10libcgroups4main
FNDA:1,_RNvCslEpTaKix7hR_10libcgroups4main
FNF:1
FNH:1
DA:1,1
BRF:0
BRH:0
LF:1
LH:1
end_of_record
SF:crates/libcgroups/src/stats.rs
FN:416,_RNCNvNtNtCslEpTaKix7hR_10libcgroups5stats5tests47test_parse_newline_separated_as_flat_keyed_data0B7_
FN:512,_RNCNvNtNtCslEpTaKix7hR_10libcgroups5stats5tests24test_parse_device_number0B7_
FN:348,_RNCNvNtNtCslEpTaKix7hR_10libcgroups5stats5tests34test_supported_page_sizes_kilobyte0B7_
FN:349,_RNvNtNtCslEpTaKix7hR_10libcgroups5stats5testss_34test_supported_page_sizes_kilobyte
FN:373,_RNvNtNtCslEpTaKix7hR_10libcgroups5stats5testss_40test_parse_single_value_multiple_entries
FN:382,_RNvNtNtCslEpTaKix7hR_10libcgroups5stats5testss_26test_parse_flat_keyed_data
FN:343,_RNvNtNtCslEpTaKix7hR_10libcgroups5stats5testss_34test_supported_page_sizes_megabyte
FN:354,_RNCNvNtNtCslEpTaKix7hR_10libcgroups5stats5tests29test_parse_single_value_valid0B7_
FN:406,_RNCNvNtNtCslEpTaKix7hR_10libcgroups5stats5tests45test_parse_space_separated_as_flat_keyed_data0B7_
FN:417,_RNvNtNtCslEpTaKix7hR_10libcgroups5stats5testss_47test_parse_newline_separated_as_flat_keyed_data
FN:483,_RNvNtNtCslEpTaKix7hR_10libcgroups5stats5testss_47test_parse_space_separated_as_nested_keyed_data
FN:502,_RNCNvNtNtCslEpTaKix7hR_10libcgroups5stats5tests42test_parse_flat_keyed_as_nested_keyed_data0B7_
FN:519,_RNvNtNtCslEpTaKix7hR_10libcgroups5stats5testss_32test_parse_invalid_device_number
FN:427,_RNvNtNtCslEpTaKix7hR_10libcgroups5stats5testss_47test_parse_nested_keyed_data_as_flat_keyed_data
FN:492,_RNCNvNtNtCslEpTaKix7hR_10libcgroups5stats5tests49test_parse_newline_separated_as_nested_keyed_data0B7_
FN:363,_RNCNvNtNtCslEpTaKix7hR_10libcgroups5stats5tests38test_parse_single_value_invalid_number0B7_
FN:342,_RNCNvNtNtCslEpTaKix7hR_10libcgroups5stats5tests34test_supported_page_sizes_megabyte0B7_
FN:426,_RNCNvNtNtCslEpTaKix7hR_10libcgroups5stats5tests47test_parse_nested_keyed_data_as_flat_keyed_data0B7_
FN:396,_RNCNvNtNtCslEpTaKix7hR_10libcgroups5stats5tests42test_parse_flat_keyed_data_with_characters0B7_
FN:503,_RNvNtNtCslEpTaKix7hR_10libcgroups5stats5testss_42test_parse_flat_keyed_as_nested_keyed_data
FN:513,_RNvNtNtCslEpTaKix7hR_10libcgroups5stats5testss_24test_parse_device_number
FN:337,_RNvNtNtCslEpTaKix7hR_10libcgroups5stats5testss_34test_supported_page_sizes_gigabyte
FN:336,_RNCNvNtNtCslEpTaKix7hR_10libcgroups5stats5tests34test_supported_page_sizes_gigabyte0B7_
FN:372,_RNCNvNtNtCslEpTaKix7hR_10libcgroups5stats5tests40test_parse_single_value_multiple_entries0B7_
FN:407,_RNvNtNtCslEpTaKix7hR_10libcgroups5stats5testss_45test_parse_space_separated_as_flat_keyed_data
FN:355,_RNvNtNtCslEpTaKix7hR_10libcgroups5stats5testss_29test_parse_single_value_valid
FN:442,_RNvNtNtCslEpTaKix7hR_10libcgroups5stats5testss_28test_parse_nested_keyed_data
FN:364,_RNvNtNtCslEpTaKix7hR_10libcgroups5stats5testss_38test_parse_single_value_invalid_number
FN:518,_RNCNvNtNtCslEpTaKix7hR_10libcgroups5stats5tests32test_parse_invalid_device_number0B7_
FN:441,_RNCNvNtNtCslEpTaKix7hR_10libcgroups5stats5tests28test_parse_nested_keyed_data0B7_
FN:381,_RNCNvNtNtCslEpTaKix7hR_10libcgroups5stats5tests26test_parse_flat_keyed_data0B7_
FN:397,_RNvNtNtCslEpTaKix7hR_10libcgroups5stats5testss_42test_parse_flat_keyed_data_with_characters
FN:493,_RNvNtNtCslEpTaKix7hR_10libcgroups5stats5testss_49test_parse_newline_separated_as_nested_keyed_data
FN:482,_RNCNvNtNtCslEpTaKix7hR_10libcgroups5stats5tests47test_parse_space_separated_as_nested_keyed_data0B7_
FN:98,_RNvXsq_NtCslEpTaKix7hR_10libcgroups5statsNtB5_8PidStatsNtNtCshypYLURccL2_4core3cmp9PartialEq2eqB7_
FN:128,_RNvXsE_NtCslEpTaKix7hR_10libcgroups5statsNtB5_15BlkioDeviceStatNtNtCshypYLURccL2_4core5clone5Clone5cloneB7_
FN:98,_RNvXsn_NtCslEpTaKix7hR_10libcgroups5statsNtB5_8PidStatsNtNtCshypYLURccL2_4core3fmt5Debug3fmt
FN:85,_RNvXsh_NtCslEpTaKix7hR_10libcgroups5statsNtB5_10MemoryDataNtNtCshypYLURccL2_4core3fmt5Debug3fmt
FN:155,_RINvXNvNtCslEpTaKix7hR_10libcgroups5statss7_1__NtB5_12HugeTlbStatsNtNtCsdJwOYunNrgH_5serde3ser9Serialize9serializepEB7_
FN:38,_RNvXs3_NtCslEpTaKix7hR_10libcgroups5statsNtB5_8CpuUsageNtNtCshypYLURccL2_4core3fmt5Debug3fmt
FN:277,_RNCNvNtCslEpTaKix7hR_10libcgroups5stats23parse_nested_keyed_data0B5_
FN:128,_RNvXsF_NtCslEpTaKix7hR_10libcgroups5statsNtB5_15BlkioDeviceStatNtNtCshypYLURccL2_4core3cmp10PartialOrd11partial_cmpB7_
FN:107,_RINvXNvNtCslEpTaKix7hR_10libcgroups5statss5_1__NtB5_10BlkioStatsNtNtCsdJwOYunNrgH_5serde3ser9Serialize9serializepEB7_
FN:184,_RNvNtCslEpTaKix7hR_10libcgroups5stats17extract_page_size
FN:128,_RINvXNvNtCslEpTaKix7hR_10libcgroups5statss6_1__NtB5_15BlkioDeviceStatNtNtCsdJwOYunNrgH_5serde3ser9Serialize9serializepEB7_
FN:128,_RNvXsB_NtCslEpTaKix7hR_10libcgroups5statsNtB5_15BlkioDeviceStatNtNtCshypYLURccL2_4core3cmp9PartialEq2neB7_
FN:66,_RNvXsg_NtCslEpTaKix7hR_10libcgroups5statsNtB5_11MemoryStatsNtNtCshypYLURccL2_4core7default7Default7defaultB7_
FN:29,_RNvXs1_NtCslEpTaKix7hR_10libcgroups5statsNtB5_8CpuStatsNtNtCshypYLURccL2_4core3fmt5Debug3fmt
FN:166,_RNvNtCslEpTaKix7hR_10libcgroups5stats20supported_page_sizes
FN:55,_RNvXsc_NtCslEpTaKix7hR_10libcgroups5statsNtB5_13CpuThrottlingNtNtCshypYLURccL2_4core3cmp9PartialEq2neB7_
FN:128,_RNvXsG_NtCslEpTaKix7hR_10libcgroups5statsNtB5_15BlkioDeviceStatNtNtCshypYLURccL2_4core3cmp3Ord3cmpB7_
FN:155,_RNvXsK_NtCslEpTaKix7hR_10libcgroups5statsNtB5_12HugeTlbStatsNtNtCshypYLURccL2_4core3cmp9PartialEq2neB7_
FN:142,_RNvXNtCslEpTaKix7hR_10libcgroups5statsNtB2_15BlkioDeviceStatNtNtCshypYLURccL2_4core3fmt7Display3fmt
FN:85,_RNvXsk_NtCslEpTaKix7hR_10libcgroups5statsNtB5_10MemoryDataNtNtCshypYLURccL2_4core3cmp9PartialEq2neB7_
FN:98,_RNvXso_NtCslEpTaKix7hR_10libcgroups5statsNtB5_8PidStatsNtNtCshypYLURccL2_4core7default7Default7defaultB7_
FN:322,_RNCNvNtCslEpTaKix7hR_10libcgroups5stats9pid_stats0B5_
FN:14,_RNvXs0_NtCslEpTaKix7hR_10libcgroups5statsNtB5_5StatsNtNtCshypYLURccL2_4core7default7Default7defaultB7_
FN:155,_RNvXsK_NtCslEpTaKix7hR_10libcgroups5statsNtB5_12HugeTlbStatsNtNtCshypYLURccL2_4core3cmp9PartialEq2eqB7_
FN:14,_RNvXs_NtCslEpTaKix7hR_10libcgroups5statsNtB4_5StatsNtNtCshypYLURccL2_4core3fmt5Debug3fmt
FN:286,_RNCNvNtCslEpTaKix7hR_10libcgroups5stats23parse_nested_keyed_datas_0B5_
FN:155,_RNvXsH_NtCslEpTaKix7hR_10libcgroups5statsNtB5_12HugeTlbStatsNtNtCshypYLURccL2_4core3fmt5Debug3fmt
FN:29,_RNvXs2_NtCslEpTaKix7hR_10libcgroups5statsNtB5_8CpuStatsNtNtCshypYLURccL2_4core7default7Default7defaultB7_
FN:85,_RNvXsk_NtCslEpTaKix7hR_10libcgroups5statsNtB5_10MemoryDataNtNtCshypYLURccL2_4core3cmp9PartialEq2eqB7_
FN:14,_RINvXNvNtCslEpTaKix7hR_10libcgroups5stats1__NtB5_5StatsNtNtCsdJwOYunNrgH_5serde3ser9Serialize9serializepEB7_
FN:55,_RNvXs9_NtCslEpTaKix7hR_10libcgroups5statsNtB5_13CpuThrottlingNtNtCshypYLURccL2_4core3fmt5Debug3fmt
FN:38,_RNvXs6_NtCslEpTaKix7hR_10libcgroups5statsNtB5_8CpuUsageNtNtCshypYLURccL2_4core3cmp9PartialEq2eqB7_
FN:85,_RINvXNvNtCslEpTaKix7hR_10libcgroups5statss3_1__NtB5_10MemoryDataNtNtCsdJwOYunNrgH_5serde3ser9Serialize9serializepEB7_
FN:55,_RINvXNvNtCslEpTaKix7hR_10libcgroups5statss1_1__NtB5_13CpuThrottlingNtNtCsdJwOYunNrgH_5serde3ser9Serialize9serializepEB7_
FN:215,_RNCNvNtCslEpTaKix7hR_10libcgroups5stats11parse_value0B5_
FN:312,_RNvNtCslEpTaKix7hR_10libcgroups5stats9pid_stats
FN:128,_RNvXsz_NtCslEpTaKix7hR_10libcgroups5statsNtB5_15BlkioDeviceStatNtNtCshypYLURccL2_4core3fmt5Debug3fmt
FN:107,_RNvXsu_NtCslEpTaKix7hR_10libcgroups5statsNtB5_10BlkioStatsNtNtCshypYLURccL2_4core7default7Default7defaultB7_
FN:186,_RNCNvNtCslEpTaKix7hR_10libcgroups5stats17extract_page_size0B5_
FN:302,_RNvNtCslEpTaKix7hR_10libcgroups5stats19parse_device_number
FN:227,_RNvNtCslEpTaKix7hR_10libcgroups5stats18parse_single_value
FN:272,_RNvNtCslEpTaKix7hR_10libcgroups5stats23parse_nested_keyed_data
FN:107,_RNvXsw_NtCslEpTaKix7hR_10libcgroups5statsNtB5_10BlkioStatsNtNtCshypYLURccL2_4core3cmp9PartialEq2neB7_
FN:128,_RNvXsB_NtCslEpTaKix7hR_10libcgroups5statsNtB5_15BlkioDeviceStatNtNtCshypYLURccL2_4core3cmp9PartialEq2eqB7_
FN:55,_RNvXsa_NtCslEpTaKix7hR_10libcgroups5statsNtB5_13CpuThrottlingNtNtCshypYLURccL2_4core7default7Default7defaultB7_
FN:258,_RNCNvNtCslEpTaKix7hR_10libcgroups5stats21parse_flat_keyed_data0B5_
FN:107,_RNvXsw_NtCslEpTaKix7hR_10libcgroups5statsNtB5_10BlkioStatsNtNtCshypYLURccL2_4core3cmp9PartialEq2eqB7_
FN:234,_RNCNvNtCslEpTaKix7hR_10libcgroups5stats18parse_single_value0B5_
FN:66,_RINvXNvNtCslEpTaKix7hR_10libcgroups5statss2_1__NtB5_11MemoryStatsNtNtCsdJwOYunNrgH_5serde3ser9Serialize9serializepEB7_
FN:155,_RNvXsI_NtCslEpTaKix7hR_10libcgroups5statsNtB5_12HugeTlbStatsNtNtCshypYLURccL2_4core7default7Default7defaultB7_
FN:85,_RNvXsi_NtCslEpTaKix7hR_10libcgroups5statsNtB5_10MemoryDataNtNtCshypYLURccL2_4core7default7Default7defaultB7_
FN:38,_RINvXNvNtCslEpTaKix7hR_10libcgroups5statss0_1__NtB5_8CpuUsageNtNtCsdJwOYunNrgH_5serde3ser9Serialize9serializepEB7_
FN:38,_RNvXs4_NtCslEpTaKix7hR_10libcgroups5statsNtB5_8CpuUsageNtNtCshypYLURccL2_4core7default7Default7defaultB7_
FN:98,_RINvXNvNtCslEpTaKix7hR_10libcgroups5statss4_1__NtB5_8PidStatsNtNtCsdJwOYunNrgH_5serde3ser9Serialize9serializepEB7_
FN:55,_RNvXsc_NtCslEpTaKix7hR_10libcgroups5statsNtB5_13CpuThrottlingNtNtCshypYLURccL2_4core3cmp9PartialEq2eqB7_
FN:38,_RNvXs6_NtCslEpTaKix7hR_10libcgroups5statsNtB5_8CpuUsageNtNtCshypYLURccL2_4core3cmp9PartialEq2neB7_
FN:29,_RINvXNvNtCslEpTaKix7hR_10libcgroups5statss_1__NtB5_8CpuStatsNtNtCsdJwOYunNrgH_5serde3ser9Serialize9serializepEB7_
FN:107,_RNvXst_NtCslEpTaKix7hR_10libcgroups5statsNtB5_10BlkioStatsNtNtCshypYLURccL2_4core3fmt5Debug3fmt
FN:212,_RNvNtCslEpTaKix7hR_10libcgroups5stats11parse_value
FN:98,_RNvXsq_NtCslEpTaKix7hR_10libcgroups5statsNtB5_8PidStatsNtNtCshypYLURccL2_4core3cmp9PartialEq2neB7_
FN:244,_RNvNtCslEpTaKix7hR_10libcgroups5stats21parse_flat_keyed_data
FN:66,_RNvXsf_NtCslEpTaKix7hR_10libcgroups5statsNtB5_11MemoryStatsNtNtCshypYLURccL2_4core3fmt5Debug3fmt
FN:29,_RNvXs1_NtCs6dyzbgxNKb8_10libcgroups5statsNtB5_8CpuStatsNtNtCshypYLURccL2_4core3fmt5Debug3fmt
FN:85,_RNvXsk_NtCs6dyzbgxNKb8_10libcgroups5statsNtB5_10MemoryDataNtNtCshypYLURccL2_4core3cmp9PartialEq2neB7_
FN:14,_RNvXs_NtCs6dyzbgxNKb8_10libcgroups5statsNtB4_5StatsNtNtCshypYLURccL2_4core3fmt5Debug3fmt
FN:166,_RNvNtCs6dyzbgxNKb8_10libcgroups5stats20supported_page_sizes
FN:244,_RNvNtCs6dyzbgxNKb8_10libcgroups5stats21parse_flat_keyed_data
FN:258,_RNCNvNtCs6dyzbgxNKb8_10libcgroups5stats21parse_flat_keyed_data0B5_
FN:29,_RNvXs2_NtCs6dyzbgxNKb8_10libcgroups5statsNtB5_8CpuStatsNtNtCshypYLURccL2_4core7default7Default7defaultB7_
FN:85,_RNvXsk_NtCs6dyzbgxNKb8_10libcgroups5statsNtB5_10MemoryDataNtNtCshypYLURccL2_4core3cmp9PartialEq2eqB7_
FN:66,_RNvXsf_NtCs6dyzbgxNKb8_10libcgroups5statsNtB5_11MemoryStatsNtNtCshypYLURccL2_4core3fmt5Debug3fmt
FN:14,_RINvXNvNtCs6dyzbgxNKb8_10libcgroups5stats1__NtB5_5StatsNtNtCsdJwOYunNrgH_5serde3ser9Serialize9serializepEB7_
FN:128,_RINvXNvNtCs6dyzbgxNKb8_10libcgroups5statss6_1__NtB5_15BlkioDeviceStatNtNtCsdJwOYunNrgH_5serde3ser9Serialize9serializepEB7_
FN:155,_RNvXsH_NtCs6dyzbgxNKb8_10libcgroups5statsNtB5_12HugeTlbStatsNtNtCshypYLURccL2_4core3fmt5Debug3fmt
FN:107,_RNvXsu_NtCs6dyzbgxNKb8_10libcgroups5statsNtB5_10BlkioStatsNtNtCshypYLURccL2_4core7default7Default7defaultB7_
FN:85,_RINvXNvNtCs6dyzbgxNKb8_10libcgroups5statss3_1__NtB5_10MemoryDataNtNtCsdJwOYunNrgH_5serde3ser9Serialize9serializepEB7_
FN:155,_RNvXsK_NtCs6dyzbgxNKb8_10libcgroups5statsNtB5_12HugeTlbStatsNtNtCshypYLURccL2_4core3cmp9PartialEq2neB7_
FN:38,_RNvXs6_NtCs6dyzbgxNKb8_10libcgroups5statsNtB5_8CpuUsageNtNtCshypYLURccL2_4core3cmp9PartialEq2neB7_
FN:85,_RNvXsi_NtCs6dyzbgxNKb8_10libcgroups5statsNtB5_10MemoryDataNtNtCshypYLURccL2_4core7default7Default7defaultB7_
FN:128,_RNvXsB_NtCs6dyzbgxNKb8_10libcgroups5statsNtB5_15BlkioDeviceStatNtNtCshypYLURccL2_4core3cmp9PartialEq2eqB7_
FN:215,_RNCNvNtCs6dyzbgxNKb8_10libcgroups5stats11parse_value0B5_
FN:98,_RNvXsq_NtCs6dyzbgxNKb8_10libcgroups5statsNtB5_8PidStatsNtNtCshypYLURccL2_4core3cmp9PartialEq2neB7_
FN:212,_RNvNtCs6dyzbgxNKb8_10libcgroups5stats11parse_value
FN:107,_RNvXst_NtCs6dyzbgxNKb8_10libcgroups5statsNtB5_10BlkioStatsNtNtCshypYLURccL2_4core3fmt5Debug3fmt
FN:286,_RNCNvNtCs6dyzbgxNKb8_10libcgroups5stats23parse_nested_keyed_datas_0B5_
FN:98,_RNvXsq_NtCs6dyzbgxNKb8_10libcgroups5statsNtB5_8PidStatsNtNtCshypYLURccL2_4core3cmp9PartialEq2eqB7_
FN:38,_RINvXNvNtCs6dyzbgxNKb8_10libcgroups5statss0_1__NtB5_8CpuUsageNtNtCsdJwOYunNrgH_5serde3ser9Serialize9serializepEB7_
FN:85,_RNvXsh_NtCs6dyzbgxNKb8_10libcgroups5statsNtB5_10MemoryDataNtNtCshypYLURccL2_4core3fmt5Debug3fmt
FN:128,_RNvXsE_NtCs6dyzbgxNKb8_10libcgroups5statsNtB5_15BlkioDeviceStatNtNtCshypYLURccL2_4core5clone5Clone5cloneB7_
FN:55,_RNvXs9_NtCs6dyzbgxNKb8_10libcgroups5statsNtB5_13CpuThrottlingNtNtCshypYLURccL2_4core3fmt5Debug3fmt
FN:66,_RNvXsg_NtCs6dyzbgxNKb8_10libcgroups5statsNtB5_11MemoryStatsNtNtCshypYLURccL2_4core7default7Default7defaultB7_
FN:128,_RNvXsz_NtCs6dyzbgxNKb8_10libcgroups5statsNtB5_15BlkioDeviceStatNtNtCshypYLURccL2_4core3fmt5Debug3fmt
FN:227,_RNvNtCs6dyzbgxNKb8_10libcgroups5stats18parse_single_value
FN:55,_RNvXsc_NtCs6dyzbgxNKb8_10libcgroups5statsNtB5_13CpuThrottlingNtNtCshypYLURccL2_4core3cmp9PartialEq2neB7_
FN:128,_RNvXsG_NtCs6dyzbgxNKb8_10libcgroups5statsNtB5_15BlkioDeviceStatNtNtCshypYLURccL2_4core3cmp3Ord3cmpB7_
FN:98,_RNvXso_NtCs6dyzbgxNKb8_10libcgroups5statsNtB5_8PidStatsNtNtCshypYLURccL2_4core7default7Default7defaultB7_
FN:322,_RNCNvNtCs6dyzbgxNKb8_10libcgroups5stats9pid_stats0B5_
FN:98,_RINvXNvNtCs6dyzbgxNKb8_10libcgroups5statss4_1__NtB5_8PidStatsNtNtCsdJwOYunNrgH_5serde3ser9Serialize9serializepEB7_
FN:55,_RNvXsc_NtCs6dyzbgxNKb8_10libcgroups5statsNtB5_13CpuThrottlingNtNtCshypYLURccL2_4core3cmp9PartialEq2eqB7_
FN:277,_RNCNvNtCs6dyzbgxNKb8_10libcgroups5stats23parse_nested_keyed_data0B5_
FN:155,_RNvXsK_NtCs6dyzbgxNKb8_10libcgroups5statsNtB5_12HugeTlbStatsNtNtCshypYLURccL2_4core3cmp9PartialEq2eqB7_
FN:38,_RNvXs6_NtCs6dyzbgxNKb8_10libcgroups5statsNtB5_8CpuUsageNtNtCshypYLURccL2_4core3cmp9PartialEq2eqB7_
FN:234,_RNCNvNtCs6dyzbgxNKb8_10libcgroups5stats18parse_single_value0B5_
FN:186,_RNCNvNtCs6dyzbgxNKb8_10libcgroups5stats17extract_page_size0B5_
FN:55,_RINvXNvNtCs6dyzbgxNKb8_10libcgroups5statss1_1__NtB5_13CpuThrottlingNtNtCsdJwOYunNrgH_5serde3ser9Serialize9serializepEB7_
FN:98,_RNvXsn_NtCs6dyzbgxNKb8_10libcgroups5statsNtB5_8PidStatsNtNtCshypYLURccL2_4core3fmt5Debug3fmt
FN:155,_RINvXNvNtCs6dyzbgxNKb8_10libcgroups5statss7_1__NtB5_12HugeTlbStatsNtNtCsdJwOYunNrgH_5serde3ser9Serialize9serializepEB7_
FN:107,_RNvXsw_NtCs6dyzbgxNKb8_10libcgroups5statsNtB5_10BlkioStatsNtNtCshypYLURccL2_4core3cmp9PartialEq2neB7_
FN:55,_RNvXsa_NtCs6dyzbgxNKb8_10libcgroups5statsNtB5_13CpuThrottlingNtNtCshypYLURccL2_4core7default7Default7defaultB7_
FN:14,_RNvXs0_NtCs6dyzbgxNKb8_10libcgroups5statsNtB5_5StatsNtNtCshypYLURccL2_4core7default7Default7defaultB7_
FN:155,_RNvXsI_NtCs6dyzbgxNKb8_10libcgroups5statsNtB5_12HugeTlbStatsNtNtCshypYLURccL2_4core7default7Default7defaultB7_
FN:38,_RNvXs4_NtCs6dyzbgxNKb8_10libcgroups5statsNtB5_8CpuUsageNtNtCshypYLURccL2_4core7default7Default7defaultB7_
FN:29,_RINvXNvNtCs6dyzbgxNKb8_10libcgroups5statss_1__NtB5_8CpuStatsNtNtCsdJwOYunNrgH_5serde3ser9Serialize9serializepEB7_
FN:302,_RNvNtCs6dyzbgxNKb8_10libcgroups5stats19parse_device_number
FN:142,_RNvXNtCs6dyzbgxNKb8_10libcgroups5statsNtB2_15BlkioDeviceStatNtNtCshypYLURccL2_4core3fmt7Display3fmt
FN:66,_RINvXNvNtCs6dyzbgxNKb8_10libcgroups5statss2_1__NtB5_11MemoryStatsNtNtCsdJwOYunNrgH_5serde3ser9Serialize9serializepEB7_
FN:38,_RNvXs3_NtCs6dyzbgxNKb8_10libcgroups5statsNtB5_8CpuUsageNtNtCshypYLURccL2_4core3fmt5Debug3fmt
FN:128,_RNvXsF_NtCs6dyzbgxNKb8_10libcgroups5statsNtB5_15BlkioDeviceStatNtNtCshypYLURccL2_4core3cmp10PartialOrd11partial_cmpB7_
FN:107,_RINvXNvNtCs6dyzbgxNKb8_10libcgroups5statss5_1__NtB5_10BlkioStatsNtNtCsdJwOYunNrgH_5serde3ser9Serialize9serializepEB7_
FN:128,_RNvXsB_NtCs6dyzbgxNKb8_10libcgroups5statsNtB5_15BlkioDeviceStatNtNtCshypYLURccL2_4core3cmp9PartialEq2neB7_
FN:272,_RNvNtCs6dyzbgxNKb8_10libcgroups5stats23parse_nested_keyed_data
FN:312,_RNvNtCs6dyzbgxNKb8_10libcgroups5stats9pid_stats
FN:107,_RNvXsw_NtCs6dyzbgxNKb8_10libcgroups5statsNtB5_10BlkioStatsNtNtCshypYLURccL2_4core3cmp9PartialEq2eqB7_
FN:184,_RNvNtCs6dyzbgxNKb8_10libcgroups5stats17extract_page_size
FN:155,_RINvXNvNtCs6dyzbgxNKb8_10libcgroups5statss7_1__NtB5_12HugeTlbStatsNtNtCsdJwOYunNrgH_5serde3ser9Serialize9serializeQINtNtCs5MpeWeKc5si_10serde_json3ser10SerializerQINtNtCsdfjrgz5TZDL_5alloc3vec3VechENtB1S_15PrettyFormatterEECs9aHzSL9YGbd_12libcontainer
FN:128,_RINvXNvNtCs6dyzbgxNKb8_10libcgroups5statss6_1__NtB5_15BlkioDeviceStatNtNtCsdJwOYunNrgH_5serde3ser9Serialize9serializeQINtNtCs5MpeWeKc5si_10serde_json3ser10SerializerQINtNtCsdfjrgz5TZDL_5alloc3vec3VechENtB1V_15PrettyFormatterEECs9aHzSL9YGbd_12libcontainer
FN:29,_RINvXNvNtCs6dyzbgxNKb8_10libcgroups5statss_1__NtB5_8CpuStatsNtNtCsdJwOYunNrgH_5serde3ser9Serialize9serializeQINtNtCs5MpeWeKc5si_10serde_json3ser10SerializerQINtNtCsdfjrgz5TZDL_5alloc3vec3VechENtB1M_15PrettyFormatterEECs9aHzSL9YGbd_12libcontainer
FN:107,_RINvXNvNtCs6dyzbgxNKb8_10libcgroups5statss5_1__NtB5_10BlkioStatsNtNtCsdJwOYunNrgH_5serde3ser9Serialize9serializeQINtNtCs5MpeWeKc5si_10serde_json3ser10SerializerQINtNtCsdfjrgz5TZDL_5alloc3vec3VechENtB1Q_15PrettyFormatterEECs9aHzSL9YGbd_12libcontainer
FN:38,_RINvXNvNtCs6dyzbgxNKb8_10libcgroups5statss0_1__NtB5_8CpuUsageNtNtCsdJwOYunNrgH_5serde3ser9Serialize9serializeQINtNtCs5MpeWeKc5si_10serde_json3ser10SerializerQINtNtCsdfjrgz5TZDL_5alloc3vec3VechENtB1N_15PrettyFormatterEECs9aHzSL9YGbd_12libcontainer
FN:14,_RINvXNvNtCs6dyzbgxNKb8_10libcgroups5stats1__NtB5_5StatsNtNtCsdJwOYunNrgH_5serde3ser9Serialize9serializeQINtNtCs5MpeWeKc5si_10serde_json3ser10SerializerQINtNtCsdfjrgz5TZDL_5alloc3vec3VechENtB1H_15PrettyFormatterEECs9aHzSL9YGbd_12libcontainer
FN:85,_RINvXNvNtCs6dyzbgxNKb8_10libcgroups5statss3_1__NtB5_10MemoryDataNtNtCsdJwOYunNrgH_5serde3ser9Serialize9serializeQINtNtCs5MpeWeKc5si_10serde_json3ser10SerializerQINtNtCsdfjrgz5TZDL_5alloc3vec3VechENtB1Q_15PrettyFormatterEECs9aHzSL9YGbd_12libcontainer
FN:66,_RINvXNvNtCs6dyzbgxNKb8_10libcgroups5statss2_1__NtB5_11MemoryStatsNtNtCsdJwOYunNrgH_5serde3ser9Serialize9serializeQINtNtCs5MpeWeKc5si_10serde_json3ser10SerializerQINtNtCsdfjrgz5TZDL_5alloc3vec3VechENtB1R_15PrettyFormatterEECs9aHzSL9YGbd_12libcontainer
FN:55,_RINvXNvNtCs6dyzbgxNKb8_10libcgroups5statss1_1__NtB5_13CpuThrottlingNtNtCsdJwOYunNrgH_5serde3ser9Serialize9serializeQINtNtCs5MpeWeKc5si_10serde_json3ser10SerializerQINtNtCsdfjrgz5TZDL_5alloc3vec3VechENtB1T_15PrettyFormatterEECs9aHzSL9YGbd_12libcontainer
FN:98,_RINvXNvNtCs6dyzbgxNKb8_10libcgroups5statss4_1__NtB5_8PidStatsNtNtCsdJwOYunNrgH_5serde3ser9Serialize9serializeQINtNtCs5MpeWeKc5si_10serde_json3ser10SerializerQINtNtCsdfjrgz5TZDL_5alloc3vec3VechENtB1N_15PrettyFormatterEECs9aHzSL9YGbd_12libcontainer
FNDA:1,_RNCNvNtNtCslEpTaKix7hR_10libcgroups5stats5tests47test_parse_newline_separated_as_flat_keyed_data0B7_
FNDA:1,_RNCNvNtNtCslEpTaKix7hR_10libcgroups5stats5tests24test_parse_device_number0B7_
FNDA:1,_RNCNvNtNtCslEpTaKix7hR_10libcgroups5stats5tests34test_supported_page_sizes_kilobyte0B7_
FNDA:1,_RNvNtNtCslEpTaKix7hR_10libcgroups5stats5testss_34test_supported_page_sizes_kilobyte
FNDA:1,_RNvNtNtCslEpTaKix7hR_10libcgroups5stats5testss_40test_parse_single_value_multiple_entries
FNDA:1,_RNvNtNtCslEpTaKix7hR_10libcgroups5stats5testss_26test_parse_flat_keyed_data
FNDA:1,_RNvNtNtCslEpTaKix7hR_10libcgroups5stats5testss_34test_supported_page_sizes_megabyte
FNDA:1,_RNCNvNtNtCslEpTaKix7hR_10libcgroups5stats5tests29test_parse_single_value_valid0B7_
FNDA:1,_RNCNvNtNtCslEpTaKix7hR_10libcgroups5stats5tests45test_parse_space_separated_as_flat_keyed_data0B7_
FNDA:1,_RNvNtNtCslEpTaKix7hR_10libcgroups5stats5testss_47test_parse_newline_separated_as_flat_keyed_data
FNDA:1,_RNvNtNtCslEpTaKix7hR_10libcgroups5stats5testss_47test_parse_space_separated_as_nested_keyed_data
FNDA:1,_RNCNvNtNtCslEpTaKix7hR_10libcgroups5stats5tests42test_parse_flat_keyed_as_nested_keyed_data0B7_
FNDA:1,_RNvNtNtCslEpTaKix7hR_10libcgroups5stats5testss_32test_parse_invalid_device_number
FNDA:1,_RNvNtNtCslEpTaKix7hR_10libcgroups5stats5testss_47test_parse_nested_keyed_data_as_flat_keyed_data
FNDA:1,_RNCNvNtNtCslEpTaKix7hR_10libcgroups5stats5tests49test_parse_newline_separated_as_nested_keyed_data0B7_
FNDA:1,_RNCNvNtNtCslEpTaKix7hR_10libcgroups5stats5tests38test_parse_single_value_invalid_number0B7_
FNDA:1,_RNCNvNtNtCslEpTaKix7hR_10libcgroups5stats5tests34test_supported_page_sizes_megabyte0B7_
FNDA:1,_RNCNvNtNtCslEpTaKix7hR_10libcgroups5stats5tests47test_parse_nested_keyed_data_as_flat_keyed_data0B7_
FNDA:1,_RNCNvNtNtCslEpTaKix7hR_10libcgroups5stats5tests42test_parse_flat_keyed_data_with_characters0B7_
FNDA:1,_RNvNtNtCslEpTaKix7hR_10libcgroups5stats5testss_42test_parse_flat_keyed_as_nested_keyed_data
FNDA:1,_RNvNtNtCslEpTaKix7hR_10libcgroups5stats5testss_24test_parse_device_number
FNDA:1,_RNvNtNtCslEpTaKix7hR_10libcgroups5stats5testss_34test_supported_page_sizes_gigabyte
FNDA:1,_RNCNvNtNtCslEpTaKix7hR_10libcgroups5stats5tests34test_supported_page_sizes_gigabyte0B7_
FNDA:1,_RNCNvNtNtCslEpTaKix7hR_10libcgroups5stats5tests40test_parse_single_value_multiple_entries0B7_
FNDA:1,_RNvNtNtCslEpTaKix7hR_10libcgroups5stats5testss_45test_parse_space_separated_as_flat_keyed_data
FNDA:1,_RNvNtNtCslEpTaKix7hR_10libcgroups5stats5testss_29test_parse_single_value_valid
FNDA:1,_RNvNtNtCslEpTaKix7hR_10libcgroups5stats5testss_28test_parse_nested_keyed_data
FNDA:1,_RNvNtNtCslEpTaKix7hR_10libcgroups5stats5testss_38test_parse_single_value_invalid_number
FNDA:1,_RNCNvNtNtCslEpTaKix7hR_10libcgroups5stats5tests32test_parse_invalid_device_number0B7_
FNDA:1,_RNCNvNtNtCslEpTaKix7hR_10libcgroups5stats5tests28test_parse_nested_keyed_data0B7_
FNDA:1,_RNCNvNtNtCslEpTaKix7hR_10libcgroups5stats5tests26test_parse_flat_keyed_data0B7_
FNDA:1,_RNvNtNtCslEpTaKix7hR_10libcgroups5stats5testss_42test_parse_flat_keyed_data_with_characters
FNDA:1,_RNvNtNtCslEpTaKix7hR_10libcgroups5stats5testss_49test_parse_newline_separated_as_nested_keyed_data
FNDA:1,_RNCNvNtNtCslEpTaKix7hR_10libcgroups5stats5tests47test_parse_space_separated_as_nested_keyed_data0B7_
FNDA:0,_RNvXsq_NtCslEpTaKix7hR_10libcgroups5statsNtB5_8PidStatsNtNtCshypYLURccL2_4core3cmp9PartialEq2eqB7_
FNDA:6,_RNvXsE_NtCslEpTaKix7hR_10libcgroups5statsNtB5_15BlkioDeviceStatNtNtCshypYLURccL2_4core5clone5Clone5cloneB7_
FNDA:0,_RNvXsn_NtCslEpTaKix7hR_10libcgroups5statsNtB5_8PidStatsNtNtCshypYLURccL2_4core3fmt5Debug3fmt
FNDA:0,_RNvXsh_NtCslEpTaKix7hR_10libcgroups5statsNtB5_10MemoryDataNtNtCshypYLURccL2_4core3fmt5Debug3fmt
FNDA:0,_RINvXNvNtCslEpTaKix7hR_10libcgroups5statss7_1__NtB5_12HugeTlbStatsNtNtCsdJwOYunNrgH_5serde3ser9Serialize9serializepEB7_
FNDA:0,_RNvXs3_NtCslEpTaKix7hR_10libcgroups5statsNtB5_8CpuUsageNtNtCshypYLURccL2_4core3fmt5Debug3fmt
FNDA:23,_RNCNvNtCslEpTaKix7hR_10libcgroups5stats23parse_nested_keyed_data0B5_
FNDA:6,_RNvXsF_NtCslEpTaKix7hR_10libcgroups5statsNtB5_15BlkioDeviceStatNtNtCshypYLURccL2_4core3cmp10PartialOrd11partial_cmpB7_
FNDA:0,_RINvXNvNtCslEpTaKix7hR_10libcgroups5statss5_1__NtB5_10BlkioStatsNtNtCsdJwOYunNrgH_5serde3ser9Serialize9serializepEB7_
FNDA:3,_RNvNtCslEpTaKix7hR_10libcgroups5stats17extract_page_size
FNDA:0,_RINvXNvNtCslEpTaKix7hR_10libcgroups5statss6_1__NtB5_15BlkioDeviceStatNtNtCsdJwOYunNrgH_5serde3ser9Serialize9serializepEB7_
FNDA:0,_RNvXsB_NtCslEpTaKix7hR_10libcgroups5statsNtB5_15BlkioDeviceStatNtNtCshypYLURccL2_4core3cmp9PartialEq2neB7_
FNDA:0,_RNvXsg_NtCslEpTaKix7hR_10libcgroups5statsNtB5_11MemoryStatsNtNtCshypYLURccL2_4core7default7Default7defaultB7_
FNDA:0,_RNvXs1_NtCslEpTaKix7hR_10libcgroups5statsNtB5_8CpuStatsNtNtCshypYLURccL2_4core3fmt5Debug3fmt
FNDA:0,_RNvNtCslEpTaKix7hR_10libcgroups5stats20supported_page_sizes
FNDA:0,_RNvXsc_NtCslEpTaKix7hR_10libcgroups5statsNtB5_13CpuThrottlingNtNtCshypYLURccL2_4core3cmp9PartialEq2neB7_
FNDA:0,_RNvXsG_NtCslEpTaKix7hR_10libcgroups5statsNtB5_15BlkioDeviceStatNtNtCshypYLURccL2_4core3cmp3Ord3cmpB7_
FNDA:0,_RNvXsK_NtCslEpTaKix7hR_10libcgroups5statsNtB5_12HugeTlbStatsNtNtCshypYLURccL2_4core3cmp9PartialEq2neB7_
FNDA:0,_RNvXNtCslEpTaKix7hR_10libcgroups5statsNtB2_15BlkioDeviceStatNtNtCshypYLURccL2_4core3fmt7Display3fmt
FNDA:0,_RNvXsk_NtCslEpTaKix7hR_10libcgroups5statsNtB5_10MemoryDataNtNtCshypYLURccL2_4core3cmp9PartialEq2neB7_
FNDA:2,_RNvXso_NtCslEpTaKix7hR_10libcgroups5statsNtB5_8PidStatsNtNtCshypYLURccL2_4core7default7Default7defaultB7_
FNDA:2,_RNCNvNtCslEpTaKix7hR_10libcgroups5stats9pid_stats0B5_
FNDA:0,_RNvXs0_NtCslEpTaKix7hR_10libcgroups5statsNtB5_5StatsNtNtCshypYLURccL2_4core7default7Default7defaultB7_
FNDA:2,_RNvXsK_NtCslEpTaKix7hR_10libcgroups5statsNtB5_12HugeTlbStatsNtNtCshypYLURccL2_4core3cmp9PartialEq2eqB7_
FNDA:0,_RNvXs_NtCslEpTaKix7hR_10libcgroups5statsNtB4_5StatsNtNtCshypYLURccL2_4core3fmt5Debug3fmt
FNDA:21,_RNCNvNtCslEpTaKix7hR_10libcgroups5stats23parse_nested_keyed_datas_0B5_
FNDA:0,_RNvXsH_NtCslEpTaKix7hR_10libcgroups5statsNtB5_12HugeTlbStatsNtNtCshypYLURccL2_4core3fmt5Debug3fmt
FNDA:0,_RNvXs2_NtCslEpTaKix7hR_10libcgroups5statsNtB5_8CpuStatsNtNtCshypYLURccL2_4core7default7Default7defaultB7_
FNDA:2,_RNvXsk_NtCslEpTaKix7hR_10libcgroups5statsNtB5_10MemoryDataNtNtCshypYLURccL2_4core3cmp9PartialEq2eqB7_
FNDA:0,_RINvXNvNtCslEpTaKix7hR_10libcgroups5stats1__NtB5_5StatsNtNtCsdJwOYunNrgH_5serde3ser9Serialize9serializepEB7_
FNDA:0,_RNvXs9_NtCslEpTaKix7hR_10libcgroups5statsNtB5_13CpuThrottlingNtNtCshypYLURccL2_4core3fmt5Debug3fmt
FNDA:1,_RNvXs6_NtCslEpTaKix7hR_10libcgroups5statsNtB5_8CpuUsageNtNtCshypYLURccL2_4core3cmp9PartialEq2eqB7_
FNDA:0,_RINvXNvNtCslEpTaKix7hR_10libcgroups5statss3_1__NtB5_10MemoryDataNtNtCsdJwOYunNrgH_5serde3ser9Serialize9serializepEB7_
FNDA:0,_RINvXNvNtCslEpTaKix7hR_10libcgroups5statss1_1__NtB5_13CpuThrottlingNtNtCsdJwOYunNrgH_5serde3ser9Serialize9serializepEB7_
FNDA:0,_RNCNvNtCslEpTaKix7hR_10libcgroups5stats11parse_value0B5_
FNDA:2,_RNvNtCslEpTaKix7hR_10libcgroups5stats9pid_stats
FNDA:0,_RNvXsz_NtCslEpTaKix7hR_10libcgroups5statsNtB5_15BlkioDeviceStatNtNtCshypYLURccL2_4core3fmt5Debug3fmt
FNDA:4,_RNvXsu_NtCslEpTaKix7hR_10libcgroups5statsNtB5_10BlkioStatsNtNtCshypYLURccL2_4core7default7Default7defaultB7_
FNDA:3,_RNCNvNtCslEpTaKix7hR_10libcgroups5stats17extract_page_size0B5_
FNDA:16,_RNvNtCslEpTaKix7hR_10libcgroups5stats19parse_device_number
FNDA:10,_RNvNtCslEpTaKix7hR_10libcgroups5stats18parse_single_value
FNDA:5,_RNvNtCslEpTaKix7hR_10libcgroups5stats23parse_nested_keyed_data
FNDA:0,_RNvXsw_NtCslEpTaKix7hR_10libcgroups5statsNtB5_10BlkioStatsNtNtCshypYLURccL2_4core3cmp9PartialEq2neB7_
FNDA:20,_RNvXsB_NtCslEpTaKix7hR_10libcgroups5statsNtB5_15BlkioDeviceStatNtNtCshypYLURccL2_4core3cmp9PartialEq2eqB7_
FNDA:1,_RNvXsa_NtCslEpTaKix7hR_10libcgroups5statsNtB5_13CpuThrottlingNtNtCshypYLURccL2_4core7default7Default7defaultB7_
FNDA:1,_RNCNvNtCslEpTaKix7hR_10libcgroups5stats21parse_flat_keyed_data0B5_
FNDA:2,_RNvXsw_NtCslEpTaKix7hR_10libcgroups5statsNtB5_10BlkioStatsNtNtCshypYLURccL2_4core3cmp9PartialEq2eqB7_
FNDA:2,_RNCNvNtCslEpTaKix7hR_10libcgroups5stats18parse_single_value0B5_
FNDA:0,_RINvXNvNtCslEpTaKix7hR_10libcgroups5statss2_1__NtB5_11MemoryStatsNtNtCsdJwOYunNrgH_5serde3ser9Serialize9serializepEB7_
FNDA:2,_RNvXsI_NtCslEpTaKix7hR_10libcgroups5statsNtB5_12HugeTlbStatsNtNtCshypYLURccL2_4core7default7Default7defaultB7_
FNDA:2,_RNvXsi_NtCslEpTaKix7hR_10libcgroups5statsNtB5_10MemoryDataNtNtCshypYLURccL2_4core7default7Default7defaultB7_
FNDA:0,_RINvXNvNtCslEpTaKix7hR_10libcgroups5statss0_1__NtB5_8CpuUsageNtNtCsdJwOYunNrgH_5serde3ser9Serialize9serializepEB7_
FNDA:4,_RNvXs4_NtCslEpTaKix7hR_10libcgroups5statsNtB5_8CpuUsageNtNtCshypYLURccL2_4core7default7Default7defaultB7_
FNDA:0,_RINvXNvNtCslEpTaKix7hR_10libcgroups5statss4_1__NtB5_8PidStatsNtNtCsdJwOYunNrgH_5serde3ser9Serialize9serializepEB7_
FNDA:1,_RNvXsc_NtCslEpTaKix7hR_10libcgroups5statsNtB5_13CpuThrottlingNtNtCshypYLURccL2_4core3cmp9PartialEq2eqB7_
FNDA:0,_RNvXs6_NtCslEpTaKix7hR_10libcgroups5statsNtB5_8CpuUsageNtNtCshypYLURccL2_4core3cmp9PartialEq2neB7_
FNDA:0,_RINvXNvNtCslEpTaKix7hR_10libcgroups5statss_1__NtB5_8CpuStatsNtNtCsdJwOYunNrgH_5serde3ser9Serialize9serializepEB7_
FNDA:0,_RNvXst_NtCslEpTaKix7hR_10libcgroups5statsNtB5_10BlkioStatsNtNtCshypYLURccL2_4core3fmt5Debug3fmt
FNDA:11,_RNvNtCslEpTaKix7hR_10libcgroups5stats11parse_value
FNDA:0,_RNvXsq_NtCslEpTaKix7hR_10libcgroups5statsNtB5_8PidStatsNtNtCshypYLURccL2_4core3cmp9PartialEq2neB7_
FNDA:7,_RNvNtCslEpTaKix7hR_10libcgroups5stats21parse_flat_keyed_data
FNDA:0,_RNvXsf_NtCslEpTaKix7hR_10libcgroups5statsNtB5_11MemoryStatsNtNtCshypYLURccL2_4core3fmt5Debug3fmt
FNDA:0,_RNvXs1_NtCs6dyzbgxNKb8_10libcgroups5statsNtB5_8CpuStatsNtNtCshypYLURccL2_4core3fmt5Debug3fmt
FNDA:0,_RNvXsk_NtCs6dyzbgxNKb8_10libcgroups5statsNtB5_10MemoryDataNtNtCshypYLURccL2_4core3cmp9PartialEq2neB7_
FNDA:0,_RNvXs_NtCs6dyzbgxNKb8_10libcgroups5statsNtB4_5StatsNtNtCshypYLURccL2_4core3fmt5Debug3fmt
FNDA:0,_RNvNtCs6dyzbgxNKb8_10libcgroups5stats20supported_page_sizes
FNDA:0,_RNvNtCs6dyzbgxNKb8_10libcgroups5stats21parse_flat_keyed_data
FNDA:0,_RNCNvNtCs6dyzbgxNKb8_10libcgroups5stats21parse_flat_keyed_data0B5_
FNDA:0,_RNvXs2_NtCs6dyzbgxNKb8_10libcgroups5statsNtB5_8CpuStatsNtNtCshypYLURccL2_4core7default7Default7defaultB7_
FNDA:0,_RNvXsk_NtCs6dyzbgxNKb8_10libcgroups5statsNtB5_10MemoryDataNtNtCshypYLURccL2_4core3cmp9PartialEq2eqB7_
FNDA:0,_RNvXsf_NtCs6dyzbgxNKb8_10libcgroups5statsNtB5_11MemoryStatsNtNtCshypYLURccL2_4core3fmt5Debug3fmt
FNDA:0,_RINvXNvNtCs6dyzbgxNKb8_10libcgroups5stats1__NtB5_5StatsNtNtCsdJwOYunNrgH_5serde3ser9Serialize9serializepEB7_
FNDA:0,_RINvXNvNtCs6dyzbgxNKb8_10libcgroups5statss6_1__NtB5_15BlkioDeviceStatNtNtCsdJwOYunNrgH_5serde3ser9Serialize9serializepEB7_
FNDA:0,_RNvXsH_NtCs6dyzbgxNKb8_10libcgroups5statsNtB5_12HugeTlbStatsNtNtCshypYLURccL2_4core3fmt5Debug3fmt
FNDA:0,_RNvXsu_NtCs6dyzbgxNKb8_10libcgroups5statsNtB5_10BlkioStatsNtNtCshypYLURccL2_4core7default7Default7defaultB7_
FNDA:0,_RINvXNvNtCs6dyzbgxNKb8_10libcgroups5statss3_1__NtB5_10MemoryDataNtNtCsdJwOYunNrgH_5serde3ser9Serialize9serializepEB7_
FNDA:0,_RNvXsK_NtCs6dyzbgxNKb8_10libcgroups5statsNtB5_12HugeTlbStatsNtNtCshypYLURccL2_4core3cmp9PartialEq2neB7_
FNDA:0,_RNvXs6_NtCs6dyzbgxNKb8_10libcgroups5statsNtB5_8CpuUsageNtNtCshypYLURccL2_4core3cmp9PartialEq2neB7_
FNDA:0,_RNvXsi_NtCs6dyzbgxNKb8_10libcgroups5statsNtB5_10MemoryDataNtNtCshypYLURccL2_4core7default7Default7defaultB7_
FNDA:0,_RNvXsB_NtCs6dyzbgxNKb8_10libcgroups5statsNtB5_15BlkioDeviceStatNtNtCshypYLURccL2_4core3cmp9PartialEq2eqB7_
FNDA:0,_RNCNvNtCs6dyzbgxNKb8_10libcgroups5stats11parse_value0B5_
FNDA:0,_RNvXsq_NtCs6dyzbgxNKb8_10libcgroups5statsNtB5_8PidStatsNtNtCshypYLURccL2_4core3cmp9PartialEq2neB7_
FNDA:0,_RNvNtCs6dyzbgxNKb8_10libcgroups5stats11parse_value
FNDA:0,_RNvXst_NtCs6dyzbgxNKb8_10libcgroups5statsNtB5_10BlkioStatsNtNtCshypYLURccL2_4core3fmt5Debug3fmt
FNDA:0,_RNCNvNtCs6dyzbgxNKb8_10libcgroups5stats23parse_nested_keyed_datas_0B5_
FNDA:0,_RNvXsq_NtCs6dyzbgxNKb8_10libcgroups5statsNtB5_8PidStatsNtNtCshypYLURccL2_4core3cmp9PartialEq2eqB7_
FNDA:0,_RINvXNvNtCs6dyzbgxNKb8_10libcgroups5statss0_1__NtB5_8CpuUsageNtNtCsdJwOYunNrgH_5serde3ser9Serialize9serializepEB7_
FNDA:0,_RNvXsh_NtCs6dyzbgxNKb8_10libcgroups5statsNtB5_10MemoryDataNtNtCshypYLURccL2_4core3fmt5Debug3fmt
FNDA:0,_RNvXsE_NtCs6dyzbgxNKb8_10libcgroups5statsNtB5_15BlkioDeviceStatNtNtCshypYLURccL2_4core5clone5Clone5cloneB7_
FNDA:0,_RNvXs9_NtCs6dyzbgxNKb8_10libcgroups5statsNtB5_13CpuThrottlingNtNtCshypYLURccL2_4core3fmt5Debug3fmt
FNDA:0,_RNvXsg_NtCs6dyzbgxNKb8_10libcgroups5statsNtB5_11MemoryStatsNtNtCshypYLURccL2_4core7default7Default7defaultB7_
FNDA:0,_RNvXsz_NtCs6dyzbgxNKb8_10libcgroups5statsNtB5_15BlkioDeviceStatNtNtCshypYLURccL2_4core3fmt5Debug3fmt
FNDA:0,_RNvNtCs6dyzbgxNKb8_10libcgroups5stats18parse_single_value
FNDA:0,_RNvXsc_NtCs6dyzbgxNKb8_10libcgroups5statsNtB5_13CpuThrottlingNtNtCshypYLURccL2_4core3cmp9PartialEq2neB7_
FNDA:0,_RNvXsG_NtCs6dyzbgxNKb8_10libcgroups5statsNtB5_15BlkioDeviceStatNtNtCshypYLURccL2_4core3cmp3Ord3cmpB7_
FNDA:0,_RNvXso_NtCs6dyzbgxNKb8_10libcgroups5statsNtB5_8PidStatsNtNtCshypYLURccL2_4core7default7Default7defaultB7_
FNDA:0,_RNCNvNtCs6dyzbgxNKb8_10libcgroups5stats9pid_stats0B5_
FNDA:0,_RINvXNvNtCs6dyzbgxNKb8_10libcgroups5statss4_1__NtB5_8PidStatsNtNtCsdJwOYunNrgH_5serde3ser9Serialize9serializepEB7_
FNDA:0,_RNvXsc_NtCs6dyzbgxNKb8_10libcgroups5statsNtB5_13CpuThrottlingNtNtCshypYLURccL2_4core3cmp9PartialEq2eqB7_
FNDA:0,_RNCNvNtCs6dyzbgxNKb8_10libcgroups5stats23parse_nested_keyed_data0B5_
FNDA:0,_RNvXsK_NtCs6dyzbgxNKb8_10libcgroups5statsNtB5_12HugeTlbStatsNtNtCshypYLURccL2_4core3cmp9PartialEq2eqB7_
FNDA:0,_RNvXs6_NtCs6dyzbgxNKb8_10libcgroups5statsNtB5_8CpuUsageNtNtCshypYLURccL2_4core3cmp9PartialEq2eqB7_
FNDA:0,_RNCNvNtCs6dyzbgxNKb8_10libcgroups5stats18parse_single_value0B5_
FNDA:0,_RNCNvNtCs6dyzbgxNKb8_10libcgroups5stats17extract_page_size0B5_
FNDA:0,_RINvXNvNtCs6dyzbgxNKb8_10libcgroups5statss1_1__NtB5_13CpuThrottlingNtNtCsdJwOYunNrgH_5serde3ser9Serialize9serializepEB7_
FNDA:0,_RNvXsn_NtCs6dyzbgxNKb8_10libcgroups5statsNtB5_8PidStatsNtNtCshypYLURccL2_4core3fmt5Debug3fmt
FNDA:0,_RINvXNvNtCs6dyzbgxNKb8_10libcgroups5statss7_1__NtB5_12HugeTlbStatsNtNtCsdJwOYunNrgH_5serde3ser9Serialize9serializepEB7_
FNDA:0,_RNvXsw_NtCs6dyzbgxNKb8_10libcgroups5statsNtB5_10BlkioStatsNtNtCshypYLURccL2_4core3cmp9PartialEq2neB7_
FNDA:0,_RNvXsa_NtCs6dyzbgxNKb8_10libcgroups5statsNtB5_13CpuThrottlingNtNtCshypYLURccL2_4core7default7Default7defaultB7_
FNDA:0,_RNvXs0_NtCs6dyzbgxNKb8_10libcgroups5statsNtB5_5StatsNtNtCshypYLURccL2_4core7default7Default7defaultB7_
FNDA:0,_RNvXsI_NtCs6dyzbgxNKb8_10libcgroups5statsNtB5_12HugeTlbStatsNtNtCshypYLURccL2_4core7default7Default7defaultB7_
FNDA:0,_RNvXs4_NtCs6dyzbgxNKb8_10libcgroups5statsNtB5_8CpuUsageNtNtCshypYLURccL2_4core7default7Default7defaultB7_
FNDA:0,_RINvXNvNtCs6dyzbgxNKb8_10libcgroups5statss_1__NtB5_8CpuStatsNtNtCsdJwOYunNrgH_5serde3ser9Serialize9serializepEB7_
FNDA:0,_RNvNtCs6dyzbgxNKb8_10libcgroups5stats19parse_device_number
FNDA:0,_RNvXNtCs6dyzbgxNKb8_10libcgroups5statsNtB2_15BlkioDeviceStatNtNtCshypYLURccL2_4core3fmt7Display3fmt
FNDA:0,_RINvXNvNtCs6dyzbgxNKb8_10libcgroups5statss2_1__NtB5_11MemoryStatsNtNtCsdJwOYunNrgH_5serde3ser9Serialize9serializepEB7_
FNDA:0,_RNvXs3_NtCs6dyzbgxNKb8_10libcgroups5statsNtB5_8CpuUsageNtNtCshypYLURccL2_4core3fmt5Debug3fmt
FNDA:0,_RNvXsF_NtCs6dyzbgxNKb8_10libcgroups5statsNtB5_15BlkioDeviceStatNtNtCshypYLURccL2_4core3cmp10PartialOrd11partial_cmpB7_
FNDA:0,_RINvXNvNtCs6dyzbgxNKb8_10libcgroups5statss5_1__NtB5_10BlkioStatsNtNtCsdJwOYunNrgH_5serde3ser9Serialize9serializepEB7_
FNDA:0,_RNvXsB_NtCs6dyzbgxNKb8_10libcgroups5statsNtB5_15BlkioDeviceStatNtNtCshypYLURccL2_4core3cmp9PartialEq2neB7_
FNDA:0,_RNvNtCs6dyzbgxNKb8_10libcgroups5stats23parse_nested_keyed_data
FNDA:0,_RNvNtCs6dyzbgxNKb8_10libcgroups5stats9pid_stats
FNDA:0,_RNvXsw_NtCs6dyzbgxNKb8_10libcgroups5statsNtB5_10BlkioStatsNtNtCshypYLURccL2_4core3cmp9PartialEq2eqB7_
FNDA:0,_RNvNtCs6dyzbgxNKb8_10libcgroups5stats17extract_page_size
FNDA:0,_RINvXNvNtCs6dyzbgxNKb8_10libcgroups5statss7_1__NtB5_12HugeTlbStatsNtNtCsdJwOYunNrgH_5serde3ser9Serialize9serializeQINtNtCs5MpeWeKc5si_10serde_json3ser10SerializerQINtNtCsdfjrgz5TZDL_5alloc3vec3VechENtB1S_15PrettyFormatterEECs9aHzSL9YGbd_12libcontainer
FNDA:0,_RINvXNvNtCs6dyzbgxNKb8_10libcgroups5statss6_1__NtB5_15BlkioDeviceStatNtNtCsdJwOYunNrgH_5serde3ser9Serialize9serializeQINtNtCs5MpeWeKc5si_10serde_json3ser10SerializerQINtNtCsdfjrgz5TZDL_5alloc3vec3VechENtB1V_15PrettyFormatterEECs9aHzSL9YGbd_12libcontainer
FNDA:0,_RINvXNvNtCs6dyzbgxNKb8_10libcgroups5statss_1__NtB5_8CpuStatsNtNtCsdJwOYunNrgH_5serde3ser9Serialize9serializeQINtNtCs5MpeWeKc5si_10serde_json3ser10SerializerQINtNtCsdfjrgz5TZDL_5alloc3vec3VechENtB1M_15PrettyFormatterEECs9aHzSL9YGbd_12libcontainer
FNDA:0,_RINvXNvNtCs6dyzbgxNKb8_10libcgroups5statss5_1__NtB5_10BlkioStatsNtNtCsdJwOYunNrgH_5serde3ser9Serialize9serializeQINtNtCs5MpeWeKc5si_10serde_json3ser10SerializerQINtNtCsdfjrgz5TZDL_5alloc3vec3VechENtB1Q_15PrettyFormatterEECs9aHzSL9YGbd_12libcontainer
FNDA:0,_RINvXNvNtCs6dyzbgxNKb8_10libcgroups5statss0_1__NtB5_8CpuUsageNtNtCsdJwOYunNrgH_5serde3ser9Serialize9serializeQINtNtCs5MpeWeKc5si_10serde_json3ser10SerializerQINtNtCsdfjrgz5TZDL_5alloc3vec3VechENtB1N_15PrettyFormatterEECs9aHzSL9YGbd_12libcontainer
FNDA:0,_RINvXNvNtCs6dyzbgxNKb8_10libcgroups5stats1__NtB5_5StatsNtNtCsdJwOYunNrgH_5serde3ser9Serialize9serializeQINtNtCs5MpeWeKc5si_10serde_json3ser10SerializerQINtNtCsdfjrgz5TZDL_5alloc3vec3VechENtB1H_15PrettyFormatterEECs9aHzSL9YGbd_12libcontainer
FNDA:0,_RINvXNvNtCs6dyzbgxNKb8_10libcgroups5statss3_1__NtB5_10MemoryDataNtNtCsdJwOYunNrgH_5serde3ser9Serialize9serializeQINtNtCs5MpeWeKc5si_10serde_json3ser10SerializerQINtNtCsdfjrgz5TZDL_5alloc3vec3VechENtB1Q_15PrettyFormatterEECs9aHzSL9YGbd_12libcontainer
FNDA:0,_RINvXNvNtCs6dyzbgxNKb8_10libcgroups5statss2_1__NtB5_11MemoryStatsNtNtCsdJwOYunNrgH_5serde3ser9Serialize9serializeQINtNtCs5MpeWeKc5si_10serde_json3ser10SerializerQINtNtCsdfjrgz5TZDL_5alloc3vec3VechENtB1R_15PrettyFormatterEECs9aHzSL9YGbd_12libcontainer
FNDA:0,_RINvXNvNtCs6dyzbgxNKb8_10libcgroups5statss1_1__NtB5_13CpuThrottlingNtNtCsdJwOYunNrgH_5serde3ser9Serialize9serializeQINtNtCs5MpeWeKc5si_10serde_json3ser10SerializerQINtNtCsdfjrgz5TZDL_5alloc3vec3VechENtB1T_15PrettyFormatterEECs9aHzSL9YGbd_12libcontainer
FNDA:0,_RINvXNvNtCs6dyzbgxNKb8_10libcgroups5statss4_1__NtB5_8PidStatsNtNtCsdJwOYunNrgH_5serde3ser9Serialize9serializeQINtNtCs5MpeWeKc5si_10serde_json3ser10SerializerQINtNtCsdfjrgz5TZDL_5alloc3vec3VechENtB1N_15PrettyFormatterEECs9aHzSL9YGbd_12libcontainer
FNF:89
FNH:61
DA:14,0
DA:29,0
DA:38,4
DA:55,1
DA:66,0
DA:85,2
DA:98,2
DA:107,4
DA:128,20
DA:142,0
DA:143,0
DA:144,0
DA:145,0
DA:146,0
DA:147,0
DA:149,0
DA:151,0
DA:155,2
DA:166,0
DA:167,0
DA:168,0
DA:169,0
DA:170,0
DA:171,0
DA:172,0
DA:173,0
DA:174,0
DA:175,0
DA:176,0
DA:177,0
DA:180,0
DA:181,0
DA:184,3
DA:185,3
DA:186,3
DA:188,3
DA:190,3
DA:191,1
DA:192,2
DA:193,1
DA:195,1
DA:198,3
DA:199,0
DA:200,0
DA:201,0
DA:202,3
DA:212,11
DA:213,11
DA:214,11
DA:215,11
DA:216,11
DA:227,10
DA:228,10
DA:229,10
DA:230,10
DA:231,0
DA:232,10
DA:233,10
DA:234,10
DA:235,2
DA:236,2
DA:237,2
DA:238,2
DA:239,2
DA:240,10
DA:241,10
DA:244,7
DA:245,7
DA:246,7
DA:247,19
DA:248,19
DA:249,19
DA:250,3
DA:251,3
DA:252,3
DA:253,3
DA:254,16
DA:255,16
DA:256,16
DA:257,16
DA:258,16
DA:259,1
DA:260,1
DA:261,1
DA:262,1
DA:263,1
DA:264,16
DA:268,3
DA:269,7
DA:272,5
DA:273,5
DA:274,5
DA:275,8
DA:276,8
DA:277,23
DA:278,3
DA:279,5
DA:280,5
DA:281,5
DA:282,5
DA:283,5
DA:284,5
DA:285,5
DA:286,21
DA:287,5
DA:288,5
DA:291,2
DA:292,5
DA:302,16
DA:303,16
DA:304,16
DA:305,0
DA:306,16
DA:307,16
DA:308,16
DA:309,16
DA:312,2
DA:313,2
DA:315,2
DA:316,2
DA:317,2
DA:318,2
DA:319,2
DA:321,2
DA:322,2
DA:323,2
DA:324,1
DA:325,1
DA:327,2
DA:328,2
DA:336,1
DA:337,1
DA:338,1
DA:339,1
DA:340,1
DA:342,1
DA:343,1
DA:344,1
DA:345,1
DA:346,1
DA:348,1
DA:349,1
DA:350,1
DA:351,1
DA:352,1
DA:354,1
DA:355,1
DA:356,1
DA:357,1
DA:358,1
DA:359,1
DA:360,1
DA:361,1
DA:363,1
DA:364,1
DA:365,1
DA:366,1
DA:367,1
DA:368,1
DA:369,1
DA:370,1
DA:372,1
DA:373,1
DA:374,1
DA:375,1
DA:376,1
DA:377,1
DA:378,1
DA:379,1
DA:381,1
DA:382,1
DA:383,1
DA:384,1
DA:385,1
DA:386,1
DA:387,1
DA:388,1
DA:389,1
DA:390,1
DA:391,1
DA:392,1
DA:393,1
DA:394,1
DA:396,1
DA:397,1
DA:398,1
DA:399,1
DA:400,1
DA:401,1
DA:402,1
DA:403,1
DA:404,1
DA:406,1
DA:407,1
DA:408,1
DA:409,1
DA:410,1
DA:411,1
DA:412,1
DA:413,1
DA:414,1
DA:416,1
DA:417,1
DA:418,1
DA:419,1
DA:420,1
DA:421,1
DA:422,1
DA:423,1
DA:424,1
DA:426,1
DA:427,1
DA:428,1
DA:429,1
DA:430,1
DA:431,1
DA:432,1
DA:433,1
DA:434,1
DA:435,1
DA:436,1
DA:437,1
DA:438,1
DA:439,1
DA:441,1
DA:442,1
DA:443,1
DA:444,1
DA:445,1
DA:446,1
DA:447,1
DA:448,1
DA:449,1
DA:450,1
DA:451,1
DA:452,1
DA:453,1
DA:454,1
DA:455,1
DA:456,1
DA:457,1
DA:458,1
DA:459,1
DA:460,1
DA:461,1
DA:462,1
DA:463,1
DA:464,1
DA:465,1
DA:466,1
DA:467,1
DA:468,1
DA:469,1
DA:470,1
DA:471,1
DA:472,1
DA:473,1
DA:474,1
DA:475,1
DA:476,1
DA:477,1
DA:478,1
DA:479,1
DA:480,1
DA:482,1
DA:483,1
DA:484,1
DA:485,1
DA:486,1
DA:487,1
DA:488,1
DA:489,1
DA:490,1
DA:492,1
DA:493,1
DA:494,1
DA:495,1
DA:496,1
DA:497,1
DA:498,1
DA:499,1
DA:500,1
DA:502,1
DA:503,1
DA:504,1
DA:505,1
DA:506,1
DA:507,1
DA:508,1
DA:509,1
DA:510,1
DA:512,1
DA:513,1
DA:514,1
DA:515,1
DA:516,1
DA:518,1
DA:519,1
DA:520,1
DA:521,1
DA:522,1
BRF:0
BRH:0
LF:339
LH:286
end_of_record
SF:crates/libcgroups/src/systemd/controller_type.rs
FN:26,_RNvXs_NtNtCs6dyzbgxNKb8_10libcgroups7systemd15controller_typeNtB4_14ControllerTypeINtNtCshypYLURccL2_4core7convert5AsRefeE6as_ref
FN:12,_RNvXNtNtCs6dyzbgxNKb8_10libcgroups7systemd15controller_typeNtB2_14ControllerTypeNtNtCshypYLURccL2_4core3fmt7Display3fmt
FNDA:0,_RNvXs_NtNtCs6dyzbgxNKb8_10libcgroups7systemd15controller_typeNtB4_14ControllerTypeINtNtCshypYLURccL2_4core7convert5AsRefeE6as_ref
FNDA:0,_RNvXNtNtCs6dyzbgxNKb8_10libcgroups7systemd15controller_typeNtB2_14ControllerTypeNtNtCshypYLURccL2_4core3fmt7Display3fmt
FNF:2
FNH:0
DA:12,0
DA:13,0
DA:14,0
DA:15,0
DA:16,0
DA:17,0
DA:18,0
DA:21,0
DA:22,0
DA:26,0
DA:27,0
DA:28,0
DA:29,0
DA:30,0
DA:31,0
DA:32,0
DA:34,0
BRF:0
BRH:0
LF:17
LH:0
end_of_record
SF:crates/libcgroups/src/systemd/cpu.rs
FN:112,_RNCNvNtNtNtCslEpTaKix7hR_10libcgroups7systemd3cpu5tests14test_set_quota0B9_
FN:91,_RNvNtNtNtCslEpTaKix7hR_10libcgroups7systemd3cpu5testss_15test_set_shares
FN:134,_RNCNvNtNtNtCslEpTaKix7hR_10libcgroups7systemd3cpu5tests15test_set_period0B9_
FN:113,_RNvNtNtNtCslEpTaKix7hR_10libcgroups7systemd3cpu5testss_14test_set_quota
FN:135,_RNvNtNtNtCslEpTaKix7hR_10libcgroups7systemd3cpu5testss_15test_set_period
FN:90,_RNCNvNtNtNtCslEpTaKix7hR_10libcgroups7systemd3cpu5tests15test_set_shares0B9_
FN:75,_RNvNtNtCslEpTaKix7hR_10libcgroups7systemd3cpu25convert_shares_to_cgroup2
FN:70,_RNvMs_NtNtCslEpTaKix7hR_10libcgroups7systemd3cpuNtB4_3Cpu21is_realtime_requested
FN:34,_RNvMs_NtNtCslEpTaKix7hR_10libcgroups7systemd3cpuNtB4_3Cpu5apply
FN:23,_RNvXNtNtCslEpTaKix7hR_10libcgroups7systemd3cpuNtB2_3CpuNtNtB4_10controller10Controller5apply
FN:34,_RNvMs_NtNtCs6dyzbgxNKb8_10libcgroups7systemd3cpuNtB4_3Cpu5apply
FN:23,_RNvXNtNtCs6dyzbgxNKb8_10libcgroups7systemd3cpuNtB2_3CpuNtNtB4_10controller10Controller5apply
FN:75,_RNvNtNtCs6dyzbgxNKb8_10libcgroups7systemd3cpu25convert_shares_to_cgroup2
FN:70,_RNvMs_NtNtCs6dyzbgxNKb8_10libcgroups7systemd3cpuNtB4_3Cpu21is_realtime_requested
FNDA:1,_RNCNvNtNtNtCslEpTaKix7hR_10libcgroups7systemd3cpu5tests14test_set_quota0B9_
FNDA:1,_RNvNtNtNtCslEpTaKix7hR_10libcgroups7systemd3cpu5testss_15test_set_shares
FNDA:1,_RNCNvNtNtNtCslEpTaKix7hR_10libcgroups7systemd3cpu5tests15test_set_period0B9_
FNDA:1,_RNvNtNtNtCslEpTaKix7hR_10libcgroups7systemd3cpu5testss_14test_set_quota
FNDA:1,_RNvNtNtNtCslEpTaKix7hR_10libcgroups7systemd3cpu5testss_15test_set_period
FNDA:1,_RNCNvNtNtNtCslEpTaKix7hR_10libcgroups7systemd3cpu5tests15test_set_shares0B9_
FNDA:2,_RNvNtNtCslEpTaKix7hR_10libcgroups7systemd3cpu25convert_shares_to_cgroup2
FNDA:6,_RNvMs_NtNtCslEpTaKix7hR_10libcgroups7systemd3cpuNtB4_3Cpu21is_realtime_requested
FNDA:6,_RNvMs_NtNtCslEpTaKix7hR_10libcgroups7systemd3cpuNtB4_3Cpu5apply
FNDA:0,_RNvXNtNtCslEpTaKix7hR_10libcgroups7systemd3cpuNtB2_3CpuNtNtB4_10controller10Controller5apply
FNDA:0,_RNvMs_NtNtCs6dyzbgxNKb8_10libcgroups7systemd3cpuNtB4_3Cpu5apply
FNDA:0,_RNvXNtNtCs6dyzbgxNKb8_10libcgroups7systemd3cpuNtB2_3CpuNtNtB4_10controller10Controller5apply
FNDA:0,_RNvNtNtCs6dyzbgxNKb8_10libcgroups7systemd3cpu25convert_shares_to_cgroup2
FNDA:0,_RNvMs_NtNtCs6dyzbgxNKb8_10libcgroups7systemd3cpuNtB4_3Cpu21is_realtime_requested
FNF:10
FNH:9
DA:23,0
DA:24,0
DA:25,0
DA:26,0
DA:27,0
DA:28,0
DA:29,0
DA:30,0
DA:34,6
DA:35,6
DA:36,0
DA:37,6
DA:39,6
DA:40,1
DA:41,1
DA:42,1
DA:43,1
DA:44,5
DA:47,6
DA:48,6
DA:49,3
DA:50,1
DA:51,1
DA:52,1
DA:53,1
DA:54,1
DA:55,2
DA:56,3
DA:57,6
DA:58,6
DA:59,6
DA:60,6
DA:61,2
DA:62,1
DA:63,1
DA:64,4
DA:65,6
DA:66,6
DA:67,6
DA:68,6
DA:70,6
DA:71,6
DA:72,6
DA:75,2
DA:76,2
DA:77,0
DA:78,2
DA:79,2
DA:80,2
DA:81,2
DA:90,1
DA:91,1
DA:93,1
DA:94,1
DA:95,1
DA:96,1
DA:97,1
DA:98,1
DA:99,1
DA:100,1
DA:103,1
DA:105,1
DA:106,1
DA:107,1
DA:109,1
DA:110,1
DA:112,1
DA:113,1
DA:114,1
DA:116,3
DA:117,3
DA:118,3
DA:119,3
DA:120,3
DA:121,3
DA:122,3
DA:125,3
DA:126,3
DA:127,3
DA:128,3
DA:131,1
DA:132,1
DA:134,1
DA:135,1
DA:136,1
DA:138,2
DA:139,2
DA:140,2
DA:141,2
DA:142,2
DA:143,2
DA:144,2
DA:145,2
DA:146,2
DA:149,2
DA:150,2
DA:151,2
DA:152,2
DA:155,1
DA:156,1
BRF:0
BRH:0
LF:100
LH:90
end_of_record
SF:crates/libcgroups/src/systemd/cpuset.rs
FN:118,_RNvNtNtNtCslEpTaKix7hR_10libcgroups7systemd6cpuset5testss_33to_bitmask_multiple_single_values
FN:139,_RNCNvNtNtNtCslEpTaKix7hR_10libcgroups7systemd6cpuset5tests29to_bitmask_interchanged_range0B9_
FN:129,_RNvNtNtNtCslEpTaKix7hR_10libcgroups7systemd6cpuset5testss_22to_bitmask_range_value
FN:148,_RNCNvNtNtNtCslEpTaKix7hR_10libcgroups7systemd6cpuset5tests27to_bitmask_incomplete_range0B9_
FN:161,_RNvNtNtNtCslEpTaKix7hR_10libcgroups7systemd6cpuset5testss_16to_bitmask_mixed
FN:107,_RNvNtNtNtCslEpTaKix7hR_10libcgroups7systemd6cpuset5testss_23to_bitmask_single_value
FN:184,_RNCNvNtNtNtCslEpTaKix7hR_10libcgroups7systemd6cpuset5tests27test_cpuset_systemd_too_old0B9_
FN:106,_RNCNvNtNtNtCslEpTaKix7hR_10libcgroups7systemd6cpuset5tests23to_bitmask_single_value0B9_
FN:160,_RNCNvNtNtNtCslEpTaKix7hR_10libcgroups7systemd6cpuset5tests16to_bitmask_mixed0B9_
FN:173,_RNvNtNtNtCslEpTaKix7hR_10libcgroups7systemd6cpuset5testss_27to_bitmask_extra_characters
FN:185,_RNvNtNtNtCslEpTaKix7hR_10libcgroups7systemd6cpuset5testss_27test_cpuset_systemd_too_old
FN:198,_RNCNvNtNtNtCslEpTaKix7hR_10libcgroups7systemd6cpuset5tests15test_cpuset_set0B9_
FN:117,_RNCNvNtNtNtCslEpTaKix7hR_10libcgroups7systemd6cpuset5tests33to_bitmask_multiple_single_values0B9_
FN:128,_RNCNvNtNtNtCslEpTaKix7hR_10libcgroups7systemd6cpuset5tests22to_bitmask_range_value0B9_
FN:199,_RNvNtNtNtCslEpTaKix7hR_10libcgroups7systemd6cpuset5testss_15test_cpuset_set
FN:140,_RNvNtNtNtCslEpTaKix7hR_10libcgroups7systemd6cpuset5testss_29to_bitmask_interchanged_range
FN:149,_RNvNtNtNtCslEpTaKix7hR_10libcgroups7systemd6cpuset5testss_27to_bitmask_incomplete_range
FN:172,_RNCNvNtNtNtCslEpTaKix7hR_10libcgroups7systemd6cpuset5tests27to_bitmask_extra_characters0B9_
FN:34,_RNvMs_NtNtCslEpTaKix7hR_10libcgroups7systemd6cpusetNtB4_6CpuSet5apply
FN:95,_RNCNvNtNtCslEpTaKix7hR_10libcgroups7systemd6cpuset10to_bitmasks0_0B7_
FN:94,_RNCNvNtNtCslEpTaKix7hR_10libcgroups7systemd6cpuset10to_bitmasks_0B7_
FN:67,_RNCNvNtNtCslEpTaKix7hR_10libcgroups7systemd6cpuset10to_bitmask0B7_
FN:58,_RNvNtNtCslEpTaKix7hR_10libcgroups7systemd6cpuset10to_bitmask
FN:23,_RNvXNtNtCslEpTaKix7hR_10libcgroups7systemd6cpusetNtB2_6CpuSetNtNtB4_10controller10Controller5apply
FN:23,_RNvXNtNtCs6dyzbgxNKb8_10libcgroups7systemd6cpusetNtB2_6CpuSetNtNtB4_10controller10Controller5apply
FN:94,_RNCNvNtNtCs6dyzbgxNKb8_10libcgroups7systemd6cpuset10to_bitmasks_0B7_
FN:58,_RNvNtNtCs6dyzbgxNKb8_10libcgroups7systemd6cpuset10to_bitmask
FN:67,_RNCNvNtNtCs6dyzbgxNKb8_10libcgroups7systemd6cpuset10to_bitmask0B7_
FN:95,_RNCNvNtNtCs6dyzbgxNKb8_10libcgroups7systemd6cpuset10to_bitmasks0_0B7_
FN:34,_RNvMs_NtNtCs6dyzbgxNKb8_10libcgroups7systemd6cpusetNtB4_6CpuSet5apply
FNDA:1,_RNvNtNtNtCslEpTaKix7hR_10libcgroups7systemd6cpuset5testss_33to_bitmask_multiple_single_values
FNDA:1,_RNCNvNtNtNtCslEpTaKix7hR_10libcgroups7systemd6cpuset5tests29to_bitmask_interchanged_range0B9_
FNDA:1,_RNvNtNtNtCslEpTaKix7hR_10libcgroups7systemd6cpuset5testss_22to_bitmask_range_value
FNDA:1,_RNCNvNtNtNtCslEpTaKix7hR_10libcgroups7systemd6cpuset5tests27to_bitmask_incomplete_range0B9_
FNDA:1,_RNvNtNtNtCslEpTaKix7hR_10libcgroups7systemd6cpuset5testss_16to_bitmask_mixed
FNDA:1,_RNvNtNtNtCslEpTaKix7hR_10libcgroups7systemd6cpuset5testss_23to_bitmask_single_value
FNDA:1,_RNCNvNtNtNtCslEpTaKix7hR_10libcgroups7systemd6cpuset5tests27test_cpuset_systemd_too_old0B9_
FNDA:1,_RNCNvNtNtNtCslEpTaKix7hR_10libcgroups7systemd6cpuset5tests23to_bitmask_single_value0B9_
FNDA:1,_RNCNvNtNtNtCslEpTaKix7hR_10libcgroups7systemd6cpuset5tests16to_bitmask_mixed0B9_
FNDA:1,_RNvNtNtNtCslEpTaKix7hR_10libcgroups7systemd6cpuset5testss_27to_bitmask_extra_characters
FNDA:1,_RNvNtNtNtCslEpTaKix7hR_10libcgroups7systemd6cpuset5testss_27test_cpuset_systemd_too_old
FNDA:1,_RNCNvNtNtNtCslEpTaKix7hR_10libcgroups7systemd6cpuset5tests15test_cpuset_set0B9_
FNDA:1,_RNCNvNtNtNtCslEpTaKix7hR_10libcgroups7systemd6cpuset5tests33to_bitmask_multiple_single_values0B9_
FNDA:1,_RNCNvNtNtNtCslEpTaKix7hR_10libcgroups7systemd6cpuset5tests22to_bitmask_range_value0B9_
FNDA:1,_RNvNtNtNtCslEpTaKix7hR_10libcgroups7systemd6cpuset5testss_15test_cpuset_set
FNDA:1,_RNvNtNtNtCslEpTaKix7hR_10libcgroups7systemd6cpuset5testss_29to_bitmask_interchanged_range
FNDA:1,_RNvNtNtNtCslEpTaKix7hR_10libcgroups7systemd6cpuset5testss_27to_bitmask_incomplete_range
FNDA:1,_RNCNvNtNtNtCslEpTaKix7hR_10libcgroups7systemd6cpuset5tests27to_bitmask_extra_characters0B9_
FNDA:2,_RNvMs_NtNtCslEpTaKix7hR_10libcgroups7systemd6cpusetNtB4_6CpuSet5apply
FNDA:34,_RNCNvNtNtCslEpTaKix7hR_10libcgroups7systemd6cpuset10to_bitmasks0_0B7_
FNDA:9,_RNCNvNtNtCslEpTaKix7hR_10libcgroups7systemd6cpuset10to_bitmasks_0B7_
FNDA:32,_RNCNvNtNtCslEpTaKix7hR_10libcgroups7systemd6cpuset10to_bitmask0B7_
FNDA:12,_RNvNtNtCslEpTaKix7hR_10libcgroups7systemd6cpuset10to_bitmask
FNDA:0,_RNvXNtNtCslEpTaKix7hR_10libcgroups7systemd6cpusetNtB2_6CpuSetNtNtB4_10controller10Controller5apply
FNDA:0,_RNvXNtNtCs6dyzbgxNKb8_10libcgroups7systemd6cpusetNtB2_6CpuSetNtNtB4_10controller10Controller5apply
FNDA:0,_RNCNvNtNtCs6dyzbgxNKb8_10libcgroups7systemd6cpuset10to_bitmasks_0B7_
FNDA:0,_RNvNtNtCs6dyzbgxNKb8_10libcgroups7systemd6cpuset10to_bitmask
FNDA:0,_RNCNvNtNtCs6dyzbgxNKb8_10libcgroups7systemd6cpuset10to_bitmask0B7_
FNDA:0,_RNCNvNtNtCs6dyzbgxNKb8_10libcgroups7systemd6cpuset10to_bitmasks0_0B7_
FNDA:0,_RNvMs_NtNtCs6dyzbgxNKb8_10libcgroups7systemd6cpusetNtB4_6CpuSet5apply
FNF:24
FNH:23
DA:23,0
DA:24,0
DA:25,0
DA:26,0
DA:27,0
DA:28,0
DA:29,0
DA:30,0
DA:34,2
DA:35,2
DA:36,2
DA:37,2
DA:38,2
DA:39,2
DA:40,1
DA:41,1
DA:43,1
DA:44,1
DA:45,1
DA:46,0
DA:48,1
DA:49,1
DA:50,1
DA:51,1
DA:52,0
DA:54,1
DA:55,2
DA:58,12
DA:59,12
DA:61,22
DA:62,22
DA:63,22
DA:64,2
DA:65,20
DA:66,20
DA:67,32
DA:68,20
DA:69,8
DA:70,8
DA:71,0
DA:72,8
DA:73,8
DA:75,12
DA:76,11
DA:77,10
DA:78,1
DA:79,9
DA:80,9
DA:81,9
DA:82,2
DA:83,7
DA:85,9
DA:91,9
DA:92,9
DA:93,9
DA:94,9
DA:95,34
DA:96,9
DA:97,12
DA:106,1
DA:107,1
DA:108,1
DA:110,1
DA:112,1
DA:113,1
DA:114,1
DA:115,1
DA:117,1
DA:118,1
DA:119,1
DA:121,1
DA:123,1
DA:124,1
DA:125,1
DA:126,1
DA:128,1
DA:129,1
DA:130,1
DA:132,1
DA:134,1
DA:135,1
DA:136,1
DA:137,1
DA:139,1
DA:140,1
DA:141,1
DA:142,1
DA:143,1
DA:144,1
DA:145,1
DA:146,1
DA:148,1
DA:149,1
DA:150,1
DA:152,2
DA:153,2
DA:154,2
DA:157,1
DA:158,1
DA:160,1
DA:161,1
DA:162,1
DA:164,1
DA:166,1
DA:167,1
DA:168,1
DA:169,1
DA:170,1
DA:172,1
DA:173,1
DA:174,1
DA:176,1
DA:177,1
DA:178,1
DA:179,1
DA:181,1
DA:182,1
DA:184,1
DA:185,1
DA:186,1
DA:187,1
DA:188,1
DA:189,1
DA:190,1
DA:191,1
DA:192,1
DA:193,1
DA:194,1
DA:195,1
DA:196,1
DA:198,1
DA:199,1
DA:200,1
DA:201,1
DA:202,1
DA:203,1
DA:204,1
DA:205,1
DA:206,1
DA:207,1
DA:208,1
DA:210,1
DA:211,1
DA:212,1
DA:213,1
DA:215,1
DA:216,1
DA:217,1
DA:219,1
DA:220,1
BRF:0
BRH:0
LF:153
LH:142
end_of_record
SF:crates/libcgroups/src/systemd/dbus/client.rs
FN:132,_RNCNvXs_NtNtNtCs6dyzbgxNKb8_10libcgroups7systemd4dbus6clientNtB6_6ClientNtB6_13SystemdClient19stop_transient_unit0Bc_
FN:42,_RNvMNtNtNtCs6dyzbgxNKb8_10libcgroups7systemd4dbus6clientNtB2_6Client10new_system
FN:170,_RNvXs_NtNtNtCs6dyzbgxNKb8_10libcgroups7systemd4dbus6clientNtB4_6ClientNtB4_13SystemdClient19control_cgroup_root
FN:66,_RNvXs_NtNtNtCs6dyzbgxNKb8_10libcgroups7systemd4dbus6clientNtB4_6ClientNtB4_13SystemdClient9is_system
FN:118,_RNCNvXs_NtNtNtCs6dyzbgxNKb8_10libcgroups7systemd4dbus6clientNtB6_6ClientNtB6_13SystemdClient20start_transient_unit0Bc_
FN:154,_RNvXs_NtNtNtCs6dyzbgxNKb8_10libcgroups7systemd4dbus6clientNtB4_6ClientNtB4_13SystemdClient15systemd_version
FN:73,_RNvXs_NtNtNtCs6dyzbgxNKb8_10libcgroups7systemd4dbus6clientNtB4_6ClientNtB4_13SystemdClient20start_transient_unit
FN:162,_RNCNvXs_NtNtNtCs6dyzbgxNKb8_10libcgroups7systemd4dbus6clientNtB6_6ClientNtB6_13SystemdClient15systemd_versions_0Bc_
FN:136,_RNvXs_NtNtNtCs6dyzbgxNKb8_10libcgroups7systemd4dbus6clientNtB4_6ClientNtB4_13SystemdClient19set_unit_properties
FN:150,_RNCNvXs_NtNtNtCs6dyzbgxNKb8_10libcgroups7systemd4dbus6clientNtB6_6ClientNtB6_13SystemdClient19set_unit_propertiess_0Bc_
FN:48,_RNvMNtNtNtCs6dyzbgxNKb8_10libcgroups7systemd4dbus6clientNtB2_6Client11new_session
FN:177,_RNCNvXs_NtNtNtCs6dyzbgxNKb8_10libcgroups7systemd4dbus6clientNtB6_6ClientNtB6_13SystemdClient19control_cgroup_root0Bc_
FN:145,_RNCNvXs_NtNtNtCs6dyzbgxNKb8_10libcgroups7systemd4dbus6clientNtB6_6ClientNtB6_13SystemdClient19set_unit_properties0Bc_
FN:56,_RNvMNtNtNtCs6dyzbgxNKb8_10libcgroups7systemd4dbus6clientNtB2_6Client12create_proxy
FN:127,_RNvXs_NtNtNtCs6dyzbgxNKb8_10libcgroups7systemd4dbus6clientNtB4_6ClientNtB4_13SystemdClient19stop_transient_unit
FN:161,_RNCNvXs_NtNtNtCs6dyzbgxNKb8_10libcgroups7systemd4dbus6clientNtB6_6ClientNtB6_13SystemdClient15systemd_version0Bc_
FNDA:0,_RNCNvXs_NtNtNtCs6dyzbgxNKb8_10libcgroups7systemd4dbus6clientNtB6_6ClientNtB6_13SystemdClient19stop_transient_unit0Bc_
FNDA:0,_RNvMNtNtNtCs6dyzbgxNKb8_10libcgroups7systemd4dbus6clientNtB2_6Client10new_system
FNDA:0,_RNvXs_NtNtNtCs6dyzbgxNKb8_10libcgroups7systemd4dbus6clientNtB4_6ClientNtB4_13SystemdClient19control_cgroup_root
FNDA:0,_RNvXs_NtNtNtCs6dyzbgxNKb8_10libcgroups7systemd4dbus6clientNtB4_6ClientNtB4_13SystemdClient9is_system
FNDA:0,_RNCNvXs_NtNtNtCs6dyzbgxNKb8_10libcgroups7systemd4dbus6clientNtB6_6ClientNtB6_13SystemdClient20start_transient_unit0Bc_
FNDA:0,_RNvXs_NtNtNtCs6dyzbgxNKb8_10libcgroups7systemd4dbus6clientNtB4_6ClientNtB4_13SystemdClient15systemd_version
FNDA:0,_RNvXs_NtNtNtCs6dyzbgxNKb8_10libcgroups7systemd4dbus6clientNtB4_6ClientNtB4_13SystemdClient20start_transient_unit
FNDA:0,_RNCNvXs_NtNtNtCs6dyzbgxNKb8_10libcgroups7systemd4dbus6clientNtB6_6ClientNtB6_13SystemdClient15systemd_versions_0Bc_
FNDA:0,_RNvXs_NtNtNtCs6dyzbgxNKb8_10libcgroups7systemd4dbus6clientNtB4_6ClientNtB4_13SystemdClient19set_unit_properties
FNDA:0,_RNCNvXs_NtNtNtCs6dyzbgxNKb8_10libcgroups7systemd4dbus6clientNtB6_6ClientNtB6_13SystemdClient19set_unit_propertiess_0Bc_
FNDA:0,_RNvMNtNtNtCs6dyzbgxNKb8_10libcgroups7systemd4dbus6clientNtB2_6Client11new_session
FNDA:0,_RNCNvXs_NtNtNtCs6dyzbgxNKb8_10libcgroups7systemd4dbus6clientNtB6_6ClientNtB6_13SystemdClient19control_cgroup_root0Bc_
FNDA:0,_RNCNvXs_NtNtNtCs6dyzbgxNKb8_10libcgroups7systemd4dbus6clientNtB6_6ClientNtB6_13SystemdClient19set_unit_properties0Bc_
FNDA:0,_RNvMNtNtNtCs6dyzbgxNKb8_10libcgroups7systemd4dbus6clientNtB2_6Client12create_proxy
FNDA:0,_RNvXs_NtNtNtCs6dyzbgxNKb8_10libcgroups7systemd4dbus6clientNtB4_6ClientNtB4_13SystemdClient19stop_transient_unit
FNDA:0,_RNCNvXs_NtNtNtCs6dyzbgxNKb8_10libcgroups7systemd4dbus6clientNtB6_6ClientNtB6_13SystemdClient15systemd_version0Bc_
FNF:16
FNH:0
DA:42,0
DA:43,0
DA:44,0
DA:45,0
DA:48,0
DA:49,0
DA:50,0
DA:51,0
DA:52,0
DA:53,0
DA:54,0
DA:56,0
DA:57,0
DA:58,0
DA:59,0
DA:60,0
DA:61,0
DA:62,0
DA:66,0
DA:67,0
DA:68,0
DA:73,0
DA:74,0
DA:75,0
DA:76,0
DA:77,0
DA:78,0
DA:79,0
DA:80,0
DA:81,0
DA:82,0
DA:83,0
DA:84,0
DA:85,0
DA:86,0
DA:87,0
DA:88,0
DA:89,0
DA:90,0
DA:91,0
DA:92,0
DA:93,0
DA:94,0
DA:95,0
DA:96,0
DA:97,0
DA:98,0
DA:99,0
DA:100,0
DA:101,0
DA:102,0
DA:103,0
DA:104,0
DA:105,0
DA:107,0
DA:108,0
DA:109,0
DA:110,0
DA:111,0
DA:112,0
DA:113,0
DA:114,0
DA:115,0
DA:116,0
DA:117,0
DA:118,0
DA:119,0
DA:120,0
DA:121,0
DA:122,0
DA:123,0
DA:124,0
DA:125,0
DA:127,0
DA:128,0
DA:129,0
DA:130,0
DA:131,0
DA:132,0
DA:133,0
DA:134,0
DA:136,0
DA:137,0
DA:138,0
DA:139,0
DA:140,0
DA:141,0
DA:142,0
DA:143,0
DA:144,0
DA:145,0
DA:146,0
DA:147,0
DA:148,0
DA:149,0
DA:150,0
DA:151,0
DA:152,0
DA:154,0
DA:155,0
DA:157,0
DA:158,0
DA:159,0
DA:160,0
DA:161,0
DA:162,0
DA:163,0
DA:164,0
DA:165,0
DA:167,0
DA:168,0
DA:170,0
DA:171,0
DA:173,0
DA:174,0
DA:175,0
DA:176,0
DA:177,0
DA:178,0
BRF:0
BRH:0
LF:127
LH:0
end_of_record
SF:crates/libcgroups/src/systemd/manager.rs
FN:76,_RNCNvXNtNtCslEpTaKix7hR_10libcgroups7systemd7managerNtB4_11CgroupsPathINtNtCshypYLURccL2_4core7convert7TryFromRNtNtCslIgaOqvXPTn_3std4path4PathE8try_from0B8_
FN:105,_RNvNtNtCslEpTaKix7hR_10libcgroups7systemd7manager18ensure_parent_unit
FN:329,_RNvXs2_NtNtCslEpTaKix7hR_10libcgroups7systemd7managerNtB5_7ManagerNtNtB9_6common13CgroupManager5apply
FN:117,_RNvXs0_NtNtCslEpTaKix7hR_10libcgroups7systemd7managerNtB5_7ManagerNtNtCshypYLURccL2_4core3fmt5Debug3fmt
FN:194,_RNCNvMs1_NtNtCslEpTaKix7hR_10libcgroups7systemd7managerNtB7_7Manager22construct_cgroups_paths_0Bb_
FN:229,_RNvMs1_NtNtCslEpTaKix7hR_10libcgroups7systemd7managerNtB5_7Manager27ensure_controllers_attached
FN:168,_RNvMs1_NtNtCslEpTaKix7hR_10libcgroups7systemd7managerNtB5_7Manager13get_unit_name
FN:67,_RNvXNtNtCslEpTaKix7hR_10libcgroups7systemd7managerNtB2_11CgroupsPathINtNtCshypYLURccL2_4core7convert7TryFromRNtNtCslIgaOqvXPTn_3std4path4PathE8try_from
FN:390,_RNvXs2_NtNtCslEpTaKix7hR_10libcgroups7systemd7managerNtB5_7ManagerNtNtB9_6common13CgroupManager12get_all_pids
FN:375,_RNCNvXs2_NtNtCslEpTaKix7hR_10libcgroups7systemd7managerNtB7_7ManagerNtNtBb_6common13CgroupManager6remove0Bb_
FN:130,_RNvMs1_NtNtCslEpTaKix7hR_10libcgroups7systemd7managerNtB5_7Manager3new
FN:139,_RNCNvMs1_NtNtCslEpTaKix7hR_10libcgroups7systemd7managerNtB7_7Manager3new0Bb_
FN:99,_RNvXs_NtNtCslEpTaKix7hR_10libcgroups7systemd7managerNtB4_11CgroupsPathNtNtCshypYLURccL2_4core3fmt7Display3fmt
FN:386,_RNvXs2_NtNtCslEpTaKix7hR_10libcgroups7systemd7managerNtB5_7ManagerNtNtB9_6common13CgroupManager5stats
FN:319,_RNCNvXs2_NtNtCslEpTaKix7hR_10libcgroups7systemd7managerNtB7_7ManagerNtNtBb_6common13CgroupManager8add_task0Bb_
FN:192,_RNCNvMs1_NtNtCslEpTaKix7hR_10libcgroups7systemd7managerNtB7_7Manager22construct_cgroups_path0Bb_
FN:245,_RNCNvMs1_NtNtCslEpTaKix7hR_10libcgroups7systemd7managerNtB7_7Manager27ensure_controllers_attacheds_0Bb_
FN:371,_RNvXs2_NtNtCslEpTaKix7hR_10libcgroups7systemd7managerNtB5_7ManagerNtNtB9_6common13CgroupManager6remove
FN:382,_RNvXs2_NtNtCslEpTaKix7hR_10libcgroups7systemd7managerNtB5_7ManagerNtNtB9_6common13CgroupManager6freeze
FN:201,_RNvMs1_NtNtCslEpTaKix7hR_10libcgroups7systemd7managerNtB5_7Manager12expand_slice
FN:179,_RNvMs1_NtNtCslEpTaKix7hR_10libcgroups7systemd7managerNtB5_7Manager22construct_cgroups_path
FN:270,_RINvMs1_NtNtCslEpTaKix7hR_10libcgroups7systemd7managerNtB6_7Manager25get_available_controllerspEBa_
FN:57,_RNvXs3_NtNtCslEpTaKix7hR_10libcgroups7systemd7managerNtB5_11CgroupsPathNtNtCshypYLURccL2_4core3fmt5Debug3fmt
FN:305,_RNvXs2_NtNtCslEpTaKix7hR_10libcgroups7systemd7managerNtB5_7ManagerNtNtB9_6common13CgroupManager8add_task
FN:295,_RNvMs1_NtNtCslEpTaKix7hR_10libcgroups7systemd7managerNtB5_7Manager17write_controllers
FN:235,_RNCNvMs1_NtNtCslEpTaKix7hR_10libcgroups7systemd7managerNtB7_7Manager27ensure_controllers_attached0Bb_
FN:408,_RNvXNtNtNtCslEpTaKix7hR_10libcgroups7systemd7manager5testsNtB2_17TestSystemdClientNtNtNtB6_4dbus6client13SystemdClient20start_transient_unit
FN:434,_RNvXNtNtNtCslEpTaKix7hR_10libcgroups7systemd7manager5testsNtB2_17TestSystemdClientNtNtNtB6_4dbus6client13SystemdClient19control_cgroup_root
FN:440,_RNvNtNtNtCslEpTaKix7hR_10libcgroups7systemd7manager5testss_18expand_slice_works
FN:478,_RNvNtNtNtCslEpTaKix7hR_10libcgroups7systemd7manager5testss_37get_cgroups_path_works_without_parent
FN:450,_RNvNtNtNtCslEpTaKix7hR_10libcgroups7systemd7manager5testss_43get_cgroups_path_works_with_a_complex_slice
FN:404,_RNvXNtNtNtCslEpTaKix7hR_10libcgroups7systemd7manager5testsNtB2_17TestSystemdClientNtNtNtB6_4dbus6client13SystemdClient9is_system
FN:430,_RNvXNtNtNtCslEpTaKix7hR_10libcgroups7systemd7manager5testsNtB2_17TestSystemdClientNtNtNtB6_4dbus6client13SystemdClient15systemd_version
FN:422,_RNvXNtNtNtCslEpTaKix7hR_10libcgroups7systemd7manager5testsNtB2_17TestSystemdClientNtNtNtB6_4dbus6client13SystemdClient19set_unit_properties
FN:463,_RNCNvNtNtNtCslEpTaKix7hR_10libcgroups7systemd7manager5tests42get_cgroups_path_works_with_a_simple_slice0B9_
FN:439,_RNCNvNtNtNtCslEpTaKix7hR_10libcgroups7systemd7manager5tests18expand_slice_works0B9_
FN:477,_RNCNvNtNtNtCslEpTaKix7hR_10libcgroups7systemd7manager5tests37get_cgroups_path_works_without_parent0B9_
FN:418,_RNvXNtNtNtCslEpTaKix7hR_10libcgroups7systemd7manager5testsNtB2_17TestSystemdClientNtNtNtB6_4dbus6client13SystemdClient19stop_transient_unit
FN:449,_RNCNvNtNtNtCslEpTaKix7hR_10libcgroups7systemd7manager5tests43get_cgroups_path_works_with_a_complex_slice0B9_
FN:464,_RNvNtNtNtCslEpTaKix7hR_10libcgroups7systemd7manager5testss_42get_cgroups_path_works_with_a_simple_slice
FN:105,_RNvNtNtCs6dyzbgxNKb8_10libcgroups7systemd7manager18ensure_parent_unit
FN:57,_RNvXs3_NtNtCs6dyzbgxNKb8_10libcgroups7systemd7managerNtB5_11CgroupsPathNtNtCshypYLURccL2_4core3fmt5Debug3fmt
FN:194,_RNCNvMs1_NtNtCs6dyzbgxNKb8_10libcgroups7systemd7managerNtB7_7Manager22construct_cgroups_paths_0Bb_
FN:295,_RNvMs1_NtNtCs6dyzbgxNKb8_10libcgroups7systemd7managerNtB5_7Manager17write_controllers
FN:179,_RNvMs1_NtNtCs6dyzbgxNKb8_10libcgroups7systemd7managerNtB5_7Manager22construct_cgroups_path
FN:76,_RNCNvXNtNtCs6dyzbgxNKb8_10libcgroups7systemd7managerNtB4_11CgroupsPathINtNtCshypYLURccL2_4core7convert7TryFromRNtNtCslIgaOqvXPTn_3std4path4PathE8try_from0B8_
FN:192,_RNCNvMs1_NtNtCs6dyzbgxNKb8_10libcgroups7systemd7managerNtB7_7Manager22construct_cgroups_path0Bb_
FN:329,_RNvXs2_NtNtCs6dyzbgxNKb8_10libcgroups7systemd7managerNtB5_7ManagerNtNtB9_6common13CgroupManager5apply
FN:319,_RNCNvXs2_NtNtCs6dyzbgxNKb8_10libcgroups7systemd7managerNtB7_7ManagerNtNtBb_6common13CgroupManager8add_task0Bb_
FN:386,_RNvXs2_NtNtCs6dyzbgxNKb8_10libcgroups7systemd7managerNtB5_7ManagerNtNtB9_6common13CgroupManager5stats
FN:229,_RNvMs1_NtNtCs6dyzbgxNKb8_10libcgroups7systemd7managerNtB5_7Manager27ensure_controllers_attached
FN:235,_RNCNvMs1_NtNtCs6dyzbgxNKb8_10libcgroups7systemd7managerNtB7_7Manager27ensure_controllers_attached0Bb_
FN:99,_RNvXs_NtNtCs6dyzbgxNKb8_10libcgroups7systemd7managerNtB4_11CgroupsPathNtNtCshypYLURccL2_4core3fmt7Display3fmt
FN:67,_RNvXNtNtCs6dyzbgxNKb8_10libcgroups7systemd7managerNtB2_11CgroupsPathINtNtCshypYLURccL2_4core7convert7TryFromRNtNtCslIgaOqvXPTn_3std4path4PathE8try_from
FN:168,_RNvMs1_NtNtCs6dyzbgxNKb8_10libcgroups7systemd7managerNtB5_7Manager13get_unit_name
FN:382,_RNvXs2_NtNtCs6dyzbgxNKb8_10libcgroups7systemd7managerNtB5_7ManagerNtNtB9_6common13CgroupManager6freeze
FN:201,_RNvMs1_NtNtCs6dyzbgxNKb8_10libcgroups7systemd7managerNtB5_7Manager12expand_slice
FN:305,_RNvXs2_NtNtCs6dyzbgxNKb8_10libcgroups7systemd7managerNtB5_7ManagerNtNtB9_6common13CgroupManager8add_task
FN:390,_RNvXs2_NtNtCs6dyzbgxNKb8_10libcgroups7systemd7managerNtB5_7ManagerNtNtB9_6common13CgroupManager12get_all_pids
FN:117,_RNvXs0_NtNtCs6dyzbgxNKb8_10libcgroups7systemd7managerNtB5_7ManagerNtNtCshypYLURccL2_4core3fmt5Debug3fmt
FN:245,_RNCNvMs1_NtNtCs6dyzbgxNKb8_10libcgroups7systemd7managerNtB7_7Manager27ensure_controllers_attacheds_0Bb_
FN:130,_RNvMs1_NtNtCs6dyzbgxNKb8_10libcgroups7systemd7managerNtB5_7Manager3new
FN:139,_RNCNvMs1_NtNtCs6dyzbgxNKb8_10libcgroups7systemd7managerNtB7_7Manager3new0Bb_
FN:371,_RNvXs2_NtNtCs6dyzbgxNKb8_10libcgroups7systemd7managerNtB5_7ManagerNtNtB9_6common13CgroupManager6remove
FN:375,_RNCNvXs2_NtNtCs6dyzbgxNKb8_10libcgroups7systemd7managerNtB7_7ManagerNtNtBb_6common13CgroupManager6remove0Bb_
FN:270,_RINvMs1_NtNtCs6dyzbgxNKb8_10libcgroups7systemd7managerNtB6_7Manager25get_available_controllersRNtNtCslIgaOqvXPTn_3std4path7PathBufEBa_
FNDA:0,_RNCNvXNtNtCslEpTaKix7hR_10libcgroups7systemd7managerNtB4_11CgroupsPathINtNtCshypYLURccL2_4core7convert7TryFromRNtNtCslIgaOqvXPTn_3std4path4PathE8try_from0B8_
FNDA:1,_RNvNtNtCslEpTaKix7hR_10libcgroups7systemd7manager18ensure_parent_unit
FNDA:0,_RNvXs2_NtNtCslEpTaKix7hR_10libcgroups7systemd7managerNtB5_7ManagerNtNtB9_6common13CgroupManager5apply
FNDA:0,_RNvXs0_NtNtCslEpTaKix7hR_10libcgroups7systemd7managerNtB5_7ManagerNtNtCshypYLURccL2_4core3fmt5Debug3fmt
FNDA:0,_RNCNvMs1_NtNtCslEpTaKix7hR_10libcgroups7systemd7managerNtB7_7Manager22construct_cgroups_paths_0Bb_
FNDA:0,_RNvMs1_NtNtCslEpTaKix7hR_10libcgroups7systemd7managerNtB5_7Manager27ensure_controllers_attached
FNDA:3,_RNvMs1_NtNtCslEpTaKix7hR_10libcgroups7systemd7managerNtB5_7Manager13get_unit_name
FNDA:3,_RNvXNtNtCslEpTaKix7hR_10libcgroups7systemd7managerNtB2_11CgroupsPathINtNtCshypYLURccL2_4core7convert7TryFromRNtNtCslIgaOqvXPTn_3std4path4PathE8try_from
FNDA:0,_RNvXs2_NtNtCslEpTaKix7hR_10libcgroups7systemd7managerNtB5_7ManagerNtNtB9_6common13CgroupManager12get_all_pids
FNDA:0,_RNCNvXs2_NtNtCslEpTaKix7hR_10libcgroups7systemd7managerNtB7_7ManagerNtNtBb_6common13CgroupManager6remove0Bb_
FNDA:0,_RNvMs1_NtNtCslEpTaKix7hR_10libcgroups7systemd7managerNtB5_7Manager3new
FNDA:0,_RNCNvMs1_NtNtCslEpTaKix7hR_10libcgroups7systemd7managerNtB7_7Manager3new0Bb_
FNDA:0,_RNvXs_NtNtCslEpTaKix7hR_10libcgroups7systemd7managerNtB4_11CgroupsPathNtNtCshypYLURccL2_4core3fmt7Display3fmt
FNDA:0,_RNvXs2_NtNtCslEpTaKix7hR_10libcgroups7systemd7managerNtB5_7ManagerNtNtB9_6common13CgroupManager5stats
FNDA:0,_RNCNvXs2_NtNtCslEpTaKix7hR_10libcgroups7systemd7managerNtB7_7ManagerNtNtBb_6common13CgroupManager8add_task0Bb_
FNDA:0,_RNCNvMs1_NtNtCslEpTaKix7hR_10libcgroups7systemd7managerNtB7_7Manager22construct_cgroups_path0Bb_
FNDA:0,_RNCNvMs1_NtNtCslEpTaKix7hR_10libcgroups7systemd7managerNtB7_7Manager27ensure_controllers_attacheds_0Bb_
FNDA:0,_RNvXs2_NtNtCslEpTaKix7hR_10libcgroups7systemd7managerNtB5_7ManagerNtNtB9_6common13CgroupManager6remove
FNDA:0,_RNvXs2_NtNtCslEpTaKix7hR_10libcgroups7systemd7managerNtB5_7ManagerNtNtB9_6common13CgroupManager6freeze
FNDA:4,_RNvMs1_NtNtCslEpTaKix7hR_10libcgroups7systemd7managerNtB5_7Manager12expand_slice
FNDA:3,_RNvMs1_NtNtCslEpTaKix7hR_10libcgroups7systemd7managerNtB5_7Manager22construct_cgroups_path
FNDA:0,_RINvMs1_NtNtCslEpTaKix7hR_10libcgroups7systemd7managerNtB6_7Manager25get_available_controllerspEBa_
FNDA:0,_RNvXs3_NtNtCslEpTaKix7hR_10libcgroups7systemd7managerNtB5_11CgroupsPathNtNtCshypYLURccL2_4core3fmt5Debug3fmt
FNDA:0,_RNvXs2_NtNtCslEpTaKix7hR_10libcgroups7systemd7managerNtB5_7ManagerNtNtB9_6common13CgroupManager8add_task
FNDA:0,_RNvMs1_NtNtCslEpTaKix7hR_10libcgroups7systemd7managerNtB5_7Manager17write_controllers
FNDA:0,_RNCNvMs1_NtNtCslEpTaKix7hR_10libcgroups7systemd7managerNtB7_7Manager27ensure_controllers_attached0Bb_
FNDA:0,_RNvXNtNtNtCslEpTaKix7hR_10libcgroups7systemd7manager5testsNtB2_17TestSystemdClientNtNtNtB6_4dbus6client13SystemdClient20start_transient_unit
FNDA:3,_RNvXNtNtNtCslEpTaKix7hR_10libcgroups7systemd7manager5testsNtB2_17TestSystemdClientNtNtNtB6_4dbus6client13SystemdClient19control_cgroup_root
FNDA:1,_RNvNtNtNtCslEpTaKix7hR_10libcgroups7systemd7manager5testss_18expand_slice_works
FNDA:1,_RNvNtNtNtCslEpTaKix7hR_10libcgroups7systemd7manager5testss_37get_cgroups_path_works_without_parent
FNDA:1,_RNvNtNtNtCslEpTaKix7hR_10libcgroups7systemd7manager5testss_43get_cgroups_path_works_with_a_complex_slice
FNDA:0,_RNvXNtNtNtCslEpTaKix7hR_10libcgroups7systemd7manager5testsNtB2_17TestSystemdClientNtNtNtB6_4dbus6client13SystemdClient9is_system
FNDA:0,_RNvXNtNtNtCslEpTaKix7hR_10libcgroups7systemd7manager5testsNtB2_17TestSystemdClientNtNtNtB6_4dbus6client13SystemdClient15systemd_version
FNDA:0,_RNvXNtNtNtCslEpTaKix7hR_10libcgroups7systemd7manager5testsNtB2_17TestSystemdClientNtNtNtB6_4dbus6client13SystemdClient19set_unit_properties
FNDA:1,_RNCNvNtNtNtCslEpTaKix7hR_10libcgroups7systemd7manager5tests42get_cgroups_path_works_with_a_simple_slice0B9_
FNDA:1,_RNCNvNtNtNtCslEpTaKix7hR_10libcgroups7systemd7manager5tests18expand_slice_works0B9_
FNDA:1,_RNCNvNtNtNtCslEpTaKix7hR_10libcgroups7systemd7manager5tests37get_cgroups_path_works_without_parent0B9_
FNDA:0,_RNvXNtNtNtCslEpTaKix7hR_10libcgroups7systemd7manager5testsNtB2_17TestSystemdClientNtNtNtB6_4dbus6client13SystemdClient19stop_transient_unit
FNDA:1,_RNCNvNtNtNtCslEpTaKix7hR_10libcgroups7systemd7manager5tests43get_cgroups_path_works_with_a_complex_slice0B9_
FNDA:1,_RNvNtNtNtCslEpTaKix7hR_10libcgroups7systemd7manager5testss_42get_cgroups_path_works_with_a_simple_slice
FNDA:0,_RNvNtNtCs6dyzbgxNKb8_10libcgroups7systemd7manager18ensure_parent_unit
FNDA:0,_RNvXs3_NtNtCs6dyzbgxNKb8_10libcgroups7systemd7managerNtB5_11CgroupsPathNtNtCshypYLURccL2_4core3fmt5Debug3fmt
FNDA:0,_RNCNvMs1_NtNtCs6dyzbgxNKb8_10libcgroups7systemd7managerNtB7_7Manager22construct_cgroups_paths_0Bb_
FNDA:0,_RNvMs1_NtNtCs6dyzbgxNKb8_10libcgroups7systemd7managerNtB5_7Manager17write_controllers
FNDA:0,_RNvMs1_NtNtCs6dyzbgxNKb8_10libcgroups7systemd7managerNtB5_7Manager22construct_cgroups_path
FNDA:0,_RNCNvXNtNtCs6dyzbgxNKb8_10libcgroups7systemd7managerNtB4_11CgroupsPathINtNtCshypYLURccL2_4core7convert7TryFromRNtNtCslIgaOqvXPTn_3std4path4PathE8try_from0B8_
FNDA:0,_RNCNvMs1_NtNtCs6dyzbgxNKb8_10libcgroups7systemd7managerNtB7_7Manager22construct_cgroups_path0Bb_
FNDA:0,_RNvXs2_NtNtCs6dyzbgxNKb8_10libcgroups7systemd7managerNtB5_7ManagerNtNtB9_6common13CgroupManager5apply
FNDA:0,_RNCNvXs2_NtNtCs6dyzbgxNKb8_10libcgroups7systemd7managerNtB7_7ManagerNtNtBb_6common13CgroupManager8add_task0Bb_
FNDA:0,_RNvXs2_NtNtCs6dyzbgxNKb8_10libcgroups7systemd7managerNtB5_7ManagerNtNtB9_6common13CgroupManager5stats
FNDA:0,_RNvMs1_NtNtCs6dyzbgxNKb8_10libcgroups7systemd7managerNtB5_7Manager27ensure_controllers_attached
FNDA:0,_RNCNvMs1_NtNtCs6dyzbgxNKb8_10libcgroups7systemd7managerNtB7_7Manager27ensure_controllers_attached0Bb_
FNDA:0,_RNvXs_NtNtCs6dyzbgxNKb8_10libcgroups7systemd7managerNtB4_11CgroupsPathNtNtCshypYLURccL2_4core3fmt7Display3fmt
FNDA:0,_RNvXNtNtCs6dyzbgxNKb8_10libcgroups7systemd7managerNtB2_11CgroupsPathINtNtCshypYLURccL2_4core7convert7TryFromRNtNtCslIgaOqvXPTn_3std4path4PathE8try_from
FNDA:0,_RNvMs1_NtNtCs6dyzbgxNKb8_10libcgroups7systemd7managerNtB5_7Manager13get_unit_name
FNDA:0,_RNvXs2_NtNtCs6dyzbgxNKb8_10libcgroups7systemd7managerNtB5_7ManagerNtNtB9_6common13CgroupManager6freeze
FNDA:0,_RNvMs1_NtNtCs6dyzbgxNKb8_10libcgroups7systemd7managerNtB5_7Manager12expand_slice
FNDA:0,_RNvXs2_NtNtCs6dyzbgxNKb8_10libcgroups7systemd7managerNtB5_7ManagerNtNtB9_6common13CgroupManager8add_task
FNDA:0,_RNvXs2_NtNtCs6dyzbgxNKb8_10libcgroups7systemd7managerNtB5_7ManagerNtNtB9_6common13CgroupManager12get_all_pids
FNDA:0,_RNvXs0_NtNtCs6dyzbgxNKb8_10libcgroups7systemd7managerNtB5_7ManagerNtNtCshypYLURccL2_4core3fmt5Debug3fmt
FNDA:0,_RNCNvMs1_NtNtCs6dyzbgxNKb8_10libcgroups7systemd7managerNtB7_7Manager27ensure_controllers_attacheds_0Bb_
FNDA:0,_RNvMs1_NtNtCs6dyzbgxNKb8_10libcgroups7systemd7managerNtB5_7Manager3new
FNDA:0,_RNCNvMs1_NtNtCs6dyzbgxNKb8_10libcgroups7systemd7managerNtB7_7Manager3new0Bb_
FNDA:0,_RNvXs2_NtNtCs6dyzbgxNKb8_10libcgroups7systemd7managerNtB5_7ManagerNtNtB9_6common13CgroupManager6remove
FNDA:0,_RNCNvXs2_NtNtCs6dyzbgxNKb8_10libcgroups7systemd7managerNtB7_7ManagerNtNtBb_6common13CgroupManager6remove0Bb_
FNDA:0,_RINvMs1_NtNtCs6dyzbgxNKb8_10libcgroups7systemd7managerNtB6_7Manager25get_available_controllersRNtNtCslIgaOqvXPTn_3std4path7PathBufEBa_
FNF:40
FNH:14
DA:57,0
DA:67,3
DA:68,3
DA:69,3
DA:70,3
DA:71,0
DA:72,3
DA:74,3
DA:75,3
DA:76,3
DA:77,3
DA:78,3
DA:80,3
DA:81,0
DA:82,0
DA:83,0
DA:84,0
DA:85,0
DA:86,3
DA:87,3
DA:88,3
DA:89,3
DA:90,3
DA:91,0
DA:94,3
DA:95,3
DA:99,0
DA:100,0
DA:101,0
DA:105,1
DA:106,1
DA:107,1
DA:108,1
DA:109,0
DA:111,0
DA:112,1
DA:117,0
DA:118,0
DA:119,0
DA:120,0
DA:121,0
DA:122,0
DA:123,0
DA:124,0
DA:125,0
DA:126,0
DA:130,0
DA:131,0
DA:132,0
DA:133,0
DA:134,0
DA:135,0
DA:136,0
DA:137,0
DA:138,0
DA:139,0
DA:140,0
DA:142,0
DA:143,0
DA:144,0
DA:147,0
DA:148,0
DA:149,0
DA:150,0
DA:151,0
DA:153,0
DA:154,0
DA:155,0
DA:156,0
DA:157,0
DA:158,0
DA:159,0
DA:160,0
DA:161,0
DA:162,0
DA:163,0
DA:164,0
DA:168,3
DA:169,3
DA:170,3
DA:171,3
DA:172,0
DA:173,0
DA:174,3
DA:179,3
DA:180,3
DA:181,3
DA:182,3
DA:186,3
DA:187,3
DA:188,3
DA:190,3
DA:191,3
DA:192,3
DA:193,3
DA:194,3
DA:195,3
DA:196,3
DA:201,4
DA:202,4
DA:203,4
DA:204,0
DA:205,4
DA:206,4
DA:207,0
DA:208,4
DA:209,4
DA:210,4
DA:211,4
DA:212,4
DA:213,4
DA:214,0
DA:215,4
DA:216,8
DA:217,8
DA:218,0
DA:219,8
DA:221,8
DA:222,8
DA:224,4
DA:225,4
DA:229,0
DA:230,0
DA:232,0
DA:233,0
DA:234,0
DA:235,0
DA:236,0
DA:237,0
DA:238,0
DA:240,0
DA:241,0
DA:242,0
DA:243,0
DA:244,0
DA:245,0
DA:246,0
DA:250,0
DA:251,0
DA:252,0
DA:253,0
DA:254,0
DA:255,0
DA:257,0
DA:258,0
DA:259,0
DA:260,0
DA:261,0
DA:262,0
DA:263,0
DA:264,0
DA:267,0
DA:268,0
DA:270,0
DA:271,0
DA:272,0
DA:273,0
DA:274,0
DA:275,0
DA:276,0
DA:277,0
DA:278,0
DA:279,0
DA:280,0
DA:281,0
DA:282,0
DA:283,0
DA:284,0
DA:285,0
DA:286,0
DA:287,0
DA:288,0
DA:292,0
DA:293,0
DA:295,0
DA:296,0
DA:297,0
DA:300,0
DA:301,0
DA:305,0
DA:306,0
DA:307,0
DA:308,0
DA:309,0
DA:310,0
DA:311,0
DA:312,0
DA:313,0
DA:314,0
DA:315,0
DA:316,0
DA:317,0
DA:318,0
DA:319,0
DA:320,0
DA:321,0
DA:322,0
DA:323,0
DA:324,0
DA:326,0
DA:327,0
DA:329,0
DA:330,0
DA:331,0
DA:332,0
DA:333,0
DA:334,0
DA:336,0
DA:337,0
DA:339,0
DA:343,0
DA:347,0
DA:350,0
DA:352,0
DA:356,0
DA:357,0
DA:359,0
DA:360,0
DA:361,0
DA:363,0
DA:364,0
DA:365,0
DA:366,0
DA:368,0
DA:369,0
DA:371,0
DA:372,0
DA:373,0
DA:374,0
DA:375,0
DA:376,0
DA:377,0
DA:379,0
DA:380,0
DA:382,0
DA:383,0
DA:384,0
DA:386,0
DA:387,0
DA:388,0
DA:390,0
DA:391,0
DA:392,0
DA:404,0
DA:405,0
DA:406,0
DA:408,0
DA:409,0
DA:410,0
DA:411,0
DA:412,0
DA:413,0
DA:414,0
DA:415,0
DA:416,0
DA:418,0
DA:419,0
DA:420,0
DA:422,0
DA:423,0
DA:424,0
DA:425,0
DA:426,0
DA:427,0
DA:428,0
DA:430,0
DA:431,0
DA:432,0
DA:434,3
DA:435,3
DA:436,3
DA:439,1
DA:440,1
DA:441,1
DA:442,1
DA:443,1
DA:446,1
DA:447,1
DA:449,1
DA:450,1
DA:451,1
DA:452,1
DA:453,1
DA:455,1
DA:456,1
DA:457,1
DA:460,1
DA:461,1
DA:463,1
DA:464,1
DA:465,1
DA:466,1
DA:467,1
DA:469,1
DA:470,1
DA:471,1
DA:474,1
DA:475,1
DA:477,1
DA:478,1
DA:479,1
DA:480,1
DA:481,1
DA:482,1
DA:484,1
DA:485,1
DA:486,1
DA:489,1
DA:490,1
BRF:0
BRH:0
LF:319
LH:102
end_of_record
SF:crates/libcgroups/src/systemd/memory.rs
FN:37,_RNvMs_NtNtCslEpTaKix7hR_10libcgroups7systemd6memoryNtB4_6Memory5apply
FN:90,_RNCNvMs_NtNtCslEpTaKix7hR_10libcgroups7systemd6memoryNtB6_6Memory10apply_swap0Ba_
FN:25,_RNvXNtNtCslEpTaKix7hR_10libcgroups7systemd6memoryNtB2_6MemoryNtNtB4_10controller10Controller5apply
FN:71,_RNvMs_NtNtCslEpTaKix7hR_10libcgroups7systemd6memoryNtB4_6Memory10apply_swap
FN:134,_RNCNvNtNtNtCslEpTaKix7hR_10libcgroups7systemd6memory5tests25test_set_valid_memory_max0B9_
FN:108,_RNCNvNtNtNtCslEpTaKix7hR_10libcgroups7systemd6memory5tests25test_set_valid_memory_low0B9_
FN:109,_RNvNtNtNtCslEpTaKix7hR_10libcgroups7systemd6memory5testss_25test_set_valid_memory_low
FN:135,_RNvNtNtNtCslEpTaKix7hR_10libcgroups7systemd6memory5testss_25test_set_valid_memory_max
FN:90,_RNCNvMs_NtNtCs6dyzbgxNKb8_10libcgroups7systemd6memoryNtB6_6Memory10apply_swap0Ba_
FN:71,_RNvMs_NtNtCs6dyzbgxNKb8_10libcgroups7systemd6memoryNtB4_6Memory10apply_swap
FN:37,_RNvMs_NtNtCs6dyzbgxNKb8_10libcgroups7systemd6memoryNtB4_6Memory5apply
FN:25,_RNvXNtNtCs6dyzbgxNKb8_10libcgroups7systemd6memoryNtB2_6MemoryNtNtB4_10controller10Controller5apply
FNDA:2,_RNvMs_NtNtCslEpTaKix7hR_10libcgroups7systemd6memoryNtB4_6Memory5apply
FNDA:0,_RNCNvMs_NtNtCslEpTaKix7hR_10libcgroups7systemd6memoryNtB6_6Memory10apply_swap0Ba_
FNDA:0,_RNvXNtNtCslEpTaKix7hR_10libcgroups7systemd6memoryNtB2_6MemoryNtNtB4_10controller10Controller5apply
FNDA:4,_RNvMs_NtNtCslEpTaKix7hR_10libcgroups7systemd6memoryNtB4_6Memory10apply_swap
FNDA:1,_RNCNvNtNtNtCslEpTaKix7hR_10libcgroups7systemd6memory5tests25test_set_valid_memory_max0B9_
FNDA:1,_RNCNvNtNtNtCslEpTaKix7hR_10libcgroups7systemd6memory5tests25test_set_valid_memory_low0B9_
FNDA:1,_RNvNtNtNtCslEpTaKix7hR_10libcgroups7systemd6memory5testss_25test_set_valid_memory_low
FNDA:1,_RNvNtNtNtCslEpTaKix7hR_10libcgroups7systemd6memory5testss_25test_set_valid_memory_max
FNDA:0,_RNCNvMs_NtNtCs6dyzbgxNKb8_10libcgroups7systemd6memoryNtB6_6Memory10apply_swap0Ba_
FNDA:0,_RNvMs_NtNtCs6dyzbgxNKb8_10libcgroups7systemd6memoryNtB4_6Memory10apply_swap
FNDA:0,_RNvMs_NtNtCs6dyzbgxNKb8_10libcgroups7systemd6memoryNtB4_6Memory5apply
FNDA:0,_RNvXNtNtCs6dyzbgxNKb8_10libcgroups7systemd6memoryNtB2_6MemoryNtNtB4_10controller10Controller5apply
FNF:8
FNH:6
DA:25,0
DA:26,0
DA:27,0
DA:28,0
DA:29,0
DA:30,0
DA:31,0
DA:32,0
DA:37,4
DA:38,2
DA:39,1
DA:40,1
DA:41,1
DA:42,1
DA:43,1
DA:44,1
DA:45,0
DA:47,2
DA:49,4
DA:50,2
DA:51,1
DA:52,1
DA:53,1
DA:54,1
DA:55,1
DA:56,1
DA:57,0
DA:59,2
DA:61,4
DA:62,4
DA:63,4
DA:64,4
DA:71,4
DA:72,4
DA:73,4
DA:74,4
DA:75,4
DA:76,4
DA:78,1
DA:80,0
DA:87,0
DA:88,0
DA:89,0
DA:90,0
DA:91,0
DA:92,0
DA:93,3
DA:96,1
DA:97,1
DA:98,4
DA:108,1
DA:109,1
DA:110,1
DA:112,3
DA:114,2
DA:115,2
DA:116,2
DA:117,2
DA:118,2
DA:119,2
DA:120,2
DA:121,2
DA:124,2
DA:125,2
DA:126,2
DA:127,2
DA:128,2
DA:131,1
DA:132,1
DA:134,1
DA:135,1
DA:136,1
DA:138,3
DA:140,2
DA:141,2
DA:142,2
DA:143,2
DA:144,2
DA:145,2
DA:146,2
DA:147,2
DA:150,2
DA:151,2
DA:152,2
DA:153,2
DA:154,2
DA:157,1
DA:158,1
BRF:0
BRH:0
LF:89
LH:71
end_of_record
SF:crates/libcgroups/src/systemd/mod.rs
FN:16,_RNCNvNtCs6dyzbgxNKb8_10libcgroups7systemd6booted0B5_
FN:14,_RNvNtCs6dyzbgxNKb8_10libcgroups7systemd6booted
FNDA:0,_RNCNvNtCs6dyzbgxNKb8_10libcgroups7systemd6booted0B5_
FNDA:0,_RNvNtCs6dyzbgxNKb8_10libcgroups7systemd6booted
FNF:2
FNH:0
DA:14,0
DA:15,0
DA:16,0
DA:17,0
DA:18,0
BRF:0
BRH:0
LF:6
LH:0
end_of_record
SF:crates/libcgroups/src/systemd/pids.rs
FN:99,_RNCNvNtNtNtCslEpTaKix7hR_10libcgroups7systemd4pids5tests24test_pids_negative_limit0B9_
FN:49,_RNvNtNtNtCslEpTaKix7hR_10libcgroups7systemd4pids5tests5setup
FN:62,_RNvNtNtNtCslEpTaKix7hR_10libcgroups7systemd4pids5testss_24test_pids_positive_limit
FN:61,_RNCNvNtNtNtCslEpTaKix7hR_10libcgroups7systemd4pids5tests24test_pids_positive_limit0B9_
FN:81,_RNvNtNtNtCslEpTaKix7hR_10libcgroups7systemd4pids5testss_20test_pids_zero_limit
FN:80,_RNCNvNtNtNtCslEpTaKix7hR_10libcgroups7systemd4pids5tests20test_pids_zero_limit0B9_
FN:100,_RNvNtNtNtCslEpTaKix7hR_10libcgroups7systemd4pids5testss_24test_pids_negative_limit
FN:21,_RNvXNtNtCslEpTaKix7hR_10libcgroups7systemd4pidsNtB2_4PidsNtNtB4_10controller10Controller5apply
FN:31,_RNvMs_NtNtCslEpTaKix7hR_10libcgroups7systemd4pidsNtB4_4Pids5apply
FN:21,_RNvXNtNtCs6dyzbgxNKb8_10libcgroups7systemd4pidsNtB2_4PidsNtNtB4_10controller10Controller5apply
FN:31,_RNvMs_NtNtCs6dyzbgxNKb8_10libcgroups7systemd4pidsNtB4_4Pids5apply
FNDA:1,_RNCNvNtNtNtCslEpTaKix7hR_10libcgroups7systemd4pids5tests24test_pids_negative_limit0B9_
FNDA:3,_RNvNtNtNtCslEpTaKix7hR_10libcgroups7systemd4pids5tests5setup
FNDA:1,_RNvNtNtNtCslEpTaKix7hR_10libcgroups7systemd4pids5testss_24test_pids_positive_limit
FNDA:1,_RNCNvNtNtNtCslEpTaKix7hR_10libcgroups7systemd4pids5tests24test_pids_positive_limit0B9_
FNDA:1,_RNvNtNtNtCslEpTaKix7hR_10libcgroups7systemd4pids5testss_20test_pids_zero_limit
FNDA:1,_RNCNvNtNtNtCslEpTaKix7hR_10libcgroups7systemd4pids5tests20test_pids_zero_limit0B9_
FNDA:1,_RNvNtNtNtCslEpTaKix7hR_10libcgroups7systemd4pids5testss_24test_pids_negative_limit
FNDA:3,_RNvXNtNtCslEpTaKix7hR_10libcgroups7systemd4pidsNtB2_4PidsNtNtB4_10controller10Controller5apply
FNDA:3,_RNvMs_NtNtCslEpTaKix7hR_10libcgroups7systemd4pidsNtB4_4Pids5apply
FNDA:0,_RNvXNtNtCs6dyzbgxNKb8_10libcgroups7systemd4pidsNtB2_4PidsNtNtB4_10controller10Controller5apply
FNDA:0,_RNvMs_NtNtCs6dyzbgxNKb8_10libcgroups7systemd4pidsNtB4_4Pids5apply
FNF:9
FNH:9
DA:21,3
DA:22,3
DA:23,3
DA:24,0
DA:25,0
DA:26,0
DA:27,3
DA:31,3
DA:32,3
DA:33,1
DA:35,2
DA:38,3
DA:39,3
DA:40,3
DA:49,3
DA:50,3
DA:51,3
DA:52,3
DA:53,3
DA:54,3
DA:55,3
DA:56,3
DA:57,3
DA:58,3
DA:59,3
DA:61,1
DA:62,1
DA:63,1
DA:64,1
DA:65,1
DA:66,1
DA:67,1
DA:68,1
DA:70,1
DA:71,1
DA:73,1
DA:74,1
DA:75,1
DA:77,1
DA:78,1
DA:80,1
DA:81,1
DA:82,1
DA:83,1
DA:84,1
DA:85,1
DA:86,1
DA:87,1
DA:89,1
DA:90,1
DA:92,1
DA:93,1
DA:94,1
DA:96,1
DA:97,1
DA:99,1
DA:100,1
DA:101,1
DA:102,1
DA:103,1
DA:104,1
DA:105,1
DA:106,1
DA:108,1
DA:109,1
DA:111,1
DA:112,1
DA:113,1
DA:115,1
DA:116,1
BRF:0
BRH:0
LF:70
LH:67
end_of_record
SF:crates/libcgroups/src/systemd/unified.rs
FN:72,_RNCNvMs_NtNtCslEpTaKix7hR_10libcgroups7systemd7unifiedNtB6_7Unified5applys1_0Ba_
FN:32,_RNvMs_NtNtCslEpTaKix7hR_10libcgroups7systemd7unifiedNtB4_7Unified5apply
FN:85,_RNCNvMs_NtNtCslEpTaKix7hR_10libcgroups7systemd7unifiedNtB6_7Unified5applys2_0Ba_
FN:21,_RNvXNtNtCslEpTaKix7hR_10libcgroups7systemd7unifiedNtB2_7UnifiedNtNtB4_10controller10Controller5apply
FN:42,_RNCNvMs_NtNtCslEpTaKix7hR_10libcgroups7systemd7unifiedNtB6_7Unified5apply0Ba_
FN:53,_RNCNvMs_NtNtCslEpTaKix7hR_10libcgroups7systemd7unifiedNtB6_7Unified5applys_0Ba_
FN:57,_RNCNvMs_NtNtCslEpTaKix7hR_10libcgroups7systemd7unifiedNtB6_7Unified5applys0_0Ba_
FN:194,_RNCNvNtNtNtCslEpTaKix7hR_10libcgroups7systemd7unified5testss_23test_cpu_max_quota_only0B9_
FN:164,_RNCNvNtNtNtCslEpTaKix7hR_10libcgroups7systemd7unified5tests29test_cpu_max_quota_and_period0B9_
FN:128,_RNCNvNtNtNtCslEpTaKix7hR_10libcgroups7systemd7unified5testss_8test_set0B9_
FN:190,_RNvNtNtNtCslEpTaKix7hR_10libcgroups7systemd7unified5testss_23test_cpu_max_quota_only
FN:189,_RNCNvNtNtNtCslEpTaKix7hR_10libcgroups7systemd7unified5tests23test_cpu_max_quota_only0B9_
FN:169,_RNCNvNtNtNtCslEpTaKix7hR_10libcgroups7systemd7unified5testss_29test_cpu_max_quota_and_period0B9_
FN:165,_RNvNtNtNtCslEpTaKix7hR_10libcgroups7systemd7unified5testss_29test_cpu_max_quota_and_period
FN:114,_RNCNvNtNtNtCslEpTaKix7hR_10libcgroups7systemd7unified5tests8test_set0B9_
FN:115,_RNvNtNtNtCslEpTaKix7hR_10libcgroups7systemd7unified5testss_8test_set
FN:42,_RNCNvMs_NtNtCs6dyzbgxNKb8_10libcgroups7systemd7unifiedNtB6_7Unified5apply0Ba_
FN:53,_RNCNvMs_NtNtCs6dyzbgxNKb8_10libcgroups7systemd7unifiedNtB6_7Unified5applys_0Ba_
FN:32,_RNvMs_NtNtCs6dyzbgxNKb8_10libcgroups7systemd7unifiedNtB4_7Unified5apply
FN:57,_RNCNvMs_NtNtCs6dyzbgxNKb8_10libcgroups7systemd7unifiedNtB6_7Unified5applys0_0Ba_
FN:85,_RNCNvMs_NtNtCs6dyzbgxNKb8_10libcgroups7systemd7unifiedNtB6_7Unified5applys2_0Ba_
FN:72,_RNCNvMs_NtNtCs6dyzbgxNKb8_10libcgroups7systemd7unifiedNtB6_7Unified5applys1_0Ba_
FN:21,_RNvXNtNtCs6dyzbgxNKb8_10libcgroups7systemd7unifiedNtB2_7UnifiedNtNtB4_10controller10Controller5apply
FNDA:0,_RNCNvMs_NtNtCslEpTaKix7hR_10libcgroups7systemd7unifiedNtB6_7Unified5applys1_0Ba_
FNDA:3,_RNvMs_NtNtCslEpTaKix7hR_10libcgroups7systemd7unifiedNtB4_7Unified5apply
FNDA:0,_RNCNvMs_NtNtCslEpTaKix7hR_10libcgroups7systemd7unifiedNtB6_7Unified5applys2_0Ba_
FNDA:0,_RNvXNtNtCslEpTaKix7hR_10libcgroups7systemd7unifiedNtB2_7UnifiedNtNtB4_10controller10Controller5apply
FNDA:0,_RNCNvMs_NtNtCslEpTaKix7hR_10libcgroups7systemd7unifiedNtB6_7Unified5apply0Ba_
FNDA:0,_RNCNvMs_NtNtCslEpTaKix7hR_10libcgroups7systemd7unifiedNtB6_7Unified5applys_0Ba_
FNDA:0,_RNCNvMs_NtNtCslEpTaKix7hR_10libcgroups7systemd7unifiedNtB6_7Unified5applys0_0Ba_
FNDA:1,_RNCNvNtNtNtCslEpTaKix7hR_10libcgroups7systemd7unified5testss_23test_cpu_max_quota_only0B9_
FNDA:1,_RNCNvNtNtNtCslEpTaKix7hR_10libcgroups7systemd7unified5tests29test_cpu_max_quota_and_period0B9_
FNDA:8,_RNCNvNtNtNtCslEpTaKix7hR_10libcgroups7systemd7unified5testss_8test_set0B9_
FNDA:1,_RNvNtNtNtCslEpTaKix7hR_10libcgroups7systemd7unified5testss_23test_cpu_max_quota_only
FNDA:1,_RNCNvNtNtNtCslEpTaKix7hR_10libcgroups7systemd7unified5tests23test_cpu_max_quota_only0B9_
FNDA:1,_RNCNvNtNtNtCslEpTaKix7hR_10libcgroups7systemd7unified5testss_29test_cpu_max_quota_and_period0B9_
FNDA:1,_RNvNtNtNtCslEpTaKix7hR_10libcgroups7systemd7unified5testss_29test_cpu_max_quota_and_period
FNDA:1,_RNCNvNtNtNtCslEpTaKix7hR_10libcgroups7systemd7unified5tests8test_set0B9_
FNDA:1,_RNvNtNtNtCslEpTaKix7hR_10libcgroups7systemd7unified5testss_8test_set
FNDA:0,_RNCNvMs_NtNtCs6dyzbgxNKb8_10libcgroups7systemd7unifiedNtB6_7Unified5apply0Ba_
FNDA:0,_RNCNvMs_NtNtCs6dyzbgxNKb8_10libcgroups7systemd7unifiedNtB6_7Unified5applys_0Ba_
FNDA:0,_RNvMs_NtNtCs6dyzbgxNKb8_10libcgroups7systemd7unifiedNtB4_7Unified5apply
FNDA:0,_RNCNvMs_NtNtCs6dyzbgxNKb8_10libcgroups7systemd7unifiedNtB6_7Unified5applys0_0Ba_
FNDA:0,_RNCNvMs_NtNtCs6dyzbgxNKb8_10libcgroups7systemd7unifiedNtB6_7Unified5applys2_0Ba_
FNDA:0,_RNCNvMs_NtNtCs6dyzbgxNKb8_10libcgroups7systemd7unifiedNtB6_7Unified5applys1_0Ba_
FNDA:0,_RNvXNtNtCs6dyzbgxNKb8_10libcgroups7systemd7unifiedNtB2_7UnifiedNtNtB4_10controller10Controller5apply
FNF:16
FNH:10
DA:21,0
DA:22,0
DA:23,0
DA:24,0
DA:25,0
DA:27,0
DA:28,0
DA:32,3
DA:33,3
DA:34,3
DA:35,3
DA:36,3
DA:37,13
DA:38,10
DA:39,10
DA:40,1
DA:41,1
DA:42,1
DA:43,1
DA:45,9
DA:46,2
DA:47,2
DA:48,0
DA:49,2
DA:51,2
DA:52,2
DA:53,2
DA:54,2
DA:55,2
DA:56,2
DA:57,1
DA:58,0
DA:59,1
DA:60,1
DA:61,1
DA:63,7
DA:64,2
DA:65,0
DA:66,0
DA:67,0
DA:68,0
DA:69,2
DA:71,2
DA:72,2
DA:74,2
DA:75,2
DA:76,1
DA:77,0
DA:80,2
DA:82,5
DA:83,4
DA:84,4
DA:85,4
DA:86,4
DA:87,4
DA:88,3
DA:89,2
DA:90,1
DA:91,0
DA:93,4
DA:95,1
DA:96,1
DA:97,1
DA:100,0
DA:104,3
DA:105,3
DA:114,1
DA:115,1
DA:116,1
DA:117,1
DA:118,1
DA:119,1
DA:120,1
DA:121,1
DA:122,1
DA:123,1
DA:124,1
DA:125,1
DA:126,1
DA:127,1
DA:128,8
DA:129,1
DA:130,1
DA:131,1
DA:132,1
DA:133,1
DA:134,1
DA:135,1
DA:136,1
DA:137,1
DA:138,1
DA:139,1
DA:140,1
DA:141,1
DA:142,1
DA:143,1
DA:146,9
DA:147,8
DA:148,8
DA:149,8
DA:151,6
DA:153,2
DA:154,2
DA:155,2
DA:156,2
DA:157,0
DA:161,1
DA:162,1
DA:164,1
DA:165,1
DA:166,1
DA:167,1
DA:168,1
DA:169,1
DA:170,1
DA:171,1
DA:172,1
DA:173,1
DA:174,1
DA:177,1
DA:178,1
DA:180,1
DA:181,1
DA:183,1
DA:184,1
DA:186,1
DA:187,1
DA:189,1
DA:190,1
DA:191,1
DA:192,1
DA:193,1
DA:194,1
DA:195,1
DA:196,1
DA:197,1
DA:198,1
DA:199,1
DA:202,1
DA:203,1
DA:205,1
DA:206,1
DA:208,1
DA:209,1
BRF:0
BRH:0
LF:153
LH:130
end_of_record
SF:crates/libcgroups/src/test.rs
FN:69,_RNvNtCslEpTaKix7hR_10libcgroups4test11set_fixture
FN:64,_RNCNvNtCslEpTaKix7hR_10libcgroups4test5setup0B5_
FN:77,_RNCNvNtCslEpTaKix7hR_10libcgroups4test11set_fixture0B5_
FN:16,_RINvMNtCslEpTaKix7hR_10libcgroups4testNtB3_7TempDir3newNtNtCslIgaOqvXPTn_3std4path7PathBufEB5_
FN:37,_RNvXs_NtCslEpTaKix7hR_10libcgroups4testNtB4_7TempDirNtNtNtCshypYLURccL2_4core3ops4drop4Drop4drop
FN:43,_RNvXs0_NtCslEpTaKix7hR_10libcgroups4testNtB5_7TempDirINtNtCshypYLURccL2_4core7convert5AsRefNtNtCslIgaOqvXPTn_3std4path4PathE6as_ref
FN:29,_RNvMNtCslEpTaKix7hR_10libcgroups4testNtB2_7TempDir6remove
FN:22,_RNvMNtCslEpTaKix7hR_10libcgroups4testNtB2_7TempDir4path
FN:51,_RNvXs1_NtCslEpTaKix7hR_10libcgroups4testNtB5_7TempDirNtNtNtCshypYLURccL2_4core3ops5deref5Deref5deref
FN:61,_RNvNtCslEpTaKix7hR_10libcgroups4test5setup
FN:79,_RNCNvNtCslEpTaKix7hR_10libcgroups4test11set_fixtures_0B5_
FN:56,_RNvNtCslEpTaKix7hR_10libcgroups4test15create_temp_dir
FNDA:11415,_RNvNtCslEpTaKix7hR_10libcgroups4test11set_fixture
FNDA:0,_RNCNvNtCslEpTaKix7hR_10libcgroups4test5setup0B5_
FNDA:0,_RNCNvNtCslEpTaKix7hR_10libcgroups4test11set_fixture0B5_
FNDA:686,_RINvMNtCslEpTaKix7hR_10libcgroups4testNtB3_7TempDir3newNtNtCslIgaOqvXPTn_3std4path7PathBufEB5_
FNDA:686,_RNvXs_NtCslEpTaKix7hR_10libcgroups4testNtB4_7TempDirNtNtNtCshypYLURccL2_4core3ops4drop4Drop4drop
FNDA:0,_RNvXs0_NtCslEpTaKix7hR_10libcgroups4testNtB5_7TempDirINtNtCshypYLURccL2_4core7convert5AsRefNtNtCslIgaOqvXPTn_3std4path4PathE6as_ref
FNDA:686,_RNvMNtCslEpTaKix7hR_10libcgroups4testNtB2_7TempDir6remove
FNDA:22161,_RNvMNtCslEpTaKix7hR_10libcgroups4testNtB2_7TempDir4path
FNDA:22164,_RNvXs1_NtCslEpTaKix7hR_10libcgroups4testNtB5_7TempDirNtNtNtCshypYLURccL2_4core3ops5deref5Deref5deref
FNDA:29,_RNvNtCslEpTaKix7hR_10libcgroups4test5setup
FNDA:0,_RNCNvNtCslEpTaKix7hR_10libcgroups4test11set_fixtures_0B5_
FNDA:685,_RNvNtCslEpTaKix7hR_10libcgroups4test15create_temp_dir
FNF:12
FNH:8
DA:16,686
DA:17,686
DA:18,686
DA:19,686
DA:20,686
DA:22,22161
DA:23,22161
DA:24,22161
DA:25,22161
DA:26,22161
DA:29,686
DA:30,686
DA:31,686
DA:32,686
DA:33,686
DA:37,686
DA:38,686
DA:39,686
DA:43,0
DA:44,0
DA:45,0
DA:51,22164
DA:52,22164
DA:53,22164
DA:56,685
DA:57,685
DA:58,685
DA:59,685
DA:61,29
DA:62,29
DA:63,29
DA:64,29
DA:65,29
DA:66,29
DA:67,29
DA:69,11415
DA:70,11415
DA:71,11415
DA:72,11415
DA:73,11415
DA:74,11415
DA:75,11415
DA:76,11415
DA:77,11415
DA:78,11415
DA:79,11415
DA:81,11416
DA:82,11416
BRF:0
BRH:0
LF:51
LH:45
end_of_record
SF:crates/libcgroups/src/test_manager.rs
FN:38,_RNvXs_NtCs6dyzbgxNKb8_10libcgroups12test_managerNtB4_11TestManagerNtNtB6_6common13CgroupManager6remove
FN:42,_RNvXs_NtCs6dyzbgxNKb8_10libcgroups12test_managerNtB4_11TestManagerNtNtB6_6common13CgroupManager6freeze
FN:18,_RNvXNtCs6dyzbgxNKb8_10libcgroups12test_managerNtB2_11TestManagerNtNtCshypYLURccL2_4core7default7Default7default
FN:33,_RNvXs_NtCs6dyzbgxNKb8_10libcgroups12test_managerNtB4_11TestManagerNtNtB6_6common13CgroupManager5apply
FN:11,_RNvXs1_NtCs6dyzbgxNKb8_10libcgroups12test_managerNtB5_11TestManagerNtNtCshypYLURccL2_4core3fmt5Debug3fmt
FN:60,_RNvMs0_NtCs6dyzbgxNKb8_10libcgroups12test_managerNtB5_11TestManager12apply_called
FN:50,_RNvXs_NtCs6dyzbgxNKb8_10libcgroups12test_managerNtB4_11TestManagerNtNtB6_6common13CgroupManager12get_all_pids
FN:46,_RNvXs_NtCs6dyzbgxNKb8_10libcgroups12test_managerNtB4_11TestManagerNtNtB6_6common13CgroupManager5stats
FN:27,_RNvXs_NtCs6dyzbgxNKb8_10libcgroups12test_managerNtB4_11TestManagerNtNtB6_6common13CgroupManager8add_task
FN:56,_RNvMs0_NtCs6dyzbgxNKb8_10libcgroups12test_managerNtB5_11TestManager17get_add_task_args
FNDA:0,_RNvXs_NtCs6dyzbgxNKb8_10libcgroups12test_managerNtB4_11TestManagerNtNtB6_6common13CgroupManager6remove
FNDA:0,_RNvXs_NtCs6dyzbgxNKb8_10libcgroups12test_managerNtB4_11TestManagerNtNtB6_6common13CgroupManager6freeze
FNDA:33,_RNvXNtCs6dyzbgxNKb8_10libcgroups12test_managerNtB2_11TestManagerNtNtCshypYLURccL2_4core7default7Default7default
FNDA:11,_RNvXs_NtCs6dyzbgxNKb8_10libcgroups12test_managerNtB4_11TestManagerNtNtB6_6common13CgroupManager5apply
FNDA:0,_RNvXs1_NtCs6dyzbgxNKb8_10libcgroups12test_managerNtB5_11TestManagerNtNtCshypYLURccL2_4core3fmt5Debug3fmt
FNDA:33,_RNvMs0_NtCs6dyzbgxNKb8_10libcgroups12test_managerNtB5_11TestManager12apply_called
FNDA:0,_RNvXs_NtCs6dyzbgxNKb8_10libcgroups12test_managerNtB4_11TestManagerNtNtB6_6common13CgroupManager12get_all_pids
FNDA:0,_RNvXs_NtCs6dyzbgxNKb8_10libcgroups12test_managerNtB4_11TestManagerNtNtB6_6common13CgroupManager5stats
FNDA:33,_RNvXs_NtCs6dyzbgxNKb8_10libcgroups12test_managerNtB4_11TestManagerNtNtB6_6common13CgroupManager8add_task
FNDA:44,_RNvMs0_NtCs6dyzbgxNKb8_10libcgroups12test_managerNtB5_11TestManager17get_add_task_args
FNF:10
FNH:5
DA:11,0
DA:18,33
DA:19,33
DA:20,33
DA:21,33
DA:22,33
DA:23,33
DA:27,33
DA:28,33
DA:29,33
DA:30,33
DA:33,11
DA:34,11
DA:35,11
DA:36,11
DA:38,0
DA:39,0
DA:40,0
DA:42,0
DA:43,0
DA:44,0
DA:46,0
DA:47,0
DA:48,0
DA:50,0
DA:51,0
DA:52,0
DA:56,44
DA:57,44
DA:58,44
DA:60,33
DA:61,33
DA:62,33
BRF:0
BRH:0
LF:33
LH:20
end_of_record
SF:crates/libcgroups/src/v1/blkio.rs
FN:162,_RNvMs0_NtNtCslEpTaKix7hR_10libcgroups2v15blkioNtB5_5Blkio27get_throttling_policy_stats
FN:110,_RNvMs0_NtNtCslEpTaKix7hR_10libcgroups2v15blkioNtB5_5Blkio5apply
FN:174,_RNvMs0_NtNtCslEpTaKix7hR_10libcgroups2v15blkioNtB5_5Blkio32get_weight_division_policy_stats
FN:189,_RNvMs0_NtNtCslEpTaKix7hR_10libcgroups2v15blkioNtB5_5Blkio16parse_blkio_file
FN:213,_RNCNvMs0_NtNtCslEpTaKix7hR_10libcgroups2v15blkioNtB7_5Blkio16parse_blkio_files_0Bb_
FN:99,_RNvXs_NtNtCslEpTaKix7hR_10libcgroups2v15blkioNtB4_5BlkioNtNtB8_5stats13StatsProvider5stats
FN:91,_RNvXNtNtCslEpTaKix7hR_10libcgroups2v15blkioNtB2_5BlkioNtNtB4_10controller10Controller15needs_to_handle
FN:205,_RNCNvMs0_NtNtCslEpTaKix7hR_10libcgroups2v15blkioNtB7_5Blkio16parse_blkio_file0Bb_
FN:81,_RNvXNtNtCslEpTaKix7hR_10libcgroups2v15blkioNtB2_5BlkioNtNtB4_10controller10Controller5apply
FN:345,_RNCNvNtNtNtCslEpTaKix7hR_10libcgroups2v15blkio5tests27test_stat_throttling_policy0B9_
FN:247,_RNvNtNtNtCslEpTaKix7hR_10libcgroups2v15blkio5testss_21test_set_blkio_weight
FN:262,_RNvNtNtNtCslEpTaKix7hR_10libcgroups2v15blkio5testss_23test_set_blkio_read_bps
FN:340,_RNCNvNtNtNtCslEpTaKix7hR_10libcgroups2v15blkio5testss_25test_set_blkio_write_iops0B9_
FN:346,_RNvNtNtNtCslEpTaKix7hR_10libcgroups2v15blkio5testss_27test_stat_throttling_policy
FN:282,_RNCNvNtNtNtCslEpTaKix7hR_10libcgroups2v15blkio5tests24test_set_blkio_write_bps0B9_
FN:366,_RNCNvNtNtNtCslEpTaKix7hR_10libcgroups2v15blkio5testss_27test_stat_throttling_policy0B9_
FN:325,_RNvNtNtNtCslEpTaKix7hR_10libcgroups2v15blkio5testss_25test_set_blkio_write_iops
FN:277,_RNCNvNtNtNtCslEpTaKix7hR_10libcgroups2v15blkio5testss_23test_set_blkio_read_bps0B9_
FN:283,_RNvNtNtNtCslEpTaKix7hR_10libcgroups2v15blkio5testss_24test_set_blkio_write_bps
FN:304,_RNvNtNtNtCslEpTaKix7hR_10libcgroups2v15blkio5testss_24test_set_blkio_read_iops
FN:303,_RNCNvNtNtNtCslEpTaKix7hR_10libcgroups2v15blkio5tests24test_set_blkio_read_iops0B9_
FN:324,_RNCNvNtNtNtCslEpTaKix7hR_10libcgroups2v15blkio5tests25test_set_blkio_write_iops0B9_
FN:319,_RNCNvNtNtNtCslEpTaKix7hR_10libcgroups2v15blkio5testss_24test_set_blkio_read_iops0B9_
FN:298,_RNCNvNtNtNtCslEpTaKix7hR_10libcgroups2v15blkio5testss_24test_set_blkio_write_bps0B9_
FN:246,_RNCNvNtNtNtCslEpTaKix7hR_10libcgroups2v15blkio5tests21test_set_blkio_weight0B9_
FN:261,_RNCNvNtNtNtCslEpTaKix7hR_10libcgroups2v15blkio5tests23test_set_blkio_read_bps0B9_
FN:99,_RNvXs_NtNtCs6dyzbgxNKb8_10libcgroups2v15blkioNtB4_5BlkioNtNtB8_5stats13StatsProvider5stats
FN:174,_RNvMs0_NtNtCs6dyzbgxNKb8_10libcgroups2v15blkioNtB5_5Blkio32get_weight_division_policy_stats
FN:91,_RNvXNtNtCs6dyzbgxNKb8_10libcgroups2v15blkioNtB2_5BlkioNtNtB4_10controller10Controller15needs_to_handle
FN:110,_RNvMs0_NtNtCs6dyzbgxNKb8_10libcgroups2v15blkioNtB5_5Blkio5apply
FN:81,_RNvXNtNtCs6dyzbgxNKb8_10libcgroups2v15blkioNtB2_5BlkioNtNtB4_10controller10Controller5apply
FN:205,_RNCNvMs0_NtNtCs6dyzbgxNKb8_10libcgroups2v15blkioNtB7_5Blkio16parse_blkio_file0Bb_
FN:162,_RNvMs0_NtNtCs6dyzbgxNKb8_10libcgroups2v15blkioNtB5_5Blkio27get_throttling_policy_stats
FN:189,_RNvMs0_NtNtCs6dyzbgxNKb8_10libcgroups2v15blkioNtB5_5Blkio16parse_blkio_file
FN:213,_RNCNvMs0_NtNtCs6dyzbgxNKb8_10libcgroups2v15blkioNtB7_5Blkio16parse_blkio_files_0Bb_
FNDA:1,_RNvMs0_NtNtCslEpTaKix7hR_10libcgroups2v15blkioNtB5_5Blkio27get_throttling_policy_stats
FNDA:2,_RNvMs0_NtNtCslEpTaKix7hR_10libcgroups2v15blkioNtB5_5Blkio5apply
FNDA:0,_RNvMs0_NtNtCslEpTaKix7hR_10libcgroups2v15blkioNtB5_5Blkio32get_weight_division_policy_stats
FNDA:2,_RNvMs0_NtNtCslEpTaKix7hR_10libcgroups2v15blkioNtB5_5Blkio16parse_blkio_file
FNDA:0,_RNCNvMs0_NtNtCslEpTaKix7hR_10libcgroups2v15blkioNtB7_5Blkio16parse_blkio_files_0Bb_
FNDA:1,_RNvXs_NtNtCslEpTaKix7hR_10libcgroups2v15blkioNtB4_5BlkioNtNtB8_5stats13StatsProvider5stats
FNDA:0,_RNvXNtNtCslEpTaKix7hR_10libcgroups2v15blkioNtB2_5BlkioNtNtB4_10controller10Controller15needs_to_handle
FNDA:0,_RNCNvMs0_NtNtCslEpTaKix7hR_10libcgroups2v15blkioNtB7_5Blkio16parse_blkio_file0Bb_
FNDA:0,_RNvXNtNtCslEpTaKix7hR_10libcgroups2v15blkioNtB2_5BlkioNtNtB4_10controller10Controller5apply
FNDA:1,_RNCNvNtNtNtCslEpTaKix7hR_10libcgroups2v15blkio5tests27test_stat_throttling_policy0B9_
FNDA:1,_RNvNtNtNtCslEpTaKix7hR_10libcgroups2v15blkio5testss_21test_set_blkio_weight
FNDA:1,_RNvNtNtNtCslEpTaKix7hR_10libcgroups2v15blkio5testss_23test_set_blkio_read_bps
FNDA:0,_RNCNvNtNtNtCslEpTaKix7hR_10libcgroups2v15blkio5testss_25test_set_blkio_write_iops0B9_
FNDA:1,_RNvNtNtNtCslEpTaKix7hR_10libcgroups2v15blkio5testss_27test_stat_throttling_policy
FNDA:1,_RNCNvNtNtNtCslEpTaKix7hR_10libcgroups2v15blkio5tests24test_set_blkio_write_bps0B9_
FNDA:6,_RNCNvNtNtNtCslEpTaKix7hR_10libcgroups2v15blkio5testss_27test_stat_throttling_policy0B9_
FNDA:1,_RNvNtNtNtCslEpTaKix7hR_10libcgroups2v15blkio5testss_25test_set_blkio_write_iops
FNDA:0,_RNCNvNtNtNtCslEpTaKix7hR_10libcgroups2v15blkio5testss_23test_set_blkio_read_bps0B9_
FNDA:1,_RNvNtNtNtCslEpTaKix7hR_10libcgroups2v15blkio5testss_24test_set_blkio_write_bps
FNDA:1,_RNvNtNtNtCslEpTaKix7hR_10libcgroups2v15blkio5testss_24test_set_blkio_read_iops
FNDA:1,_RNCNvNtNtNtCslEpTaKix7hR_10libcgroups2v15blkio5tests24test_set_blkio_read_iops0B9_
FNDA:1,_RNCNvNtNtNtCslEpTaKix7hR_10libcgroups2v15blkio5tests25test_set_blkio_write_iops0B9_
FNDA:0,_RNCNvNtNtNtCslEpTaKix7hR_10libcgroups2v15blkio5testss_24test_set_blkio_read_iops0B9_
FNDA:0,_RNCNvNtNtNtCslEpTaKix7hR_10libcgroups2v15blkio5testss_24test_set_blkio_write_bps0B9_
FNDA:1,_RNCNvNtNtNtCslEpTaKix7hR_10libcgroups2v15blkio5tests21test_set_blkio_weight0B9_
FNDA:1,_RNCNvNtNtNtCslEpTaKix7hR_10libcgroups2v15blkio5tests23test_set_blkio_read_bps0B9_
FNDA:0,_RNvXs_NtNtCs6dyzbgxNKb8_10libcgroups2v15blkioNtB4_5BlkioNtNtB8_5stats13StatsProvider5stats
FNDA:0,_RNvMs0_NtNtCs6dyzbgxNKb8_10libcgroups2v15blkioNtB5_5Blkio32get_weight_division_policy_stats
FNDA:0,_RNvXNtNtCs6dyzbgxNKb8_10libcgroups2v15blkioNtB2_5BlkioNtNtB4_10controller10Controller15needs_to_handle
FNDA:0,_RNvMs0_NtNtCs6dyzbgxNKb8_10libcgroups2v15blkioNtB5_5Blkio5apply
FNDA:0,_RNvXNtNtCs6dyzbgxNKb8_10libcgroups2v15blkioNtB2_5BlkioNtNtB4_10controller10Controller5apply
FNDA:0,_RNCNvMs0_NtNtCs6dyzbgxNKb8_10libcgroups2v15blkioNtB7_5Blkio16parse_blkio_file0Bb_
FNDA:0,_RNvMs0_NtNtCs6dyzbgxNKb8_10libcgroups2v15blkioNtB5_5Blkio27get_throttling_policy_stats
FNDA:0,_RNvMs0_NtNtCs6dyzbgxNKb8_10libcgroups2v15blkioNtB5_5Blkio16parse_blkio_file
FNDA:0,_RNCNvMs0_NtNtCs6dyzbgxNKb8_10libcgroups2v15blkioNtB7_5Blkio16parse_blkio_files_0Bb_
FNF:26
FNH:17
DA:81,0
DA:82,0
DA:84,0
DA:85,0
DA:86,0
DA:88,0
DA:89,0
DA:91,0
DA:92,0
DA:93,0
DA:99,1
DA:100,1
DA:101,0
DA:102,1
DA:103,1
DA:104,1
DA:105,1
DA:110,6
DA:113,2
DA:114,2
DA:115,2
DA:116,1
DA:118,1
DA:120,0
DA:121,4
DA:123,6
DA:124,1
DA:125,1
DA:126,1
DA:127,1
DA:128,1
DA:130,5
DA:132,6
DA:133,1
DA:134,1
DA:135,1
DA:136,1
DA:137,1
DA:139,5
DA:141,6
DA:142,1
DA:143,1
DA:144,1
DA:145,1
DA:146,1
DA:148,5
DA:150,6
DA:151,1
DA:152,1
DA:153,1
DA:154,1
DA:155,1
DA:157,5
DA:159,6
DA:160,6
DA:162,1
DA:163,1
DA:164,1
DA:165,1
DA:166,1
DA:167,1
DA:168,1
DA:169,1
DA:170,1
DA:171,1
DA:172,1
DA:174,0
DA:175,0
DA:176,0
DA:177,0
DA:178,0
DA:179,0
DA:180,0
DA:181,0
DA:182,0
DA:183,0
DA:186,0
DA:187,0
DA:189,2
DA:190,2
DA:191,2
DA:192,14
DA:193,14
DA:194,14
DA:195,2
DA:196,12
DA:198,12
DA:199,12
DA:200,12
DA:202,0
DA:204,12
DA:205,12
DA:206,0
DA:207,0
DA:208,0
DA:209,0
DA:210,0
DA:211,12
DA:213,0
DA:214,0
DA:215,0
DA:216,0
DA:217,0
DA:218,0
DA:219,0
DA:222,12
DA:223,12
DA:224,12
DA:225,12
DA:226,12
DA:227,12
DA:228,12
DA:229,12
DA:232,2
DA:233,2
DA:246,1
DA:247,1
DA:248,2
DA:249,2
DA:250,2
DA:251,2
DA:252,2
DA:253,2
DA:254,2
DA:255,2
DA:256,2
DA:257,2
DA:259,1
DA:261,1
DA:262,1
DA:263,1
DA:264,1
DA:265,1
DA:266,1
DA:267,1
DA:268,1
DA:269,1
DA:270,1
DA:271,1
DA:272,1
DA:273,1
DA:274,1
DA:275,1
DA:276,1
DA:277,1
DA:278,1
DA:279,1
DA:280,1
DA:282,1
DA:283,1
DA:284,1
DA:285,1
DA:286,1
DA:287,1
DA:288,1
DA:289,1
DA:290,1
DA:291,1
DA:292,1
DA:293,1
DA:294,1
DA:295,1
DA:296,1
DA:297,1
DA:298,1
DA:299,1
DA:300,1
DA:301,1
DA:303,1
DA:304,1
DA:305,1
DA:306,1
DA:307,1
DA:308,1
DA:309,1
DA:310,1
DA:311,1
DA:312,1
DA:313,1
DA:314,1
DA:315,1
DA:316,1
DA:317,1
DA:318,1
DA:319,1
DA:320,1
DA:321,1
DA:322,1
DA:324,1
DA:325,1
DA:326,1
DA:327,1
DA:328,1
DA:329,1
DA:330,1
DA:331,1
DA:332,1
DA:333,1
DA:334,1
DA:335,1
DA:336,1
DA:337,1
DA:338,1
DA:339,1
DA:340,1
DA:341,1
DA:342,1
DA:343,1
DA:345,1
DA:346,1
DA:347,1
DA:348,1
DA:349,1
DA:350,1
DA:351,1
DA:352,1
DA:353,1
DA:354,1
DA:355,1
DA:356,1
DA:357,1
DA:358,1
DA:359,1
DA:360,1
DA:361,1
DA:362,1
DA:363,1
DA:364,1
DA:365,1
DA:366,6
DA:367,6
DA:368,6
DA:369,6
DA:370,6
DA:371,6
DA:372,1
DA:373,1
DA:374,1
DA:375,1
DA:376,1
DA:377,1
DA:378,1
DA:379,1
BRF:0
BRH:0
LF:253
LH:208
end_of_record
SF:crates/libcgroups/src/v1/controller.rs
FN:13,_RNvYNtNtNtCslEpTaKix7hR_10libcgroups2v110perf_event9PerfEventNtNtB6_10controller10Controller8add_taskB8_
FN:13,_RNvYNtNtNtCslEpTaKix7hR_10libcgroups2v17freezer7FreezerNtNtB6_10controller10Controller8add_taskB8_
FN:13,_RNvYNtNtNtCslEpTaKix7hR_10libcgroups2v17cpuacct7CpuAcctNtNtB6_10controller10Controller8add_taskB8_
FN:13,_RNvYNtNtNtCs6dyzbgxNKb8_10libcgroups2v118network_classifier17NetworkClassifierNtNtB6_10controller10Controller8add_taskB8_
FN:13,_RNvYNtNtNtCs6dyzbgxNKb8_10libcgroups2v15blkio5BlkioNtNtB6_10controller10Controller8add_taskB8_
FN:13,_RNvYNtNtNtCs6dyzbgxNKb8_10libcgroups2v17hugetlb7HugeTlbNtNtB6_10controller10Controller8add_taskB8_
FN:13,_RNvYNtNtNtCs6dyzbgxNKb8_10libcgroups2v17devices7DevicesNtNtB6_10controller10Controller8add_taskB8_
FN:13,_RNvYNtNtNtCs6dyzbgxNKb8_10libcgroups2v17cpuacct7CpuAcctNtNtB6_10controller10Controller8add_taskB8_
FN:13,_RNvYNtNtNtCs6dyzbgxNKb8_10libcgroups2v17freezer7FreezerNtNtB6_10controller10Controller8add_taskB8_
FN:13,_RNvYNtNtNtCs6dyzbgxNKb8_10libcgroups2v16memory6MemoryNtNtB6_10controller10Controller8add_taskB8_
FN:13,_RNvYNtNtNtCs6dyzbgxNKb8_10libcgroups2v116network_priority15NetworkPriorityNtNtB6_10controller10Controller8add_taskB8_
FN:13,_RNvYNtNtNtCs6dyzbgxNKb8_10libcgroups2v110perf_event9PerfEventNtNtB6_10controller10Controller8add_taskB8_
FN:13,_RNvYNtNtNtCs6dyzbgxNKb8_10libcgroups2v14pids4PidsNtNtB6_10controller10Controller8add_taskB8_
FN:13,_RNvYNtNtNtCs6dyzbgxNKb8_10libcgroups2v13cpu3CpuNtNtB6_10controller10Controller8add_taskB8_
FNDA:1,_RNvYNtNtNtCslEpTaKix7hR_10libcgroups2v110perf_event9PerfEventNtNtB6_10controller10Controller8add_taskB8_
FNDA:3,_RNvYNtNtNtCslEpTaKix7hR_10libcgroups2v17freezer7FreezerNtNtB6_10controller10Controller8add_taskB8_
FNDA:1,_RNvYNtNtNtCslEpTaKix7hR_10libcgroups2v17cpuacct7CpuAcctNtNtB6_10controller10Controller8add_taskB8_
FNDA:0,_RNvYNtNtNtCs6dyzbgxNKb8_10libcgroups2v118network_classifier17NetworkClassifierNtNtB6_10controller10Controller8add_taskB8_
FNDA:0,_RNvYNtNtNtCs6dyzbgxNKb8_10libcgroups2v15blkio5BlkioNtNtB6_10controller10Controller8add_taskB8_
FNDA:0,_RNvYNtNtNtCs6dyzbgxNKb8_10libcgroups2v17hugetlb7HugeTlbNtNtB6_10controller10Controller8add_taskB8_
FNDA:0,_RNvYNtNtNtCs6dyzbgxNKb8_10libcgroups2v17devices7DevicesNtNtB6_10controller10Controller8add_taskB8_
FNDA:0,_RNvYNtNtNtCs6dyzbgxNKb8_10libcgroups2v17cpuacct7CpuAcctNtNtB6_10controller10Controller8add_taskB8_
FNDA:0,_RNvYNtNtNtCs6dyzbgxNKb8_10libcgroups2v17freezer7FreezerNtNtB6_10controller10Controller8add_taskB8_
FNDA:0,_RNvYNtNtNtCs6dyzbgxNKb8_10libcgroups2v16memory6MemoryNtNtB6_10controller10Controller8add_taskB8_
FNDA:0,_RNvYNtNtNtCs6dyzbgxNKb8_10libcgroups2v116network_priority15NetworkPriorityNtNtB6_10controller10Controller8add_taskB8_
FNDA:0,_RNvYNtNtNtCs6dyzbgxNKb8_10libcgroups2v110perf_event9PerfEventNtNtB6_10controller10Controller8add_taskB8_
FNDA:0,_RNvYNtNtNtCs6dyzbgxNKb8_10libcgroups2v14pids4PidsNtNtB6_10controller10Controller8add_taskB8_
FNDA:0,_RNvYNtNtNtCs6dyzbgxNKb8_10libcgroups2v13cpu3CpuNtNtB6_10controller10Controller8add_taskB8_
FNF:1
FNH:1
DA:13,5
DA:14,5
DA:15,5
DA:16,5
BRF:0
BRH:0
LF:4
LH:4
end_of_record
SF:crates/libcgroups/src/v1/controller_type.rs
FN:20,_RNvXNtNtCs6dyzbgxNKb8_10libcgroups2v115controller_typeNtB2_14ControllerTypeNtNtCshypYLURccL2_4core3fmt7Display3fmt
FN:3,_RNvXs6_NtNtCs6dyzbgxNKb8_10libcgroups2v115controller_typeNtB5_14ControllerTypeNtNtCshypYLURccL2_4core5clone5Clone5cloneB9_
FN:3,_RINvXs0_NtNtCs6dyzbgxNKb8_10libcgroups2v115controller_typeNtB6_14ControllerTypeNtNtCshypYLURccL2_4core4hash4Hash4hashNtNtNtNtCslIgaOqvXPTn_3std11collections4hash3map13DefaultHasherEBa_
FN:41,_RNvXs_NtNtCs6dyzbgxNKb8_10libcgroups2v115controller_typeNtB4_14ControllerTypeINtNtCshypYLURccL2_4core7convert5AsRefeE6as_ref
FN:3,_RNvXs5_NtNtCs6dyzbgxNKb8_10libcgroups2v115controller_typeNtB5_14ControllerTypeNtNtCshypYLURccL2_4core3fmt5Debug3fmt
FN:3,_RNvXs2_NtNtCs6dyzbgxNKb8_10libcgroups2v115controller_typeNtB5_14ControllerTypeNtNtCshypYLURccL2_4core3cmp9PartialEq2eqB9_
FNDA:0,_RNvXNtNtCs6dyzbgxNKb8_10libcgroups2v115controller_typeNtB2_14ControllerTypeNtNtCshypYLURccL2_4core3fmt7Display3fmt
FNDA:0,_RNvXs6_NtNtCs6dyzbgxNKb8_10libcgroups2v115controller_typeNtB5_14ControllerTypeNtNtCshypYLURccL2_4core5clone5Clone5cloneB9_
FNDA:0,_RINvXs0_NtNtCs6dyzbgxNKb8_10libcgroups2v115controller_typeNtB6_14ControllerTypeNtNtCshypYLURccL2_4core4hash4Hash4hashNtNtNtNtCslIgaOqvXPTn_3std11collections4hash3map13DefaultHasherEBa_
FNDA:0,_RNvXs_NtNtCs6dyzbgxNKb8_10libcgroups2v115controller_typeNtB4_14ControllerTypeINtNtCshypYLURccL2_4core7convert5AsRefeE6as_ref
FNDA:0,_RNvXs5_NtNtCs6dyzbgxNKb8_10libcgroups2v115controller_typeNtB5_14ControllerTypeNtNtCshypYLURccL2_4core3fmt5Debug3fmt
FNDA:0,_RNvXs2_NtNtCs6dyzbgxNKb8_10libcgroups2v115controller_typeNtB5_14ControllerTypeNtNtCshypYLURccL2_4core3cmp9PartialEq2eqB9_
FNF:6
FNH:0
DA:3,0
DA:20,0
DA:21,0
DA:22,0
DA:23,0
DA:24,0
DA:25,0
DA:26,0
DA:27,0
DA:28,0
DA:29,0
DA:30,0
DA:31,0
DA:32,0
DA:33,0
DA:36,0
DA:37,0
DA:41,0
DA:42,0
DA:43,0
DA:44,0
DA:45,0
DA:46,0
DA:47,0
DA:48,0
DA:49,0
DA:50,0
DA:51,0
DA:52,0
DA:53,0
DA:54,0
DA:56,0
BRF:0
BRH:0
LF:35
LH:0
end_of_record
SF:crates/libcgroups/src/v1/cpu.rs
FN:156,_RNCNvNtNtNtCslEpTaKix7hR_10libcgroups2v13cpu5tests14test_set_quota0B9_
FN:227,_RNvNtNtNtCslEpTaKix7hR_10libcgroups2v13cpu5testss_24test_stat_cpu_throttling
FN:184,_RNCNvNtNtNtCslEpTaKix7hR_10libcgroups2v13cpu5testss_15test_set_period0B9_
FN:203,_RNCNvNtNtNtCslEpTaKix7hR_10libcgroups2v13cpu5testss_19test_set_rt_runtime0B9_
FN:152,_RNCNvNtNtNtCslEpTaKix7hR_10libcgroups2v13cpu5testss_15test_set_sharess_0B9_
FN:189,_RNvNtNtNtCslEpTaKix7hR_10libcgroups2v13cpu5testss_19test_set_rt_runtime
FN:140,_RNvNtNtNtCslEpTaKix7hR_10libcgroups2v13cpu5testss_15test_set_shares
FN:207,_RNCNvNtNtNtCslEpTaKix7hR_10libcgroups2v13cpu5tests18test_set_rt_period0B9_
FN:144,_RNCNvNtNtNtCslEpTaKix7hR_10libcgroups2v13cpu5testss_15test_set_shares0B9_
FN:208,_RNvNtNtNtCslEpTaKix7hR_10libcgroups2v13cpu5testss_18test_set_rt_period
FN:157,_RNvNtNtNtCslEpTaKix7hR_10libcgroups2v13cpu5testss_14test_set_quota
FN:172,_RNCNvNtNtNtCslEpTaKix7hR_10libcgroups2v13cpu5tests15test_set_period0B9_
FN:222,_RNCNvNtNtNtCslEpTaKix7hR_10libcgroups2v13cpu5testss_18test_set_rt_period0B9_
FN:226,_RNCNvNtNtNtCslEpTaKix7hR_10libcgroups2v13cpu5tests24test_stat_cpu_throttling0B9_
FN:188,_RNCNvNtNtNtCslEpTaKix7hR_10libcgroups2v13cpu5tests19test_set_rt_runtime0B9_
FN:173,_RNvNtNtNtCslEpTaKix7hR_10libcgroups2v13cpu5testss_15test_set_period
FN:139,_RNCNvNtNtNtCslEpTaKix7hR_10libcgroups2v13cpu5tests15test_set_shares0B9_
FN:168,_RNCNvNtNtNtCslEpTaKix7hR_10libcgroups2v13cpu5testss_14test_set_quota0B9_
FN:54,_RNvXs_NtNtCslEpTaKix7hR_10libcgroups2v13cpuNtB4_3CpuNtNtB8_5stats13StatsProvider5stats
FN:36,_RNvXNtNtCslEpTaKix7hR_10libcgroups2v13cpuNtB2_3CpuNtNtB4_10controller10Controller15needs_to_handle
FN:25,_RNvXNtNtCslEpTaKix7hR_10libcgroups2v13cpuNtB2_3CpuNtNtB4_10controller10Controller5apply
FN:98,_RNvMs0_NtNtCslEpTaKix7hR_10libcgroups2v13cpuNtB5_3Cpu5apply
FN:25,_RNvXNtNtCs6dyzbgxNKb8_10libcgroups2v13cpuNtB2_3CpuNtNtB4_10controller10Controller5apply
FN:98,_RNvMs0_NtNtCs6dyzbgxNKb8_10libcgroups2v13cpuNtB5_3Cpu5apply
FN:54,_RNvXs_NtNtCs6dyzbgxNKb8_10libcgroups2v13cpuNtB4_3CpuNtNtB8_5stats13StatsProvider5stats
FN:36,_RNvXNtNtCs6dyzbgxNKb8_10libcgroups2v13cpuNtB2_3CpuNtNtB4_10controller10Controller15needs_to_handle
FNDA:1,_RNCNvNtNtNtCslEpTaKix7hR_10libcgroups2v13cpu5tests14test_set_quota0B9_
FNDA:1,_RNvNtNtNtCslEpTaKix7hR_10libcgroups2v13cpu5testss_24test_stat_cpu_throttling
FNDA:0,_RNCNvNtNtNtCslEpTaKix7hR_10libcgroups2v13cpu5testss_15test_set_period0B9_
FNDA:0,_RNCNvNtNtNtCslEpTaKix7hR_10libcgroups2v13cpu5testss_19test_set_rt_runtime0B9_
FNDA:0,_RNCNvNtNtNtCslEpTaKix7hR_10libcgroups2v13cpu5testss_15test_set_sharess_0B9_
FNDA:1,_RNvNtNtNtCslEpTaKix7hR_10libcgroups2v13cpu5testss_19test_set_rt_runtime
FNDA:1,_RNvNtNtNtCslEpTaKix7hR_10libcgroups2v13cpu5testss_15test_set_shares
FNDA:1,_RNCNvNtNtNtCslEpTaKix7hR_10libcgroups2v13cpu5tests18test_set_rt_period0B9_
FNDA:0,_RNCNvNtNtNtCslEpTaKix7hR_10libcgroups2v13cpu5testss_15test_set_shares0B9_
FNDA:1,_RNvNtNtNtCslEpTaKix7hR_10libcgroups2v13cpu5testss_18test_set_rt_period
FNDA:1,_RNvNtNtNtCslEpTaKix7hR_10libcgroups2v13cpu5testss_14test_set_quota
FNDA:1,_RNCNvNtNtNtCslEpTaKix7hR_10libcgroups2v13cpu5tests15test_set_period0B9_
FNDA:0,_RNCNvNtNtNtCslEpTaKix7hR_10libcgroups2v13cpu5testss_18test_set_rt_period0B9_
FNDA:1,_RNCNvNtNtNtCslEpTaKix7hR_10libcgroups2v13cpu5tests24test_stat_cpu_throttling0B9_
FNDA:1,_RNCNvNtNtNtCslEpTaKix7hR_10libcgroups2v13cpu5tests19test_set_rt_runtime0B9_
FNDA:1,_RNvNtNtNtCslEpTaKix7hR_10libcgroups2v13cpu5testss_15test_set_period
FNDA:1,_RNCNvNtNtNtCslEpTaKix7hR_10libcgroups2v13cpu5tests15test_set_shares0B9_
FNDA:0,_RNCNvNtNtNtCslEpTaKix7hR_10libcgroups2v13cpu5testss_14test_set_quota0B9_
FNDA:1,_RNvXs_NtNtCslEpTaKix7hR_10libcgroups2v13cpuNtB4_3CpuNtNtB8_5stats13StatsProvider5stats
FNDA:0,_RNvXNtNtCslEpTaKix7hR_10libcgroups2v13cpuNtB2_3CpuNtNtB4_10controller10Controller15needs_to_handle
FNDA:0,_RNvXNtNtCslEpTaKix7hR_10libcgroups2v13cpuNtB2_3CpuNtNtB4_10controller10Controller5apply
FNDA:1,_RNvMs0_NtNtCslEpTaKix7hR_10libcgroups2v13cpuNtB5_3Cpu5apply
FNDA:0,_RNvXNtNtCs6dyzbgxNKb8_10libcgroups2v13cpuNtB2_3CpuNtNtB4_10controller10Controller5apply
FNDA:0,_RNvMs0_NtNtCs6dyzbgxNKb8_10libcgroups2v13cpuNtB5_3Cpu5apply
FNDA:0,_RNvXs_NtNtCs6dyzbgxNKb8_10libcgroups2v13cpuNtB4_3CpuNtNtB8_5stats13StatsProvider5stats
FNDA:0,_RNvXNtNtCs6dyzbgxNKb8_10libcgroups2v13cpuNtB2_3CpuNtNtB4_10controller10Controller15needs_to_handle
FNF:22
FNH:14
DA:25,0
DA:26,0
DA:28,0
DA:29,0
DA:30,0
DA:32,0
DA:33,0
DA:36,0
DA:37,0
DA:38,0
DA:39,0
DA:40,0
DA:41,0
DA:43,0
DA:44,0
DA:45,0
DA:47,0
DA:48,0
DA:54,1
DA:55,1
DA:56,1
DA:57,1
DA:59,1
DA:60,1
DA:61,0
DA:62,0
DA:63,0
DA:64,0
DA:65,1
DA:66,1
DA:67,1
DA:68,0
DA:69,0
DA:70,0
DA:71,0
DA:72,1
DA:73,1
DA:74,1
DA:75,0
DA:76,0
DA:77,0
DA:78,0
DA:79,1
DA:80,1
DA:81,1
DA:82,0
DA:83,0
DA:84,0
DA:85,0
DA:86,1
DA:87,1
DA:88,1
DA:89,1
DA:90,1
DA:92,1
DA:93,1
DA:98,5
DA:99,1
DA:100,1
DA:101,0
DA:102,4
DA:104,5
DA:105,1
DA:106,1
DA:107,0
DA:108,4
DA:110,5
DA:111,1
DA:112,1
DA:113,0
DA:114,4
DA:116,5
DA:117,1
DA:118,1
DA:119,0
DA:120,4
DA:122,5
DA:123,1
DA:124,1
DA:125,0
DA:126,4
DA:128,5
DA:129,5
DA:139,1
DA:140,1
DA:141,1
DA:142,1
DA:143,1
DA:144,1
DA:145,1
DA:146,1
DA:147,1
DA:148,1
DA:149,1
DA:150,1
DA:151,1
DA:152,1
DA:153,1
DA:154,1
DA:156,1
DA:157,1
DA:158,1
DA:159,1
DA:160,1
DA:161,1
DA:162,1
DA:163,1
DA:164,1
DA:165,1
DA:166,1
DA:167,1
DA:168,1
DA:169,1
DA:170,1
DA:172,1
DA:173,1
DA:174,1
DA:175,1
DA:176,1
DA:177,1
DA:178,1
DA:179,1
DA:180,1
DA:181,1
DA:182,1
DA:183,1
DA:184,1
DA:185,1
DA:186,1
DA:188,1
DA:189,1
DA:190,1
DA:191,1
DA:192,1
DA:193,1
DA:194,1
DA:195,1
DA:196,1
DA:197,1
DA:198,1
DA:199,1
DA:200,1
DA:201,1
DA:202,1
DA:203,1
DA:204,1
DA:205,1
DA:207,1
DA:208,1
DA:209,1
DA:210,1
DA:211,1
DA:212,1
DA:213,1
DA:214,1
DA:215,1
DA:216,1
DA:217,1
DA:218,1
DA:219,1
DA:220,1
DA:221,1
DA:222,1
DA:223,1
DA:224,1
DA:226,1
DA:227,1
DA:228,1
DA:229,1
DA:230,1
DA:231,1
DA:232,1
DA:233,1
DA:234,1
DA:235,1
DA:236,1
DA:237,1
DA:238,1
DA:239,1
DA:240,1
DA:241,1
DA:242,1
DA:243,1
DA:244,1
BRF:0
BRH:0
LF:190
LH:145
end_of_record
SF:crates/libcgroups/src/v1/cpuacct.rs
FN:162,_RNvNtNtNtCslEpTaKix7hR_10libcgroups2v17cpuacct5testss_13test_add_task
FN:156,_RNCNvNtNtNtCslEpTaKix7hR_10libcgroups2v17cpuacct5tests14setup_per_cores_0B9_
FN:173,_RNCNvNtNtNtCslEpTaKix7hR_10libcgroups2v17cpuacct5tests25test_stat_total_cpu_usage0B9_
FN:154,_RNCNvNtNtNtCslEpTaKix7hR_10libcgroups2v17cpuacct5tests14setup_per_core0B9_
FN:169,_RNCNvNtNtNtCslEpTaKix7hR_10libcgroups2v17cpuacct5testss_13test_add_task0B9_
FN:174,_RNvNtNtNtCslEpTaKix7hR_10libcgroups2v17cpuacct5testss_25test_stat_total_cpu_usage
FN:188,_RNvNtNtNtCslEpTaKix7hR_10libcgroups2v17cpuacct5testss_23test_stat_per_cpu_usage
FN:187,_RNCNvNtNtNtCslEpTaKix7hR_10libcgroups2v17cpuacct5tests23test_stat_per_cpu_usage0B9_
FN:139,_RNvNtNtNtCslEpTaKix7hR_10libcgroups2v17cpuacct5tests15setup_total_cpu
FN:145,_RNCNvNtNtNtCslEpTaKix7hR_10libcgroups2v17cpuacct5tests15setup_total_cpus_0B9_
FN:161,_RNCNvNtNtNtCslEpTaKix7hR_10libcgroups2v17cpuacct5tests13test_add_task0B9_
FN:143,_RNCNvNtNtNtCslEpTaKix7hR_10libcgroups2v17cpuacct5tests15setup_total_cpu0B9_
FN:150,_RNvNtNtNtCslEpTaKix7hR_10libcgroups2v17cpuacct5tests14setup_per_core
FN:94,_RNvMs0_NtNtCslEpTaKix7hR_10libcgroups2v17cpuacctNtB5_7CpuAcct18get_per_core_usage
FN:30,_RNvXNtNtCslEpTaKix7hR_10libcgroups2v17cpuacctNtB2_7CpuAcctNtNtB4_10controller10Controller15needs_to_handle
FN:26,_RNvXNtNtCslEpTaKix7hR_10libcgroups2v17cpuacctNtB2_7CpuAcctNtNtB4_10controller10Controller5apply
FN:38,_RNvXs_NtNtCslEpTaKix7hR_10libcgroups2v17cpuacctNtB4_7CpuAcctNtNtB8_5stats13StatsProvider5stats
FN:48,_RNvMs0_NtNtCslEpTaKix7hR_10libcgroups2v17cpuacctNtB5_7CpuAcct19get_total_cpu_usage
FN:118,_RNCNvMs0_NtNtCslEpTaKix7hR_10libcgroups2v17cpuacctNtB7_7CpuAcct18get_per_core_usage0Bb_
FN:30,_RNvXNtNtCs6dyzbgxNKb8_10libcgroups2v17cpuacctNtB2_7CpuAcctNtNtB4_10controller10Controller15needs_to_handle
FN:94,_RNvMs0_NtNtCs6dyzbgxNKb8_10libcgroups2v17cpuacctNtB5_7CpuAcct18get_per_core_usage
FN:26,_RNvXNtNtCs6dyzbgxNKb8_10libcgroups2v17cpuacctNtB2_7CpuAcctNtNtB4_10controller10Controller5apply
FN:48,_RNvMs0_NtNtCs6dyzbgxNKb8_10libcgroups2v17cpuacctNtB5_7CpuAcct19get_total_cpu_usage
FN:118,_RNCNvMs0_NtNtCs6dyzbgxNKb8_10libcgroups2v17cpuacctNtB7_7CpuAcct18get_per_core_usage0Bb_
FN:38,_RNvXs_NtNtCs6dyzbgxNKb8_10libcgroups2v17cpuacctNtB4_7CpuAcctNtNtB8_5stats13StatsProvider5stats
FNDA:1,_RNvNtNtNtCslEpTaKix7hR_10libcgroups2v17cpuacct5testss_13test_add_task
FNDA:0,_RNCNvNtNtNtCslEpTaKix7hR_10libcgroups2v17cpuacct5tests14setup_per_cores_0B9_
FNDA:1,_RNCNvNtNtNtCslEpTaKix7hR_10libcgroups2v17cpuacct5tests25test_stat_total_cpu_usage0B9_
FNDA:0,_RNCNvNtNtNtCslEpTaKix7hR_10libcgroups2v17cpuacct5tests14setup_per_core0B9_
FNDA:0,_RNCNvNtNtNtCslEpTaKix7hR_10libcgroups2v17cpuacct5testss_13test_add_task0B9_
FNDA:1,_RNvNtNtNtCslEpTaKix7hR_10libcgroups2v17cpuacct5testss_25test_stat_total_cpu_usage
FNDA:1,_RNvNtNtNtCslEpTaKix7hR_10libcgroups2v17cpuacct5testss_23test_stat_per_cpu_usage
FNDA:1,_RNCNvNtNtNtCslEpTaKix7hR_10libcgroups2v17cpuacct5tests23test_stat_per_cpu_usage0B9_
FNDA:1,_RNvNtNtNtCslEpTaKix7hR_10libcgroups2v17cpuacct5tests15setup_total_cpu
FNDA:0,_RNCNvNtNtNtCslEpTaKix7hR_10libcgroups2v17cpuacct5tests15setup_total_cpus_0B9_
FNDA:1,_RNCNvNtNtNtCslEpTaKix7hR_10libcgroups2v17cpuacct5tests13test_add_task0B9_
FNDA:0,_RNCNvNtNtNtCslEpTaKix7hR_10libcgroups2v17cpuacct5tests15setup_total_cpu0B9_
FNDA:1,_RNvNtNtNtCslEpTaKix7hR_10libcgroups2v17cpuacct5tests14setup_per_core
FNDA:1,_RNvMs0_NtNtCslEpTaKix7hR_10libcgroups2v17cpuacctNtB5_7CpuAcct18get_per_core_usage
FNDA:0,_RNvXNtNtCslEpTaKix7hR_10libcgroups2v17cpuacctNtB2_7CpuAcctNtNtB4_10controller10Controller15needs_to_handle
FNDA:0,_RNvXNtNtCslEpTaKix7hR_10libcgroups2v17cpuacctNtB2_7CpuAcctNtNtB4_10controller10Controller5apply
FNDA:0,_RNvXs_NtNtCslEpTaKix7hR_10libcgroups2v17cpuacctNtB4_7CpuAcctNtNtB8_5stats13StatsProvider5stats
FNDA:1,_RNvMs0_NtNtCslEpTaKix7hR_10libcgroups2v17cpuacctNtB5_7CpuAcct19get_total_cpu_usage
FNDA:4,_RNCNvMs0_NtNtCslEpTaKix7hR_10libcgroups2v17cpuacctNtB7_7CpuAcct18get_per_core_usage0Bb_
FNDA:0,_RNvXNtNtCs6dyzbgxNKb8_10libcgroups2v17cpuacctNtB2_7CpuAcctNtNtB4_10controller10Controller15needs_to_handle
FNDA:0,_RNvMs0_NtNtCs6dyzbgxNKb8_10libcgroups2v17cpuacctNtB5_7CpuAcct18get_per_core_usage
FNDA:0,_RNvXNtNtCs6dyzbgxNKb8_10libcgroups2v17cpuacctNtB2_7CpuAcctNtNtB4_10controller10Controller5apply
FNDA:0,_RNvMs0_NtNtCs6dyzbgxNKb8_10libcgroups2v17cpuacctNtB5_7CpuAcct19get_total_cpu_usage
FNDA:0,_RNCNvMs0_NtNtCs6dyzbgxNKb8_10libcgroups2v17cpuacctNtB7_7CpuAcct18get_per_core_usage0Bb_
FNDA:0,_RNvXs_NtNtCs6dyzbgxNKb8_10libcgroups2v17cpuacctNtB4_7CpuAcctNtNtB8_5stats13StatsProvider5stats
FNF:19
FNH:11
DA:26,0
DA:27,0
DA:28,0
DA:30,0
DA:31,0
DA:32,0
DA:38,0
DA:39,0
DA:40,0
DA:41,0
DA:43,0
DA:44,0
DA:48,1
DA:49,1
DA:50,1
DA:55,1
DA:56,1
DA:57,1
DA:58,0
DA:59,0
DA:60,0
DA:61,0
DA:62,1
DA:63,1
DA:64,1
DA:65,0
DA:66,0
DA:67,0
DA:68,0
DA:69,1
DA:70,1
DA:71,1
DA:72,0
DA:73,0
DA:74,0
DA:75,0
DA:76,1
DA:77,1
DA:78,1
DA:79,1
DA:80,1
DA:81,1
DA:82,1
DA:83,1
DA:85,1
DA:86,1
DA:87,1
DA:88,1
DA:89,1
DA:91,1
DA:92,1
DA:94,1
DA:95,1
DA:97,4
DA:98,4
DA:99,4
DA:100,0
DA:101,4
DA:102,4
DA:103,4
DA:104,4
DA:105,4
DA:106,4
DA:109,4
DA:110,4
DA:111,4
DA:115,1
DA:116,1
DA:117,1
DA:118,4
DA:119,1
DA:120,1
DA:122,1
DA:123,1
DA:139,1
DA:140,1
DA:141,1
DA:142,1
DA:143,1
DA:144,1
DA:145,1
DA:146,1
DA:147,1
DA:148,1
DA:150,1
DA:151,1
DA:152,1
DA:153,1
DA:154,1
DA:155,1
DA:156,1
DA:157,1
DA:158,1
DA:159,1
DA:161,1
DA:162,1
DA:163,1
DA:164,1
DA:165,1
DA:166,1
DA:167,1
DA:168,1
DA:169,1
DA:170,1
DA:171,1
DA:173,1
DA:174,1
DA:175,1
DA:176,1
DA:177,1
DA:178,1
DA:179,1
DA:180,1
DA:181,1
DA:182,1
DA:183,1
DA:184,1
DA:185,1
DA:187,1
DA:188,1
DA:189,1
DA:190,1
DA:191,1
DA:192,1
DA:193,1
DA:194,1
DA:195,1
DA:196,1
DA:197,1
DA:198,1
DA:199,1
DA:200,1
DA:201,1
DA:202,1
DA:203,1
DA:204,1
DA:205,1
DA:206,1
DA:207,1
DA:208,1
DA:209,1
DA:210,1
DA:212,1
DA:213,1
DA:214,1
DA:215,1
DA:217,1
DA:218,1
DA:219,1
DA:220,1
DA:221,1
BRF:0
BRH:0
LF:157
LH:127
end_of_record
SF:crates/libcgroups/src/v1/cpuset.rs
FN:54,_RNvMs_NtNtCslEpTaKix7hR_10libcgroups2v16cpusetNtB4_6CpuSet5apply
FN:42,_RNvXNtNtCslEpTaKix7hR_10libcgroups2v16cpusetNtB2_6CpuSetNtNtB4_10controller10Controller15needs_to_handle
FN:21,_RNvXNtNtCslEpTaKix7hR_10libcgroups2v16cpusetNtB2_6CpuSetNtNtB4_10controller10Controller8add_task
FN:30,_RNvXNtNtCslEpTaKix7hR_10libcgroups2v16cpusetNtB2_6CpuSetNtNtB4_10controller10Controller5apply
FN:67,_RNvMs_NtNtCslEpTaKix7hR_10libcgroups2v16cpusetNtB4_6CpuSet16ensure_not_empty
FN:118,_RNvNtNtNtCslEpTaKix7hR_10libcgroups2v16cpuset5testss_13test_set_mems
FN:113,_RNCNvNtNtNtCslEpTaKix7hR_10libcgroups2v16cpuset5testss_13test_set_cpus0B9_
FN:100,_RNvNtNtNtCslEpTaKix7hR_10libcgroups2v16cpuset5testss_13test_set_cpus
FN:117,_RNCNvNtNtNtCslEpTaKix7hR_10libcgroups2v16cpuset5tests13test_set_mems0B9_
FN:99,_RNCNvNtNtNtCslEpTaKix7hR_10libcgroups2v16cpuset5tests13test_set_cpus0B9_
FN:131,_RNCNvNtNtNtCslEpTaKix7hR_10libcgroups2v16cpuset5testss_13test_set_mems0B9_
FN:21,_RNvXNtNtCs6dyzbgxNKb8_10libcgroups2v16cpusetNtB2_6CpuSetNtNtB4_10controller10Controller8add_task
FN:30,_RNvXNtNtCs6dyzbgxNKb8_10libcgroups2v16cpusetNtB2_6CpuSetNtNtB4_10controller10Controller5apply
FN:67,_RNvMs_NtNtCs6dyzbgxNKb8_10libcgroups2v16cpusetNtB4_6CpuSet16ensure_not_empty
FN:54,_RNvMs_NtNtCs6dyzbgxNKb8_10libcgroups2v16cpusetNtB4_6CpuSet5apply
FN:42,_RNvXNtNtCs6dyzbgxNKb8_10libcgroups2v16cpusetNtB2_6CpuSetNtNtB4_10controller10Controller15needs_to_handle
FNDA:1,_RNvMs_NtNtCslEpTaKix7hR_10libcgroups2v16cpusetNtB4_6CpuSet5apply
FNDA:0,_RNvXNtNtCslEpTaKix7hR_10libcgroups2v16cpusetNtB2_6CpuSetNtNtB4_10controller10Controller15needs_to_handle
FNDA:0,_RNvXNtNtCslEpTaKix7hR_10libcgroups2v16cpusetNtB2_6CpuSetNtNtB4_10controller10Controller8add_task
FNDA:0,_RNvXNtNtCslEpTaKix7hR_10libcgroups2v16cpusetNtB2_6CpuSetNtNtB4_10controller10Controller5apply
FNDA:0,_RNvMs_NtNtCslEpTaKix7hR_10libcgroups2v16cpusetNtB4_6CpuSet16ensure_not_empty
FNDA:1,_RNvNtNtNtCslEpTaKix7hR_10libcgroups2v16cpuset5testss_13test_set_mems
FNDA:0,_RNCNvNtNtNtCslEpTaKix7hR_10libcgroups2v16cpuset5testss_13test_set_cpus0B9_
FNDA:1,_RNvNtNtNtCslEpTaKix7hR_10libcgroups2v16cpuset5testss_13test_set_cpus
FNDA:1,_RNCNvNtNtNtCslEpTaKix7hR_10libcgroups2v16cpuset5tests13test_set_mems0B9_
FNDA:1,_RNCNvNtNtNtCslEpTaKix7hR_10libcgroups2v16cpuset5tests13test_set_cpus0B9_
FNDA:0,_RNCNvNtNtNtCslEpTaKix7hR_10libcgroups2v16cpuset5testss_13test_set_mems0B9_
FNDA:0,_RNvXNtNtCs6dyzbgxNKb8_10libcgroups2v16cpusetNtB2_6CpuSetNtNtB4_10controller10Controller8add_task
FNDA:0,_RNvXNtNtCs6dyzbgxNKb8_10libcgroups2v16cpusetNtB2_6CpuSetNtNtB4_10controller10Controller5apply
FNDA:0,_RNvMs_NtNtCs6dyzbgxNKb8_10libcgroups2v16cpusetNtB4_6CpuSet16ensure_not_empty
FNDA:0,_RNvMs_NtNtCs6dyzbgxNKb8_10libcgroups2v16cpusetNtB4_6CpuSet5apply
FNDA:0,_RNvXNtNtCs6dyzbgxNKb8_10libcgroups2v16cpusetNtB2_6CpuSetNtNtB4_10controller10Controller15needs_to_handle
FNF:11
FNH:5
DA:21,0
DA:23,0
DA:24,0
DA:26,0
DA:27,0
DA:28,0
DA:30,0
DA:31,0
DA:33,0
DA:34,0
DA:35,0
DA:36,0
DA:38,0
DA:39,0
DA:42,0
DA:43,0
DA:44,0
DA:45,0
DA:46,0
DA:48,0
DA:49,0
DA:54,2
DA:55,1
DA:56,1
DA:58,2
DA:59,1
DA:60,1
DA:62,2
DA:63,2
DA:67,0
DA:68,0
DA:69,0
DA:71,0
DA:72,0
DA:73,0
DA:74,0
DA:75,0
DA:76,0
DA:77,0
DA:78,0
DA:79,0
DA:82,0
DA:83,0
DA:84,0
DA:87,0
DA:88,0
DA:99,1
DA:100,1
DA:101,1
DA:102,1
DA:103,1
DA:104,1
DA:105,1
DA:106,1
DA:107,1
DA:108,1
DA:109,1
DA:110,1
DA:111,1
DA:112,1
DA:113,1
DA:114,1
DA:115,1
DA:117,1
DA:118,1
DA:119,1
DA:120,1
DA:121,1
DA:122,1
DA:123,1
DA:124,1
DA:125,1
DA:126,1
DA:127,1
DA:128,1
DA:129,1
DA:130,1
DA:131,1
DA:132,1
DA:133,1
BRF:0
BRH:0
LF:82
LH:42
end_of_record
SF:crates/libcgroups/src/v1/devices.rs
FN:141,_RNCNvNtNtNtCslEpTaKix7hR_10libcgroups2v17devices5tests26property_test_apply_device0B9_
FN:89,_RNCNvNtNtNtCslEpTaKix7hR_10libcgroups2v17devices5tests21test_set_mock_devices0B9_
FN:123,_RNCNvNtNtNtCslEpTaKix7hR_10libcgroups2v17devices5testss_21test_set_mock_devices0B9_
FN:63,_RNvNtNtNtCslEpTaKix7hR_10libcgroups2v17devices5testss_24test_set_default_devices
FN:67,_RNCNvNtNtNtCslEpTaKix7hR_10libcgroups2v17devices5testss_24test_set_default_devices0B9_
FN:62,_RNCNvNtNtNtCslEpTaKix7hR_10libcgroups2v17devices5tests24test_set_default_devices0B9_
FN:175,_RNCNvNvNtNtNtCslEpTaKix7hR_10libcgroups2v17devices5testss_36property_test_apply_multiple_devices4props_0Bb_
FN:161,_RNCNvNvNtNtNtCslEpTaKix7hR_10libcgroups2v17devices5testss_36property_test_apply_multiple_devices4prop0Bb_
FN:90,_RNvNtNtNtCslEpTaKix7hR_10libcgroups2v17devices5testss_21test_set_mock_devices
FN:141,_RNCNvNtNtNtCslEpTaKix7hR_10libcgroups2v17devices5tests36property_test_apply_multiple_devices0B9_
FN:36,_RNvXNtNtCslEpTaKix7hR_10libcgroups2v17devicesNtB2_7DevicesNtNtB4_10controller10Controller15needs_to_handle
FN:24,_RNCNvXNtNtCslEpTaKix7hR_10libcgroups2v17devicesNtB4_7DevicesNtNtB6_10controller10Controller5apply0B8_
FN:42,_RNvMs_NtNtCslEpTaKix7hR_10libcgroups2v17devicesNtB4_7Devices12apply_device
FN:14,_RNvXNtNtCslEpTaKix7hR_10libcgroups2v17devicesNtB2_7DevicesNtNtB4_10controller10Controller5apply
FN:42,_RNvMs_NtNtCs6dyzbgxNKb8_10libcgroups2v17devicesNtB4_7Devices12apply_device
FN:14,_RNvXNtNtCs6dyzbgxNKb8_10libcgroups2v17devicesNtB2_7DevicesNtNtB4_10controller10Controller5apply
FN:24,_RNCNvXNtNtCs6dyzbgxNKb8_10libcgroups2v17devicesNtB4_7DevicesNtNtB6_10controller10Controller5apply0B8_
FN:36,_RNvXNtNtCs6dyzbgxNKb8_10libcgroups2v17devicesNtB2_7DevicesNtNtB4_10controller10Controller15needs_to_handle
FNDA:1,_RNCNvNtNtNtCslEpTaKix7hR_10libcgroups2v17devices5tests26property_test_apply_device0B9_
FNDA:1,_RNCNvNtNtNtCslEpTaKix7hR_10libcgroups2v17devices5tests21test_set_mock_devices0B9_
FNDA:4,_RNCNvNtNtNtCslEpTaKix7hR_10libcgroups2v17devices5testss_21test_set_mock_devices0B9_
FNDA:1,_RNvNtNtNtCslEpTaKix7hR_10libcgroups2v17devices5testss_24test_set_default_devices
FNDA:6,_RNCNvNtNtNtCslEpTaKix7hR_10libcgroups2v17devices5testss_24test_set_default_devices0B9_
FNDA:1,_RNCNvNtNtNtCslEpTaKix7hR_10libcgroups2v17devices5tests24test_set_default_devices0B9_
FNDA:4794,_RNCNvNvNtNtNtCslEpTaKix7hR_10libcgroups2v17devices5testss_36property_test_apply_multiple_devices4props_0Bb_
FNDA:4794,_RNCNvNvNtNtNtCslEpTaKix7hR_10libcgroups2v17devices5testss_36property_test_apply_multiple_devices4prop0Bb_
FNDA:1,_RNvNtNtNtCslEpTaKix7hR_10libcgroups2v17devices5testss_21test_set_mock_devices
FNDA:1,_RNCNvNtNtNtCslEpTaKix7hR_10libcgroups2v17devices5tests36property_test_apply_multiple_devices0B9_
FNDA:0,_RNvXNtNtCslEpTaKix7hR_10libcgroups2v17devicesNtB2_7DevicesNtNtB4_10controller10Controller15needs_to_handle
FNDA:0,_RNCNvXNtNtCslEpTaKix7hR_10libcgroups2v17devicesNtB4_7DevicesNtNtB6_10controller10Controller5apply0B8_
FNDA:4902,_RNvMs_NtNtCslEpTaKix7hR_10libcgroups2v17devicesNtB4_7Devices12apply_device
FNDA:0,_RNvXNtNtCslEpTaKix7hR_10libcgroups2v17devicesNtB2_7DevicesNtNtB4_10controller10Controller5apply
FNDA:0,_RNvMs_NtNtCs6dyzbgxNKb8_10libcgroups2v17devicesNtB4_7Devices12apply_device
FNDA:0,_RNvXNtNtCs6dyzbgxNKb8_10libcgroups2v17devicesNtB2_7DevicesNtNtB4_10controller10Controller5apply
FNDA:0,_RNCNvXNtNtCs6dyzbgxNKb8_10libcgroups2v17devicesNtB4_7DevicesNtNtB6_10controller10Controller5apply0B8_
FNDA:0,_RNvXNtNtCs6dyzbgxNKb8_10libcgroups2v17devicesNtB2_7DevicesNtNtB4_10controller10Controller15needs_to_handle
FNF:13
FNH:10
DA:14,0
DA:15,0
DA:17,0
DA:18,0
DA:19,0
DA:21,0
DA:23,0
DA:24,0
DA:25,0
DA:26,0
DA:27,0
DA:29,0
DA:32,0
DA:33,0
DA:36,0
DA:37,0
DA:38,0
DA:42,4902
DA:43,4902
DA:44,2562
DA:46,2340
DA:49,4902
DA:50,4902
DA:51,4902
DA:62,1
DA:63,1
DA:64,1
DA:65,1
DA:66,1
DA:67,6
DA:68,6
DA:69,6
DA:70,6
DA:71,6
DA:72,6
DA:73,6
DA:74,6
DA:75,6
DA:76,6
DA:77,6
DA:78,6
DA:79,6
DA:80,6
DA:82,0
DA:83,0
DA:84,0
DA:86,6
DA:87,1
DA:89,1
DA:90,1
DA:91,1
DA:92,1
DA:93,1
DA:94,1
DA:95,1
DA:96,1
DA:97,1
DA:98,1
DA:99,1
DA:100,1
DA:101,1
DA:102,1
DA:103,1
DA:104,1
DA:105,1
DA:106,1
DA:107,1
DA:108,1
DA:109,1
DA:110,1
DA:111,1
DA:112,1
DA:113,1
DA:114,1
DA:115,1
DA:116,1
DA:117,1
DA:118,1
DA:119,1
DA:120,1
DA:121,1
DA:122,1
DA:123,4
DA:124,4
DA:125,4
DA:126,4
DA:127,4
DA:128,4
DA:129,4
DA:130,2
DA:131,2
DA:132,2
DA:134,2
DA:135,2
DA:136,2
DA:138,4
DA:139,1
DA:141,2
DA:142,2
DA:143,2
DA:144,2
DA:145,2
DA:146,2
DA:147,2
DA:148,2
DA:149,2
DA:150,2
DA:151,2
DA:152,2
DA:153,2
DA:154,2
DA:155,2
DA:156,2
DA:157,2
DA:158,2
DA:159,2
DA:160,2
DA:161,4794
DA:162,4794
DA:163,4794
DA:164,4794
DA:165,4794
DA:166,2500
DA:167,2500
DA:168,2500
DA:169,2
DA:170,2294
DA:171,2294
DA:172,2294
DA:173,2
DA:174,4794
DA:175,4794
DA:176,2
DA:177,2
BRF:0
BRH:0
LF:152
LH:131
end_of_record
SF:crates/libcgroups/src/v1/freezer.rs
FN:167,_RNCNvNtNtNtCslEpTaKix7hR_10libcgroups2v17freezer5tests18test_add_and_apply0B9_
FN:129,_RNvNtNtNtCslEpTaKix7hR_10libcgroups2v17freezer5testss_22test_set_freezer_state
FN:168,_RNvNtNtNtCslEpTaKix7hR_10libcgroups2v17freezer5testss_18test_add_and_apply
FN:128,_RNCNvNtNtNtCslEpTaKix7hR_10libcgroups2v17freezer5tests22test_set_freezer_state0B9_
FN:24,_RNvXNtNtCslEpTaKix7hR_10libcgroups2v17freezerNtB2_7FreezerNtNtB4_10controller10Controller5apply
FN:51,_RNCNvMs_NtNtCslEpTaKix7hR_10libcgroups2v17freezerNtB6_7Freezer5apply0Ba_
FN:108,_RNvMs_NtNtCslEpTaKix7hR_10libcgroups2v17freezerNtB4_7Freezer18read_freezer_state
FN:35,_RNvXNtNtCslEpTaKix7hR_10libcgroups2v17freezerNtB2_7FreezerNtNtB4_10controller10Controller15needs_to_handle
FN:41,_RNvMs_NtNtCslEpTaKix7hR_10libcgroups2v17freezerNtB4_7Freezer5apply
FN:108,_RNvMs_NtNtCs6dyzbgxNKb8_10libcgroups2v17freezerNtB4_7Freezer18read_freezer_state
FN:35,_RNvXNtNtCs6dyzbgxNKb8_10libcgroups2v17freezerNtB2_7FreezerNtNtB4_10controller10Controller15needs_to_handle
FN:24,_RNvXNtNtCs6dyzbgxNKb8_10libcgroups2v17freezerNtB2_7FreezerNtNtB4_10controller10Controller5apply
FN:41,_RNvMs_NtNtCs6dyzbgxNKb8_10libcgroups2v17freezerNtB4_7Freezer5apply
FN:51,_RNCNvMs_NtNtCs6dyzbgxNKb8_10libcgroups2v17freezerNtB6_7Freezer5apply0Ba_
FNDA:1,_RNCNvNtNtNtCslEpTaKix7hR_10libcgroups2v17freezer5tests18test_add_and_apply0B9_
FNDA:1,_RNvNtNtNtCslEpTaKix7hR_10libcgroups2v17freezer5testss_22test_set_freezer_state
FNDA:1,_RNvNtNtNtCslEpTaKix7hR_10libcgroups2v17freezer5testss_18test_add_and_apply
FNDA:1,_RNCNvNtNtNtCslEpTaKix7hR_10libcgroups2v17freezer5tests22test_set_freezer_state0B9_
FNDA:3,_RNvXNtNtCslEpTaKix7hR_10libcgroups2v17freezerNtB2_7FreezerNtNtB4_10controller10Controller5apply
FNDA:2,_RNCNvMs_NtNtCslEpTaKix7hR_10libcgroups2v17freezerNtB6_7Freezer5apply0Ba_
FNDA:2,_RNvMs_NtNtCslEpTaKix7hR_10libcgroups2v17freezerNtB4_7Freezer18read_freezer_state
FNDA:3,_RNvXNtNtCslEpTaKix7hR_10libcgroups2v17freezerNtB2_7FreezerNtNtB4_10controller10Controller15needs_to_handle
FNDA:6,_RNvMs_NtNtCslEpTaKix7hR_10libcgroups2v17freezerNtB4_7Freezer5apply
FNDA:0,_RNvMs_NtNtCs6dyzbgxNKb8_10libcgroups2v17freezerNtB4_7Freezer18read_freezer_state
FNDA:0,_RNvXNtNtCs6dyzbgxNKb8_10libcgroups2v17freezerNtB2_7FreezerNtNtB4_10controller10Controller15needs_to_handle
FNDA:0,_RNvXNtNtCs6dyzbgxNKb8_10libcgroups2v17freezerNtB2_7FreezerNtNtB4_10controller10Controller5apply
FNDA:0,_RNvMs_NtNtCs6dyzbgxNKb8_10libcgroups2v17freezerNtB4_7Freezer5apply
FNDA:0,_RNCNvMs_NtNtCs6dyzbgxNKb8_10libcgroups2v17freezerNtB6_7Freezer5apply0Ba_
FNF:9
FNH:9
DA:24,3
DA:25,3
DA:26,3
DA:28,3
DA:29,3
DA:30,0
DA:32,3
DA:33,3
DA:35,3
DA:36,3
DA:37,3
DA:41,6
DA:42,6
DA:43,2
DA:45,2
DA:46,2
DA:47,2
DA:48,2
DA:51,2
DA:56,2
DA:57,2
DA:58,0
DA:59,0
DA:60,0
DA:61,0
DA:62,0
DA:63,2
DA:65,2
DA:66,2
DA:67,2
DA:68,2
DA:70,2
DA:71,0
DA:72,2
DA:74,2
DA:75,2
DA:76,2
DA:77,0
DA:79,2
DA:80,2
DA:81,0
DA:82,2
DA:83,2
DA:87,0
DA:91,0
DA:92,2
DA:93,2
DA:94,2
DA:95,0
DA:96,0
DA:97,0
DA:98,0
DA:99,0
DA:100,0
DA:101,2
DA:102,2
DA:105,4
DA:106,6
DA:108,2
DA:109,2
DA:110,2
DA:111,2
DA:112,2
DA:113,2
DA:114,2
DA:115,2
DA:116,2
DA:117,2
DA:128,1
DA:129,1
DA:130,1
DA:131,1
DA:132,1
DA:133,1
DA:134,1
DA:135,1
DA:136,1
DA:137,1
DA:138,1
DA:139,1
DA:140,1
DA:141,1
DA:146,1
DA:147,1
DA:148,1
DA:149,1
DA:150,1
DA:151,1
DA:156,1
DA:157,1
DA:158,1
DA:159,1
DA:160,1
DA:161,1
DA:162,1
DA:163,1
DA:165,1
DA:167,1
DA:168,1
DA:169,1
DA:170,1
DA:171,1
DA:172,1
DA:173,1
DA:174,1
DA:175,1
DA:176,1
DA:177,1
DA:178,1
DA:179,1
DA:180,1
DA:181,1
DA:182,1
DA:183,1
DA:184,1
DA:185,1
DA:186,1
DA:187,1
DA:188,1
DA:189,1
DA:190,1
DA:191,1
DA:192,1
DA:193,1
DA:194,1
DA:195,1
DA:196,1
DA:197,1
DA:202,1
DA:203,1
DA:204,1
DA:205,1
DA:206,1
DA:207,1
DA:208,1
DA:209,1
DA:210,1
DA:211,1
DA:212,1
DA:213,1
DA:214,1
DA:215,1
DA:216,1
DA:217,1
DA:218,1
DA:219,1
DA:220,1
DA:221,1
DA:222,1
DA:223,1
DA:224,1
DA:229,1
DA:230,1
DA:231,1
DA:232,1
DA:233,1
DA:234,1
DA:235,1
DA:236,1
DA:237,1
DA:238,1
DA:239,1
DA:240,1
DA:241,1
DA:242,1
DA:243,1
DA:244,1
DA:245,1
DA:246,1
DA:247,1
DA:248,1
DA:249,1
DA:250,1
DA:251,1
DA:252,1
DA:253,1
DA:254,1
DA:256,1
BRF:0
BRH:0
LF:180
LH:163
end_of_record
SF:crates/libcgroups/src/v1/hugetlb.rs
FN:153,_RNCNvNvNtNtNtCslEpTaKix7hR_10libcgroups2v17hugetlb5testss_25property_test_set_hugetlb4prop0Bb_
FN:124,_RNCNvNtNtNtCslEpTaKix7hR_10libcgroups2v17hugetlb5tests39test_set_hugetlb_with_invalid_page_size0B9_
FN:168,_RNvNtNtNtCslEpTaKix7hR_10libcgroups2v17hugetlb5testss_17test_stat_hugetlb
FN:107,_RNCNvNtNtNtCslEpTaKix7hR_10libcgroups2v17hugetlb5tests16test_set_hugetlb0B9_
FN:142,_RNCNvNtNtNtCslEpTaKix7hR_10libcgroups2v17hugetlb5tests25property_test_set_hugetlb0B9_
FN:167,_RNCNvNtNtNtCslEpTaKix7hR_10libcgroups2v17hugetlb5tests17test_stat_hugetlb0B9_
FN:108,_RNvNtNtNtCslEpTaKix7hR_10libcgroups2v17hugetlb5testss_16test_set_hugetlb
FN:125,_RNvNtNtNtCslEpTaKix7hR_10libcgroups2v17hugetlb5testss_39test_set_hugetlb_with_invalid_page_size
FN:81,_RNvMs0_NtNtCslEpTaKix7hR_10libcgroups2v17hugetlbNtB5_7HugeTlb19stats_for_page_size
FN:59,_RNvMs0_NtNtCslEpTaKix7hR_10libcgroups2v17hugetlbNtB5_7HugeTlb5apply
FN:77,_RNvMs0_NtNtCslEpTaKix7hR_10libcgroups2v17hugetlbNtB5_7HugeTlb15is_power_of_two
FN:45,_RNvXs_NtNtCslEpTaKix7hR_10libcgroups2v17hugetlbNtB4_7HugeTlbNtNtB8_5stats13StatsProvider5stats
FN:32,_RNvXNtNtCslEpTaKix7hR_10libcgroups2v17hugetlbNtB2_7HugeTlbNtNtB4_10controller10Controller15needs_to_handle
FN:63,_RNCNvMs0_NtNtCslEpTaKix7hR_10libcgroups2v17hugetlbNtB7_7HugeTlb5apply0Bb_
FN:18,_RNvXNtNtCslEpTaKix7hR_10libcgroups2v17hugetlbNtB2_7HugeTlbNtNtB4_10controller10Controller5apply
FN:81,_RNvMs0_NtNtCs6dyzbgxNKb8_10libcgroups2v17hugetlbNtB5_7HugeTlb19stats_for_page_size
FN:45,_RNvXs_NtNtCs6dyzbgxNKb8_10libcgroups2v17hugetlbNtB4_7HugeTlbNtNtB8_5stats13StatsProvider5stats
FN:59,_RNvMs0_NtNtCs6dyzbgxNKb8_10libcgroups2v17hugetlbNtB5_7HugeTlb5apply
FN:63,_RNCNvMs0_NtNtCs6dyzbgxNKb8_10libcgroups2v17hugetlbNtB7_7HugeTlb5apply0Bb_
FN:77,_RNvMs0_NtNtCs6dyzbgxNKb8_10libcgroups2v17hugetlbNtB5_7HugeTlb15is_power_of_two
FN:18,_RNvXNtNtCs6dyzbgxNKb8_10libcgroups2v17hugetlbNtB2_7HugeTlbNtNtB4_10controller10Controller5apply
FN:32,_RNvXNtNtCs6dyzbgxNKb8_10libcgroups2v17hugetlbNtB2_7HugeTlbNtNtB4_10controller10Controller15needs_to_handle
FNDA:1912,_RNCNvNvNtNtNtCslEpTaKix7hR_10libcgroups2v17hugetlb5testss_25property_test_set_hugetlb4prop0Bb_
FNDA:1,_RNCNvNtNtNtCslEpTaKix7hR_10libcgroups2v17hugetlb5tests39test_set_hugetlb_with_invalid_page_size0B9_
FNDA:1,_RNvNtNtNtCslEpTaKix7hR_10libcgroups2v17hugetlb5testss_17test_stat_hugetlb
FNDA:1,_RNCNvNtNtNtCslEpTaKix7hR_10libcgroups2v17hugetlb5tests16test_set_hugetlb0B9_
FNDA:1,_RNCNvNtNtNtCslEpTaKix7hR_10libcgroups2v17hugetlb5tests25property_test_set_hugetlb0B9_
FNDA:1,_RNCNvNtNtNtCslEpTaKix7hR_10libcgroups2v17hugetlb5tests17test_stat_hugetlb0B9_
FNDA:1,_RNvNtNtNtCslEpTaKix7hR_10libcgroups2v17hugetlb5testss_16test_set_hugetlb
FNDA:1,_RNvNtNtNtCslEpTaKix7hR_10libcgroups2v17hugetlb5testss_39test_set_hugetlb_with_invalid_page_size
FNDA:1,_RNvMs0_NtNtCslEpTaKix7hR_10libcgroups2v17hugetlbNtB5_7HugeTlb19stats_for_page_size
FNDA:102,_RNvMs0_NtNtCslEpTaKix7hR_10libcgroups2v17hugetlbNtB5_7HugeTlb5apply
FNDA:202,_RNvMs0_NtNtCslEpTaKix7hR_10libcgroups2v17hugetlbNtB5_7HugeTlb15is_power_of_two
FNDA:0,_RNvXs_NtNtCslEpTaKix7hR_10libcgroups2v17hugetlbNtB4_7HugeTlbNtNtB8_5stats13StatsProvider5stats
FNDA:0,_RNvXNtNtCslEpTaKix7hR_10libcgroups2v17hugetlbNtB2_7HugeTlbNtNtB4_10controller10Controller15needs_to_handle
FNDA:1916,_RNCNvMs0_NtNtCslEpTaKix7hR_10libcgroups2v17hugetlbNtB7_7HugeTlb5apply0Bb_
FNDA:0,_RNvXNtNtCslEpTaKix7hR_10libcgroups2v17hugetlbNtB2_7HugeTlbNtNtB4_10controller10Controller5apply
FNDA:0,_RNvMs0_NtNtCs6dyzbgxNKb8_10libcgroups2v17hugetlbNtB5_7HugeTlb19stats_for_page_size
FNDA:0,_RNvXs_NtNtCs6dyzbgxNKb8_10libcgroups2v17hugetlbNtB4_7HugeTlbNtNtB8_5stats13StatsProvider5stats
FNDA:0,_RNvMs0_NtNtCs6dyzbgxNKb8_10libcgroups2v17hugetlbNtB5_7HugeTlb5apply
FNDA:0,_RNCNvMs0_NtNtCs6dyzbgxNKb8_10libcgroups2v17hugetlbNtB7_7HugeTlb5apply0Bb_
FNDA:0,_RNvMs0_NtNtCs6dyzbgxNKb8_10libcgroups2v17hugetlbNtB5_7HugeTlb15is_power_of_two
FNDA:0,_RNvXNtNtCs6dyzbgxNKb8_10libcgroups2v17hugetlbNtB2_7HugeTlbNtNtB4_10controller10Controller5apply
FNDA:0,_RNvXNtNtCs6dyzbgxNKb8_10libcgroups2v17hugetlbNtB2_7HugeTlbNtNtB4_10controller10Controller15needs_to_handle
FNF:15
FNH:12
DA:18,0
DA:19,0
DA:21,0
DA:22,0
DA:23,0
DA:24,0
DA:26,0
DA:28,0
DA:29,0
DA:32,0
DA:33,0
DA:34,0
DA:35,0
DA:36,0
DA:38,0
DA:39,0
DA:45,0
DA:46,0
DA:47,0
DA:49,0
DA:50,0
DA:51,0
DA:54,0
DA:55,0
DA:59,102
DA:60,102
DA:61,102
DA:62,102
DA:63,1916
DA:64,102
DA:65,102
DA:66,102
DA:67,98
DA:68,4
DA:69,4
DA:70,4
DA:71,4
DA:72,4
DA:73,4
DA:74,1
DA:75,102
DA:77,202
DA:78,202
DA:79,202
DA:81,1
DA:82,1
DA:83,1
DA:84,1
DA:85,1
DA:86,1
DA:88,1
DA:89,1
DA:90,1
DA:92,1
DA:93,1
DA:94,1
DA:96,1
DA:97,1
DA:107,1
DA:108,1
DA:109,1
DA:110,1
DA:111,1
DA:112,1
DA:113,1
DA:114,1
DA:115,1
DA:116,1
DA:117,1
DA:118,1
DA:119,1
DA:120,1
DA:121,1
DA:122,1
DA:124,1
DA:125,1
DA:126,1
DA:127,1
DA:128,1
DA:129,1
DA:130,1
DA:131,1
DA:132,1
DA:133,1
DA:134,1
DA:135,1
DA:136,1
DA:137,1
DA:138,0
DA:140,1
DA:142,1
DA:143,1
DA:144,1
DA:145,1
DA:146,1
DA:147,1
DA:148,1
DA:149,1
DA:150,1
DA:151,1
DA:152,1
DA:153,1912
DA:154,1
DA:155,1
DA:156,1
DA:157,1
DA:158,1
DA:159,1
DA:160,1
DA:161,1
DA:162,1
DA:163,1
DA:164,1
DA:165,1
DA:167,1
DA:168,1
DA:169,1
DA:170,1
DA:171,1
DA:172,1
DA:173,1
DA:174,1
DA:175,1
DA:176,1
DA:177,1
DA:178,1
DA:179,1
DA:180,1
DA:181,1
DA:182,1
DA:183,1
BRF:0
BRH:0
LF:133
LH:108
end_of_record
SF:crates/libcgroups/src/v1/manager.rs
FN:109,_RNvXs_NtNtCs6dyzbgxNKb8_10libcgroups2v17managerNtB4_7ManagerNtNtB8_6common13CgroupManager8add_task
FN:183,_RNvXs_NtNtCs6dyzbgxNKb8_10libcgroups2v17managerNtB4_7ManagerNtNtB8_6common13CgroupManager5stats
FN:151,_RNvXs_NtNtCs6dyzbgxNKb8_10libcgroups2v17managerNtB4_7ManagerNtNtB8_6common13CgroupManager6remove
FN:170,_RNvXs_NtNtCs6dyzbgxNKb8_10libcgroups2v17managerNtB4_7ManagerNtNtB8_6common13CgroupManager6freeze
FN:42,_RNvMNtNtCs6dyzbgxNKb8_10libcgroups2v17managerNtB2_7Manager18get_subsystem_path
FN:61,_RNvMNtNtCs6dyzbgxNKb8_10libcgroups2v17managerNtB2_7Manager24get_required_controllers
FN:130,_RNvXs_NtNtCs6dyzbgxNKb8_10libcgroups2v17managerNtB4_7ManagerNtNtB8_6common13CgroupManager5apply
FN:101,_RNvXs_NtNtCs6dyzbgxNKb8_10libcgroups2v17managerNtB4_7ManagerNtNtB8_6common13CgroupManager12get_all_pids
FN:29,_RNvMNtNtCs6dyzbgxNKb8_10libcgroups2v17managerNtB2_7Manager3new
FN:49,_RNCNvMNtNtCs6dyzbgxNKb8_10libcgroups2v17managerNtB4_7Manager18get_subsystem_path0B8_
FNDA:0,_RNvXs_NtNtCs6dyzbgxNKb8_10libcgroups2v17managerNtB4_7ManagerNtNtB8_6common13CgroupManager8add_task
FNDA:0,_RNvXs_NtNtCs6dyzbgxNKb8_10libcgroups2v17managerNtB4_7ManagerNtNtB8_6common13CgroupManager5stats
FNDA:0,_RNvXs_NtNtCs6dyzbgxNKb8_10libcgroups2v17managerNtB4_7ManagerNtNtB8_6common13CgroupManager6remove
FNDA:0,_RNvXs_NtNtCs6dyzbgxNKb8_10libcgroups2v17managerNtB4_7ManagerNtNtB8_6common13CgroupManager6freeze
FNDA:0,_RNvMNtNtCs6dyzbgxNKb8_10libcgroups2v17managerNtB2_7Manager18get_subsystem_path
FNDA:0,_RNvMNtNtCs6dyzbgxNKb8_10libcgroups2v17managerNtB2_7Manager24get_required_controllers
FNDA:0,_RNvXs_NtNtCs6dyzbgxNKb8_10libcgroups2v17managerNtB4_7ManagerNtNtB8_6common13CgroupManager5apply
FNDA:0,_RNvXs_NtNtCs6dyzbgxNKb8_10libcgroups2v17managerNtB4_7ManagerNtNtB8_6common13CgroupManager12get_all_pids
FNDA:0,_RNvMNtNtCs6dyzbgxNKb8_10libcgroups2v17managerNtB2_7Manager3new
FNDA:0,_RNCNvMNtNtCs6dyzbgxNKb8_10libcgroups2v17managerNtB4_7Manager18get_subsystem_path0B8_
FNF:10
FNH:0
DA:29,0
DA:30,0
DA:31,0
DA:32,0
DA:33,0
DA:34,0
DA:35,0
DA:39,0
DA:40,0
DA:42,0
DA:43,0
DA:44,0
DA:46,0
DA:47,0
DA:48,0
DA:49,0
DA:50,0
DA:52,0
DA:53,0
DA:55,0
DA:58,0
DA:59,0
DA:61,0
DA:62,0
DA:63,0
DA:64,0
DA:65,0
DA:67,0
DA:68,0
DA:69,0
DA:70,0
DA:71,0
DA:72,0
DA:73,0
DA:74,0
DA:75,0
DA:76,0
DA:77,0
DA:79,0
DA:82,0
DA:84,0
DA:87,0
DA:88,0
DA:89,0
DA:90,0
DA:91,0
DA:93,0
DA:96,0
DA:97,0
DA:101,0
DA:102,0
DA:103,0
DA:104,0
DA:106,0
DA:108,0
DA:109,0
DA:110,0
DA:111,0
DA:112,0
DA:113,0
DA:114,0
DA:115,0
DA:116,0
DA:117,0
DA:118,0
DA:119,0
DA:120,0
DA:121,0
DA:122,0
DA:123,0
DA:127,0
DA:128,0
DA:130,0
DA:131,0
DA:132,0
DA:133,0
DA:134,0
DA:135,0
DA:136,0
DA:137,0
DA:138,0
DA:139,0
DA:140,0
DA:141,0
DA:142,0
DA:143,0
DA:144,0
DA:148,0
DA:149,0
DA:151,0
DA:152,0
DA:153,0
DA:154,0
DA:155,0
DA:156,0
DA:158,0
DA:159,0
DA:160,0
DA:163,0
DA:164,0
DA:167,0
DA:168,0
DA:170,0
DA:171,0
DA:172,0
DA:173,0
DA:174,0
DA:175,0
DA:176,0
DA:177,0
DA:178,0
DA:179,0
DA:180,0
DA:181,0
DA:183,0
DA:184,0
DA:186,0
DA:187,0
DA:188,0
DA:189,0
DA:190,0
DA:191,0
DA:192,0
DA:193,0
DA:194,0
DA:198,0
DA:199,0
BRF:0
BRH:0
LF:128
LH:0
end_of_record
SF:crates/libcgroups/src/v1/memory.rs
FN:574,_RNCNvNtNtNtCslEpTaKix7hR_10libcgroups2v16memory5tests27test_stat_hierarchy_enabled0B9_
FN:338,_RNCNvNtNtNtCslEpTaKix7hR_10libcgroups2v16memory5tests32pass_set_memory_if_limit_is_zero0B9_
FN:575,_RNvNtNtNtCslEpTaKix7hR_10libcgroups2v16memory5testss_27test_stat_hierarchy_enabled
FN:408,_RNCNvNtNtNtCslEpTaKix7hR_10libcgroups2v16memory5tests24property_test_set_memory0B9_
FN:325,_RNCNvNtNtNtCslEpTaKix7hR_10libcgroups2v16memory5tests15test_set_memory0B9_
FN:352,_RNvNtNtNtCslEpTaKix7hR_10libcgroups2v16memory5testss_13test_set_swap
FN:351,_RNCNvNtNtNtCslEpTaKix7hR_10libcgroups2v16memory5tests13test_set_swap0B9_
FN:326,_RNvNtNtNtCslEpTaKix7hR_10libcgroups2v16memory5testss_15test_set_memory
FN:339,_RNvNtNtNtCslEpTaKix7hR_10libcgroups2v16memory5testss_32pass_set_memory_if_limit_is_zero
FN:363,_RNvNtNtNtCslEpTaKix7hR_10libcgroups2v16memory5testss_24test_set_memory_and_swap
FN:583,_RNCNvNtNtNtCslEpTaKix7hR_10libcgroups2v16memory5tests28test_stat_hierarchy_disabled0B9_
FN:535,_RNCNvNtNtNtCslEpTaKix7hR_10libcgroups2v16memory5tests21test_stat_memory_data0B9_
FN:584,_RNvNtNtNtCslEpTaKix7hR_10libcgroups2v16memory5testss_28test_stat_hierarchy_disabled
FN:593,_RNvNtNtNtCslEpTaKix7hR_10libcgroups2v16memory5testss_22test_stat_memory_stats
FN:536,_RNvNtNtNtCslEpTaKix7hR_10libcgroups2v16memory5testss_21test_stat_memory_data
FN:592,_RNCNvNtNtNtCslEpTaKix7hR_10libcgroups2v16memory5tests22test_stat_memory_stats0B9_
FN:362,_RNCNvNtNtNtCslEpTaKix7hR_10libcgroups2v16memory5tests24test_set_memory_and_swap0B9_
FN:51,_RNvXNtNtCslEpTaKix7hR_10libcgroups2v16memoryNtB2_6MemoryNtNtB4_10controller10Controller5apply
FN:152,_RNvMs0_NtNtCslEpTaKix7hR_10libcgroups2v16memoryNtB5_6Memory17hierarchy_enabled
FN:231,_RNvMs0_NtNtCslEpTaKix7hR_10libcgroups2v16memoryNtB5_6Memory10set_memory
FN:202,_RNvMs0_NtNtCslEpTaKix7hR_10libcgroups2v16memoryNtB5_6Memory16get_memory_limit
FN:221,_RINvMs0_NtNtCslEpTaKix7hR_10libcgroups2v16memoryNtB6_6Memory3setxEBa_
FN:164,_RNvMs0_NtNtCslEpTaKix7hR_10libcgroups2v16memoryNtB5_6Memory16get_memory_usage
FN:133,_RNvMs0_NtNtCslEpTaKix7hR_10libcgroups2v16memoryNtB5_6Memory15get_memory_data
FN:290,_RNvMs0_NtNtCslEpTaKix7hR_10libcgroups2v16memoryNtB5_6Memory5apply
FN:183,_RNvMs0_NtNtCslEpTaKix7hR_10libcgroups2v16memoryNtB5_6Memory20get_memory_max_usage
FN:104,_RNvXNtNtCslEpTaKix7hR_10libcgroups2v16memoryNtB2_6MemoryNtNtB4_10controller10Controller15needs_to_handle
FN:112,_RNvXs_NtNtCslEpTaKix7hR_10libcgroups2v16memoryNtB4_6MemoryNtNtB8_5stats13StatsProvider5stats
FN:270,_RNvMs0_NtNtCslEpTaKix7hR_10libcgroups2v16memoryNtB5_6Memory19set_memory_and_swap
FN:160,_RNvMs0_NtNtCslEpTaKix7hR_10libcgroups2v16memoryNtB5_6Memory13get_stat_data
FN:261,_RNvMs0_NtNtCslEpTaKix7hR_10libcgroups2v16memoryNtB5_6Memory8set_swap
FN:164,_RNvMs0_NtNtCs6dyzbgxNKb8_10libcgroups2v16memoryNtB5_6Memory16get_memory_usage
FN:202,_RNvMs0_NtNtCs6dyzbgxNKb8_10libcgroups2v16memoryNtB5_6Memory16get_memory_limit
FN:104,_RNvXNtNtCs6dyzbgxNKb8_10libcgroups2v16memoryNtB2_6MemoryNtNtB4_10controller10Controller15needs_to_handle
FN:261,_RNvMs0_NtNtCs6dyzbgxNKb8_10libcgroups2v16memoryNtB5_6Memory8set_swap
FN:290,_RNvMs0_NtNtCs6dyzbgxNKb8_10libcgroups2v16memoryNtB5_6Memory5apply
FN:112,_RNvXs_NtNtCs6dyzbgxNKb8_10libcgroups2v16memoryNtB4_6MemoryNtNtB8_5stats13StatsProvider5stats
FN:183,_RNvMs0_NtNtCs6dyzbgxNKb8_10libcgroups2v16memoryNtB5_6Memory20get_memory_max_usage
FN:231,_RNvMs0_NtNtCs6dyzbgxNKb8_10libcgroups2v16memoryNtB5_6Memory10set_memory
FN:133,_RNvMs0_NtNtCs6dyzbgxNKb8_10libcgroups2v16memoryNtB5_6Memory15get_memory_data
FN:160,_RNvMs0_NtNtCs6dyzbgxNKb8_10libcgroups2v16memoryNtB5_6Memory13get_stat_data
FN:51,_RNvXNtNtCs6dyzbgxNKb8_10libcgroups2v16memoryNtB2_6MemoryNtNtB4_10controller10Controller5apply
FN:270,_RNvMs0_NtNtCs6dyzbgxNKb8_10libcgroups2v16memoryNtB5_6Memory19set_memory_and_swap
FN:221,_RINvMs0_NtNtCs6dyzbgxNKb8_10libcgroups2v16memoryNtB6_6Memory3setxEBa_
FN:152,_RNvMs0_NtNtCs6dyzbgxNKb8_10libcgroups2v16memoryNtB5_6Memory17hierarchy_enabled
FNDA:1,_RNCNvNtNtNtCslEpTaKix7hR_10libcgroups2v16memory5tests27test_stat_hierarchy_enabled0B9_
FNDA:1,_RNCNvNtNtNtCslEpTaKix7hR_10libcgroups2v16memory5tests32pass_set_memory_if_limit_is_zero0B9_
FNDA:1,_RNvNtNtNtCslEpTaKix7hR_10libcgroups2v16memory5testss_27test_stat_hierarchy_enabled
FNDA:1,_RNCNvNtNtNtCslEpTaKix7hR_10libcgroups2v16memory5tests24property_test_set_memory0B9_
FNDA:1,_RNCNvNtNtNtCslEpTaKix7hR_10libcgroups2v16memory5tests15test_set_memory0B9_
FNDA:1,_RNvNtNtNtCslEpTaKix7hR_10libcgroups2v16memory5testss_13test_set_swap
FNDA:1,_RNCNvNtNtNtCslEpTaKix7hR_10libcgroups2v16memory5tests13test_set_swap0B9_
FNDA:1,_RNvNtNtNtCslEpTaKix7hR_10libcgroups2v16memory5testss_15test_set_memory
FNDA:1,_RNvNtNtNtCslEpTaKix7hR_10libcgroups2v16memory5testss_32pass_set_memory_if_limit_is_zero
FNDA:1,_RNvNtNtNtCslEpTaKix7hR_10libcgroups2v16memory5testss_24test_set_memory_and_swap
FNDA:1,_RNCNvNtNtNtCslEpTaKix7hR_10libcgroups2v16memory5tests28test_stat_hierarchy_disabled0B9_
FNDA:1,_RNCNvNtNtNtCslEpTaKix7hR_10libcgroups2v16memory5tests21test_stat_memory_data0B9_
FNDA:1,_RNvNtNtNtCslEpTaKix7hR_10libcgroups2v16memory5testss_28test_stat_hierarchy_disabled
FNDA:1,_RNvNtNtNtCslEpTaKix7hR_10libcgroups2v16memory5testss_22test_stat_memory_stats
FNDA:1,_RNvNtNtNtCslEpTaKix7hR_10libcgroups2v16memory5testss_21test_stat_memory_data
FNDA:1,_RNCNvNtNtNtCslEpTaKix7hR_10libcgroups2v16memory5tests22test_stat_memory_stats0B9_
FNDA:1,_RNCNvNtNtNtCslEpTaKix7hR_10libcgroups2v16memory5tests24test_set_memory_and_swap0B9_
FNDA:100,_RNvXNtNtCslEpTaKix7hR_10libcgroups2v16memoryNtB2_6MemoryNtNtB4_10controller10Controller5apply
FNDA:2,_RNvMs0_NtNtCslEpTaKix7hR_10libcgroups2v16memoryNtB5_6Memory17hierarchy_enabled
FNDA:122,_RNvMs0_NtNtCslEpTaKix7hR_10libcgroups2v16memoryNtB5_6Memory10set_memory
FNDA:56,_RNvMs0_NtNtCslEpTaKix7hR_10libcgroups2v16memoryNtB5_6Memory16get_memory_limit
FNDA:74,_RINvMs0_NtNtCslEpTaKix7hR_10libcgroups2v16memoryNtB6_6Memory3setxEBa_
FNDA:0,_RNvMs0_NtNtCslEpTaKix7hR_10libcgroups2v16memoryNtB5_6Memory16get_memory_usage
FNDA:1,_RNvMs0_NtNtCslEpTaKix7hR_10libcgroups2v16memoryNtB5_6Memory15get_memory_data
FNDA:102,_RNvMs0_NtNtCslEpTaKix7hR_10libcgroups2v16memoryNtB5_6Memory5apply
FNDA:0,_RNvMs0_NtNtCslEpTaKix7hR_10libcgroups2v16memoryNtB5_6Memory20get_memory_max_usage
FNDA:0,_RNvXNtNtCslEpTaKix7hR_10libcgroups2v16memoryNtB2_6MemoryNtNtB4_10controller10Controller15needs_to_handle
FNDA:0,_RNvXs_NtNtCslEpTaKix7hR_10libcgroups2v16memoryNtB4_6MemoryNtNtB8_5stats13StatsProvider5stats
FNDA:102,_RNvMs0_NtNtCslEpTaKix7hR_10libcgroups2v16memoryNtB5_6Memory19set_memory_and_swap
FNDA:1,_RNvMs0_NtNtCslEpTaKix7hR_10libcgroups2v16memoryNtB5_6Memory13get_stat_data
FNDA:121,_RNvMs0_NtNtCslEpTaKix7hR_10libcgroups2v16memoryNtB5_6Memory8set_swap
FNDA:0,_RNvMs0_NtNtCs6dyzbgxNKb8_10libcgroups2v16memoryNtB5_6Memory16get_memory_usage
FNDA:0,_RNvMs0_NtNtCs6dyzbgxNKb8_10libcgroups2v16memoryNtB5_6Memory16get_memory_limit
FNDA:0,_RNvXNtNtCs6dyzbgxNKb8_10libcgroups2v16memoryNtB2_6MemoryNtNtB4_10controller10Controller15needs_to_handle
FNDA:0,_RNvMs0_NtNtCs6dyzbgxNKb8_10libcgroups2v16memoryNtB5_6Memory8set_swap
FNDA:0,_RNvMs0_NtNtCs6dyzbgxNKb8_10libcgroups2v16memoryNtB5_6Memory5apply
FNDA:0,_RNvXs_NtNtCs6dyzbgxNKb8_10libcgroups2v16memoryNtB4_6MemoryNtNtB8_5stats13StatsProvider5stats
FNDA:0,_RNvMs0_NtNtCs6dyzbgxNKb8_10libcgroups2v16memoryNtB5_6Memory20get_memory_max_usage
FNDA:0,_RNvMs0_NtNtCs6dyzbgxNKb8_10libcgroups2v16memoryNtB5_6Memory10set_memory
FNDA:0,_RNvMs0_NtNtCs6dyzbgxNKb8_10libcgroups2v16memoryNtB5_6Memory15get_memory_data
FNDA:0,_RNvMs0_NtNtCs6dyzbgxNKb8_10libcgroups2v16memoryNtB5_6Memory13get_stat_data
FNDA:0,_RNvXNtNtCs6dyzbgxNKb8_10libcgroups2v16memoryNtB2_6MemoryNtNtB4_10controller10Controller5apply
FNDA:0,_RNvMs0_NtNtCs6dyzbgxNKb8_10libcgroups2v16memoryNtB5_6Memory19set_memory_and_swap
FNDA:0,_RINvMs0_NtNtCs6dyzbgxNKb8_10libcgroups2v16memoryNtB6_6Memory3setxEBa_
FNDA:0,_RNvMs0_NtNtCs6dyzbgxNKb8_10libcgroups2v16memoryNtB5_6Memory17hierarchy_enabled
FNF:31
FNH:27
DA:51,100
DA:52,100
DA:54,100
DA:55,100
DA:56,100
DA:57,100
DA:59,100
DA:60,61
DA:61,61
DA:62,61
DA:63,61
DA:64,39
DA:66,100
DA:67,42
DA:69,58
DA:72,100
DA:73,43
DA:74,3
DA:75,3
DA:76,3
DA:77,3
DA:80,40
DA:81,40
DA:82,40
DA:83,40
DA:85,57
DA:90,60
DA:91,31
DA:92,29
DA:93,60
DA:94,36
DA:95,36
DA:96,36
DA:97,36
DA:98,24
DA:99,0
DA:101,60
DA:102,100
DA:104,0
DA:105,0
DA:106,0
DA:112,0
DA:113,0
DA:114,0
DA:115,0
DA:116,0
DA:117,0
DA:118,0
DA:120,0
DA:121,0
DA:122,0
DA:123,0
DA:124,0
DA:125,0
DA:126,0
DA:127,0
DA:128,0
DA:129,0
DA:133,1
DA:134,1
DA:135,1
DA:136,1
DA:137,1
DA:138,1
DA:139,1
DA:140,1
DA:141,1
DA:142,1
DA:143,1
DA:144,1
DA:145,1
DA:146,1
DA:149,1
DA:150,1
DA:152,2
DA:153,2
DA:154,2
DA:155,2
DA:157,2
DA:158,2
DA:160,1
DA:161,1
DA:162,1
DA:164,0
DA:165,0
DA:166,0
DA:167,0
DA:168,0
DA:169,0
DA:170,0
DA:171,0
DA:173,0
DA:174,0
DA:175,0
DA:176,0
DA:177,0
DA:179,0
DA:180,0
DA:181,0
DA:183,0
DA:184,0
DA:185,0
DA:186,0
DA:187,0
DA:188,0
DA:189,0
DA:190,0
DA:192,0
DA:193,0
DA:194,0
DA:195,0
DA:196,0
DA:198,0
DA:199,0
DA:200,0
DA:202,56
DA:203,56
DA:204,56
DA:205,56
DA:206,56
DA:207,56
DA:208,56
DA:209,56
DA:211,56
DA:212,56
DA:213,56
DA:214,0
DA:215,56
DA:217,56
DA:218,56
DA:219,56
DA:221,74
DA:222,74
DA:223,74
DA:224,74
DA:225,74
DA:226,74
DA:227,74
DA:228,74
DA:229,74
DA:231,122
DA:232,122
DA:233,48
DA:234,74
DA:235,74
DA:236,74
DA:237,74
DA:238,74
DA:239,0
DA:240,0
DA:241,0
DA:242,0
DA:244,0
DA:245,0
DA:246,0
DA:247,0
DA:248,0
DA:249,0
DA:250,0
DA:251,0
DA:253,0
DA:255,0
DA:259,122
DA:261,121
DA:262,121
DA:263,50
DA:264,71
DA:265,71
DA:266,71
DA:267,71
DA:268,121
DA:270,102
DA:271,102
DA:272,102
DA:273,102
DA:274,102
DA:275,102
DA:276,102
DA:277,102
DA:278,102
DA:279,102
DA:280,102
DA:281,102
DA:282,18
DA:283,18
DA:284,84
DA:285,102
DA:286,102
DA:287,102
DA:288,102
DA:290,102
DA:291,102
DA:292,56
DA:293,56
DA:294,56
DA:295,28
DA:296,28
DA:297,28
DA:300,28
DA:301,1
DA:303,27
DA:304,27
DA:309,46
DA:310,23
DA:311,23
DA:314,102
DA:315,102
DA:325,1
DA:326,1
DA:327,1
DA:328,1
DA:329,1
DA:330,1
DA:331,1
DA:332,1
DA:333,1
DA:334,1
DA:335,1
DA:336,1
DA:338,1
DA:339,1
DA:340,1
DA:341,1
DA:342,1
DA:343,1
DA:344,1
DA:345,1
DA:346,1
DA:347,1
DA:348,1
DA:349,1
DA:351,1
DA:352,1
DA:353,1
DA:354,1
DA:355,1
DA:356,1
DA:357,1
DA:358,1
DA:359,1
DA:360,1
DA:362,1
DA:363,1
DA:364,1
DA:365,1
DA:366,1
DA:367,1
DA:368,1
DA:369,1
DA:370,1
DA:371,1
DA:372,1
DA:373,1
DA:374,1
DA:375,1
DA:376,1
DA:377,1
DA:378,1
DA:379,1
DA:381,1
DA:382,1
DA:383,1
DA:384,1
DA:389,1
DA:390,1
DA:391,1
DA:392,1
DA:393,1
DA:394,1
DA:395,1
DA:396,1
DA:397,1
DA:398,1
DA:399,1
DA:400,1
DA:402,1
DA:403,1
DA:404,1
DA:406,1
DA:408,1
DA:409,1
DA:410,1
DA:411,1
DA:412,1
DA:413,1
DA:414,1
DA:415,1
DA:416,1
DA:417,1
DA:418,1
DA:419,1
DA:420,1
DA:421,1
DA:422,1
DA:423,1
DA:424,1
DA:425,1
DA:426,1
DA:427,1
DA:428,1
DA:429,1
DA:430,1
DA:431,1
DA:432,1
DA:433,1
DA:434,1
DA:435,1
DA:436,1
DA:437,1
DA:438,1
DA:439,1
DA:440,1
DA:441,1
DA:442,1
DA:443,1
DA:444,1
DA:445,1
DA:446,1
DA:447,1
DA:448,1
DA:449,1
DA:450,1
DA:451,1
DA:452,1
DA:453,1
DA:454,1
DA:455,1
DA:456,1
DA:457,1
DA:458,1
DA:459,1
DA:460,1
DA:461,1
DA:462,1
DA:463,1
DA:464,1
DA:465,1
DA:466,1
DA:467,1
DA:468,1
DA:469,1
DA:470,1
DA:471,1
DA:472,1
DA:473,1
DA:474,1
DA:475,1
DA:476,1
DA:477,1
DA:478,1
DA:479,1
DA:480,1
DA:481,1
DA:482,1
DA:483,1
DA:484,1
DA:485,1
DA:486,1
DA:487,1
DA:488,1
DA:489,1
DA:490,1
DA:491,1
DA:492,1
DA:493,1
DA:494,1
DA:495,1
DA:496,1
DA:497,1
DA:498,1
DA:499,1
DA:500,1
DA:501,1
DA:502,1
DA:503,1
DA:504,1
DA:505,1
DA:506,1
DA:507,1
DA:508,1
DA:509,1
DA:510,1
DA:511,1
DA:512,1
DA:513,1
DA:514,1
DA:515,1
DA:516,1
DA:517,1
DA:518,1
DA:519,1
DA:520,1
DA:521,1
DA:522,1
DA:523,1
DA:524,1
DA:525,1
DA:526,1
DA:527,1
DA:528,1
DA:529,1
DA:530,1
DA:531,1
DA:532,1
DA:533,1
DA:535,1
DA:536,1
DA:537,1
DA:538,1
DA:539,1
DA:540,1
DA:541,1
DA:542,1
DA:543,1
DA:544,1
DA:545,1
DA:546,1
DA:547,1
DA:548,1
DA:549,1
DA:550,1
DA:551,1
DA:552,1
DA:553,1
DA:554,1
DA:555,1
DA:556,1
DA:557,1
DA:558,1
DA:559,1
DA:560,1
DA:561,1
DA:562,1
DA:563,1
DA:564,1
DA:565,1
DA:566,1
DA:567,1
DA:568,1
DA:569,1
DA:570,1
DA:571,1
DA:572,1
DA:574,1
DA:575,1
DA:576,1
DA:577,1
DA:578,1
DA:579,1
DA:580,1
DA:581,1
DA:583,1
DA:584,1
DA:585,1
DA:586,1
DA:587,1
DA:588,1
DA:589,1
DA:590,1
DA:592,1
DA:593,1
DA:594,1
DA:595,1
DA:596,1
DA:597,1
DA:598,1
DA:599,1
DA:600,1
DA:601,1
DA:602,1
DA:603,1
DA:604,1
DA:605,1
DA:606,1
DA:607,1
DA:608,1
DA:609,1
DA:610,1
DA:611,1
DA:612,1
DA:613,1
DA:614,1
DA:615,1
DA:616,1
DA:617,1
DA:618,1
DA:619,1
DA:620,1
DA:621,1
DA:622,1
DA:623,1
DA:624,1
BRF:0
BRH:0
LF:492
LH:424
end_of_record
SF:crates/libcgroups/src/v1/network_classifier.rs
FN:14,_RNvXNtNtCslEpTaKix7hR_10libcgroups2v118network_classifierNtB2_17NetworkClassifierNtNtB4_10controller10Controller5apply
FN:25,_RNvXNtNtCslEpTaKix7hR_10libcgroups2v118network_classifierNtB2_17NetworkClassifierNtNtB4_10controller10Controller15needs_to_handle
FN:32,_RNvMs_NtNtCslEpTaKix7hR_10libcgroups2v118network_classifierNtB4_17NetworkClassifier5apply
FN:46,_RNCNvNtNtNtCslEpTaKix7hR_10libcgroups2v118network_classifier5tests29test_apply_network_classifier0B9_
FN:47,_RNvNtNtNtCslEpTaKix7hR_10libcgroups2v118network_classifier5testss_29test_apply_network_classifier
FN:14,_RNvXNtNtCs6dyzbgxNKb8_10libcgroups2v118network_classifierNtB2_17NetworkClassifierNtNtB4_10controller10Controller5apply
FN:32,_RNvMs_NtNtCs6dyzbgxNKb8_10libcgroups2v118network_classifierNtB4_17NetworkClassifier5apply
FN:25,_RNvXNtNtCs6dyzbgxNKb8_10libcgroups2v118network_classifierNtB2_17NetworkClassifierNtNtB4_10controller10Controller15needs_to_handle
FNDA:0,_RNvXNtNtCslEpTaKix7hR_10libcgroups2v118network_classifierNtB2_17NetworkClassifierNtNtB4_10controller10Controller5apply
FNDA:0,_RNvXNtNtCslEpTaKix7hR_10libcgroups2v118network_classifierNtB2_17NetworkClassifierNtNtB4_10controller10Controller15needs_to_handle
FNDA:1,_RNvMs_NtNtCslEpTaKix7hR_10libcgroups2v118network_classifierNtB4_17NetworkClassifier5apply
FNDA:1,_RNCNvNtNtNtCslEpTaKix7hR_10libcgroups2v118network_classifier5tests29test_apply_network_classifier0B9_
FNDA:1,_RNvNtNtNtCslEpTaKix7hR_10libcgroups2v118network_classifier5testss_29test_apply_network_classifier
FNDA:0,_RNvXNtNtCs6dyzbgxNKb8_10libcgroups2v118network_classifierNtB2_17NetworkClassifierNtNtB4_10controller10Controller5apply
FNDA:0,_RNvMs_NtNtCs6dyzbgxNKb8_10libcgroups2v118network_classifierNtB4_17NetworkClassifier5apply
FNDA:0,_RNvXNtNtCs6dyzbgxNKb8_10libcgroups2v118network_classifierNtB2_17NetworkClassifierNtNtB4_10controller10Controller15needs_to_handle
FNF:5
FNH:3
DA:14,0
DA:15,0
DA:17,0
DA:18,0
DA:19,0
DA:20,0
DA:22,0
DA:23,0
DA:25,0
DA:26,0
DA:27,0
DA:32,1
DA:33,1
DA:34,0
DA:36,1
DA:37,1
DA:46,1
DA:47,1
DA:48,1
DA:49,1
DA:50,1
DA:51,1
DA:52,1
DA:53,1
DA:54,1
DA:55,1
DA:56,1
DA:57,1
DA:58,1
DA:59,1
DA:60,1
DA:61,1
DA:62,1
DA:63,1
DA:64,1
BRF:0
BRH:0
LF:35
LH:23
end_of_record
SF:crates/libcgroups/src/v1/network_priority.rs
FN:64,_RNCNvNtNtNtCslEpTaKix7hR_10libcgroups2v116network_priority5testss_28test_apply_network_priorites0B9_
FN:14,_RNvXNtNtCslEpTaKix7hR_10libcgroups2v116network_priorityNtB2_15NetworkPriorityNtNtB4_10controller10Controller5apply
FN:33,_RNCNvMs_NtNtCslEpTaKix7hR_10libcgroups2v116network_priorityNtB6_15NetworkPriority5apply0Ba_
FN:47,_RNCNvNtNtNtCslEpTaKix7hR_10libcgroups2v116network_priority5tests28test_apply_network_priorites0B9_
FN:48,_RNvNtNtNtCslEpTaKix7hR_10libcgroups2v116network_priority5testss_28test_apply_network_priorites
FN:25,_RNvXNtNtCslEpTaKix7hR_10libcgroups2v116network_priorityNtB2_15NetworkPriorityNtNtB4_10controller10Controller15needs_to_handle
FN:32,_RNvMs_NtNtCslEpTaKix7hR_10libcgroups2v116network_priorityNtB4_15NetworkPriority5apply
FN:33,_RNCNvMs_NtNtCs6dyzbgxNKb8_10libcgroups2v116network_priorityNtB6_15NetworkPriority5apply0Ba_
FN:25,_RNvXNtNtCs6dyzbgxNKb8_10libcgroups2v116network_priorityNtB2_15NetworkPriorityNtNtB4_10controller10Controller15needs_to_handle
FN:14,_RNvXNtNtCs6dyzbgxNKb8_10libcgroups2v116network_priorityNtB2_15NetworkPriorityNtNtB4_10controller10Controller5apply
FN:32,_RNvMs_NtNtCs6dyzbgxNKb8_10libcgroups2v116network_priorityNtB4_15NetworkPriority5apply
FNDA:2,_RNCNvNtNtNtCslEpTaKix7hR_10libcgroups2v116network_priority5testss_28test_apply_network_priorites0B9_
FNDA:0,_RNvXNtNtCslEpTaKix7hR_10libcgroups2v116network_priorityNtB2_15NetworkPriorityNtNtB4_10controller10Controller5apply
FNDA:2,_RNCNvMs_NtNtCslEpTaKix7hR_10libcgroups2v116network_priorityNtB6_15NetworkPriority5apply0Ba_
FNDA:1,_RNCNvNtNtNtCslEpTaKix7hR_10libcgroups2v116network_priority5tests28test_apply_network_priorites0B9_
FNDA:1,_RNvNtNtNtCslEpTaKix7hR_10libcgroups2v116network_priority5testss_28test_apply_network_priorites
FNDA:0,_RNvXNtNtCslEpTaKix7hR_10libcgroups2v116network_priorityNtB2_15NetworkPriorityNtNtB4_10controller10Controller15needs_to_handle
FNDA:1,_RNvMs_NtNtCslEpTaKix7hR_10libcgroups2v116network_priorityNtB4_15NetworkPriority5apply
FNDA:0,_RNCNvMs_NtNtCs6dyzbgxNKb8_10libcgroups2v116network_priorityNtB6_15NetworkPriority5apply0Ba_
FNDA:0,_RNvXNtNtCs6dyzbgxNKb8_10libcgroups2v116network_priorityNtB2_15NetworkPriorityNtNtB4_10controller10Controller15needs_to_handle
FNDA:0,_RNvXNtNtCs6dyzbgxNKb8_10libcgroups2v116network_priorityNtB2_15NetworkPriorityNtNtB4_10controller10Controller5apply
FNDA:0,_RNvMs_NtNtCs6dyzbgxNKb8_10libcgroups2v116network_priorityNtB4_15NetworkPriority5apply
FNF:7
FNH:5
DA:14,0
DA:15,0
DA:17,0
DA:18,0
DA:19,0
DA:20,0
DA:22,0
DA:23,0
DA:25,0
DA:26,0
DA:27,0
DA:32,1
DA:33,2
DA:34,1
DA:35,0
DA:37,1
DA:38,1
DA:47,1
DA:48,1
DA:49,1
DA:50,1
DA:51,1
DA:52,1
DA:53,1
DA:54,1
DA:55,1
DA:56,1
DA:57,1
DA:58,1
DA:59,1
DA:60,1
DA:61,1
DA:62,1
DA:63,1
DA:64,2
DA:65,1
DA:66,1
DA:67,1
DA:68,1
DA:69,1
DA:70,1
DA:71,1
DA:72,1
DA:73,1
DA:74,1
DA:75,1
BRF:0
BRH:0
LF:48
LH:36
end_of_record
SF:crates/libcgroups/src/v1/perf_event.rs
FN:37,_RNCNvNtNtNtCslEpTaKix7hR_10libcgroups2v110perf_event5testss_13test_add_task0B9_
FN:15,_RNvXNtNtCslEpTaKix7hR_10libcgroups2v110perf_eventNtB2_9PerfEventNtNtB4_10controller10Controller15needs_to_handle
FN:11,_RNvXNtNtCslEpTaKix7hR_10libcgroups2v110perf_eventNtB2_9PerfEventNtNtB4_10controller10Controller5apply
FN:30,_RNvNtNtNtCslEpTaKix7hR_10libcgroups2v110perf_event5testss_13test_add_task
FN:29,_RNCNvNtNtNtCslEpTaKix7hR_10libcgroups2v110perf_event5tests13test_add_task0B9_
FN:11,_RNvXNtNtCs6dyzbgxNKb8_10libcgroups2v110perf_eventNtB2_9PerfEventNtNtB4_10controller10Controller5apply
FN:15,_RNvXNtNtCs6dyzbgxNKb8_10libcgroups2v110perf_eventNtB2_9PerfEventNtNtB4_10controller10Controller15needs_to_handle
FNDA:0,_RNCNvNtNtNtCslEpTaKix7hR_10libcgroups2v110perf_event5testss_13test_add_task0B9_
FNDA:0,_RNvXNtNtCslEpTaKix7hR_10libcgroups2v110perf_eventNtB2_9PerfEventNtNtB4_10controller10Controller15needs_to_handle
FNDA:0,_RNvXNtNtCslEpTaKix7hR_10libcgroups2v110perf_eventNtB2_9PerfEventNtNtB4_10controller10Controller5apply
FNDA:1,_RNvNtNtNtCslEpTaKix7hR_10libcgroups2v110perf_event5testss_13test_add_task
FNDA:1,_RNCNvNtNtNtCslEpTaKix7hR_10libcgroups2v110perf_event5tests13test_add_task0B9_
FNDA:0,_RNvXNtNtCs6dyzbgxNKb8_10libcgroups2v110perf_eventNtB2_9PerfEventNtNtB4_10controller10Controller5apply
FNDA:0,_RNvXNtNtCs6dyzbgxNKb8_10libcgroups2v110perf_eventNtB2_9PerfEventNtNtB4_10controller10Controller15needs_to_handle
FNF:5
FNH:2
DA:11,0
DA:12,0
DA:13,0
DA:15,0
DA:16,0
DA:17,0
DA:29,1
DA:30,1
DA:31,1
DA:32,1
DA:33,1
DA:34,1
DA:35,1
DA:36,1
DA:37,1
DA:38,1
DA:39,1
BRF:0
BRH:0
LF:18
LH:11
end_of_record
SF:crates/libcgroups/src/v1/pids.rs
FN:30,_RNvXNtNtCslEpTaKix7hR_10libcgroups2v14pidsNtB2_4PidsNtNtB4_10controller10Controller15needs_to_handle
FN:44,_RNvMs0_NtNtCslEpTaKix7hR_10libcgroups2v14pidsNtB5_4Pids5apply
FN:38,_RNvXs_NtNtCslEpTaKix7hR_10libcgroups2v14pidsNtB4_4PidsNtNtB8_5stats13StatsProvider5stats
FN:20,_RNvXNtNtCslEpTaKix7hR_10libcgroups2v14pidsNtB2_4PidsNtNtB4_10controller10Controller5apply
FN:66,_RNvNtNtNtCslEpTaKix7hR_10libcgroups2v14pids5testss_13test_set_pids
FN:104,_RNCNvNtNtNtCslEpTaKix7hR_10libcgroups2v14pids5tests18test_stat_pids_max0B9_
FN:79,_RNvNtNtNtCslEpTaKix7hR_10libcgroups2v14pids5testss_17test_set_pids_max
FN:65,_RNCNvNtNtNtCslEpTaKix7hR_10libcgroups2v14pids5tests13test_set_pids0B9_
FN:78,_RNCNvNtNtNtCslEpTaKix7hR_10libcgroups2v14pids5tests17test_set_pids_max0B9_
FN:93,_RNvNtNtNtCslEpTaKix7hR_10libcgroups2v14pids5testss_14test_stat_pids
FN:105,_RNvNtNtNtCslEpTaKix7hR_10libcgroups2v14pids5testss_18test_stat_pids_max
FN:92,_RNCNvNtNtNtCslEpTaKix7hR_10libcgroups2v14pids5tests14test_stat_pids0B9_
FN:38,_RNvXs_NtNtCs6dyzbgxNKb8_10libcgroups2v14pidsNtB4_4PidsNtNtB8_5stats13StatsProvider5stats
FN:30,_RNvXNtNtCs6dyzbgxNKb8_10libcgroups2v14pidsNtB2_4PidsNtNtB4_10controller10Controller15needs_to_handle
FN:20,_RNvXNtNtCs6dyzbgxNKb8_10libcgroups2v14pidsNtB2_4PidsNtNtB4_10controller10Controller5apply
FN:44,_RNvMs0_NtNtCs6dyzbgxNKb8_10libcgroups2v14pidsNtB5_4Pids5apply
FNDA:0,_RNvXNtNtCslEpTaKix7hR_10libcgroups2v14pidsNtB2_4PidsNtNtB4_10controller10Controller15needs_to_handle
FNDA:2,_RNvMs0_NtNtCslEpTaKix7hR_10libcgroups2v14pidsNtB5_4Pids5apply
FNDA:2,_RNvXs_NtNtCslEpTaKix7hR_10libcgroups2v14pidsNtB4_4PidsNtNtB8_5stats13StatsProvider5stats
FNDA:0,_RNvXNtNtCslEpTaKix7hR_10libcgroups2v14pidsNtB2_4PidsNtNtB4_10controller10Controller5apply
FNDA:1,_RNvNtNtNtCslEpTaKix7hR_10libcgroups2v14pids5testss_13test_set_pids
FNDA:1,_RNCNvNtNtNtCslEpTaKix7hR_10libcgroups2v14pids5tests18test_stat_pids_max0B9_
FNDA:1,_RNvNtNtNtCslEpTaKix7hR_10libcgroups2v14pids5testss_17test_set_pids_max
FNDA:1,_RNCNvNtNtNtCslEpTaKix7hR_10libcgroups2v14pids5tests13test_set_pids0B9_
FNDA:1,_RNCNvNtNtNtCslEpTaKix7hR_10libcgroups2v14pids5tests17test_set_pids_max0B9_
FNDA:1,_RNvNtNtNtCslEpTaKix7hR_10libcgroups2v14pids5testss_14test_stat_pids
FNDA:1,_RNvNtNtNtCslEpTaKix7hR_10libcgroups2v14pids5testss_18test_stat_pids_max
FNDA:1,_RNCNvNtNtNtCslEpTaKix7hR_10libcgroups2v14pids5tests14test_stat_pids0B9_
FNDA:0,_RNvXs_NtNtCs6dyzbgxNKb8_10libcgroups2v14pidsNtB4_4PidsNtNtB8_5stats13StatsProvider5stats
FNDA:0,_RNvXNtNtCs6dyzbgxNKb8_10libcgroups2v14pidsNtB2_4PidsNtNtB4_10controller10Controller15needs_to_handle
FNDA:0,_RNvXNtNtCs6dyzbgxNKb8_10libcgroups2v14pidsNtB2_4PidsNtNtB4_10controller10Controller5apply
FNDA:0,_RNvMs0_NtNtCs6dyzbgxNKb8_10libcgroups2v14pidsNtB5_4Pids5apply
FNF:12
FNH:10
DA:20,0
DA:21,0
DA:23,0
DA:24,0
DA:25,0
DA:27,0
DA:28,0
DA:30,0
DA:31,0
DA:32,0
DA:38,2
DA:39,2
DA:40,2
DA:44,2
DA:45,2
DA:46,1
DA:48,1
DA:51,2
DA:52,2
DA:53,2
DA:65,1
DA:66,1
DA:67,1
DA:68,1
DA:69,1
DA:70,1
DA:71,1
DA:72,1
DA:73,1
DA:74,1
DA:75,1
DA:76,1
DA:78,1
DA:79,1
DA:80,1
DA:81,1
DA:82,1
DA:83,1
DA:84,1
DA:85,1
DA:86,1
DA:87,1
DA:88,1
DA:89,1
DA:90,1
DA:92,1
DA:93,1
DA:94,1
DA:95,1
DA:96,1
DA:97,1
DA:98,1
DA:99,1
DA:100,1
DA:101,1
DA:102,1
DA:104,1
DA:105,1
DA:106,1
DA:107,1
DA:108,1
DA:109,1
DA:110,1
DA:111,1
DA:112,1
DA:113,1
DA:114,1
BRF:0
BRH:0
LF:67
LH:57
end_of_record
SF:crates/libcgroups/src/v1/util.rs
FN:21,_RNvNtNtCs6dyzbgxNKb8_10libcgroups2v14util27list_supported_mount_points
FN:39,_RNCNvNtNtCs6dyzbgxNKb8_10libcgroups2v14util25get_subsystem_mount_point0B7_
FN:16,_RNCNvNtNtCs6dyzbgxNKb8_10libcgroups2v14util27list_subsystem_mount_pointss_0B7_
FN:65,_RNCNvNtNtCs6dyzbgxNKb8_10libcgroups2v14util25get_subsystem_mount_points_0B7_
FN:15,_RNCNvNtNtCs6dyzbgxNKb8_10libcgroups2v14util27list_subsystem_mount_points0B7_
FN:10,_RNvNtNtCs6dyzbgxNKb8_10libcgroups2v14util27list_subsystem_mount_points
FN:33,_RNvNtNtCs6dyzbgxNKb8_10libcgroups2v14util25get_subsystem_mount_point
FN:66,_RNCNvNtNtCs6dyzbgxNKb8_10libcgroups2v14util25get_subsystem_mount_points0_0B7_
FNDA:0,_RNvNtNtCs6dyzbgxNKb8_10libcgroups2v14util27list_supported_mount_points
FNDA:0,_RNCNvNtNtCs6dyzbgxNKb8_10libcgroups2v14util25get_subsystem_mount_point0B7_
FNDA:96,_RNCNvNtNtCs6dyzbgxNKb8_10libcgroups2v14util27list_subsystem_mount_pointss_0B7_
FNDA:0,_RNCNvNtNtCs6dyzbgxNKb8_10libcgroups2v14util25get_subsystem_mount_points_0B7_
FNDA:592,_RNCNvNtNtCs6dyzbgxNKb8_10libcgroups2v14util27list_subsystem_mount_points0B7_
FNDA:8,_RNvNtNtCs6dyzbgxNKb8_10libcgroups2v14util27list_subsystem_mount_points
FNDA:0,_RNvNtNtCs6dyzbgxNKb8_10libcgroups2v14util25get_subsystem_mount_point
FNDA:0,_RNCNvNtNtCs6dyzbgxNKb8_10libcgroups2v14util25get_subsystem_mount_points0_0B7_
FNF:8
FNH:3
DA:10,8
DA:11,8
DA:12,8
DA:13,8
DA:14,8
DA:15,592
DA:16,96
DA:17,8
DA:18,8
DA:21,0
DA:22,0
DA:24,0
DA:25,0
DA:26,0
DA:27,0
DA:30,0
DA:31,0
DA:33,0
DA:34,0
DA:35,0
DA:36,0
DA:37,0
DA:38,0
DA:39,0
DA:40,0
DA:44,0
DA:45,0
DA:46,0
DA:47,0
DA:48,0
DA:49,0
DA:50,0
DA:51,0
DA:52,0
DA:53,0
DA:54,0
DA:55,0
DA:56,0
DA:57,0
DA:58,0
DA:59,0
DA:60,0
DA:61,0
DA:62,0
DA:63,0
DA:64,0
DA:65,0
DA:66,0
DA:67,0
BRF:0
BRH:0
LF:55
LH:11
end_of_record
SF:crates/libcgroups/src/v2/controller_type.rs
FN:37,_RNvXs8_NtNtCslEpTaKix7hR_10libcgroups2v215controller_typeNtB5_20PseudoControllerTypeNtNtCshypYLURccL2_4core5clone5Clone5cloneB9_
FN:3,_RNvXs0_NtNtCslEpTaKix7hR_10libcgroups2v215controller_typeNtB5_14ControllerTypeNtNtCshypYLURccL2_4core5clone5Clone5cloneB9_
FN:37,_RINvXse_NtNtCslEpTaKix7hR_10libcgroups2v215controller_typeNtB6_20PseudoControllerTypeNtNtCshypYLURccL2_4core4hash4Hash4hashpEBa_
FN:14,_RNvXNtNtCslEpTaKix7hR_10libcgroups2v215controller_typeNtB2_14ControllerTypeNtNtCshypYLURccL2_4core3fmt7Display3fmt
FN:3,_RINvXs7_NtNtCslEpTaKix7hR_10libcgroups2v215controller_typeNtB6_14ControllerTypeNtNtCshypYLURccL2_4core4hash4Hash4hashpEBa_
FN:45,_RNvXs_NtNtCslEpTaKix7hR_10libcgroups2v215controller_typeNtB4_20PseudoControllerTypeNtNtCshypYLURccL2_4core3fmt7Display3fmt
FN:37,_RNvXsb_NtNtCslEpTaKix7hR_10libcgroups2v215controller_typeNtB5_20PseudoControllerTypeNtNtCshypYLURccL2_4core3cmp9PartialEq2eqB9_
FN:3,_RNvXs2_NtNtCslEpTaKix7hR_10libcgroups2v215controller_typeNtB5_14ControllerTypeNtNtCshypYLURccL2_4core3fmt5Debug3fmt
FN:3,_RNvXs4_NtNtCslEpTaKix7hR_10libcgroups2v215controller_typeNtB5_14ControllerTypeNtNtCshypYLURccL2_4core3cmp9PartialEq2eqB9_
FN:37,_RNvXsb_NtNtCs6dyzbgxNKb8_10libcgroups2v215controller_typeNtB5_20PseudoControllerTypeNtNtCshypYLURccL2_4core3cmp9PartialEq2eqB9_
FN:3,_RNvXs4_NtNtCs6dyzbgxNKb8_10libcgroups2v215controller_typeNtB5_14ControllerTypeNtNtCshypYLURccL2_4core3cmp9PartialEq2eqB9_
FN:37,_RINvXse_NtNtCs6dyzbgxNKb8_10libcgroups2v215controller_typeNtB6_20PseudoControllerTypeNtNtCshypYLURccL2_4core4hash4Hash4hashpEBa_
FN:37,_RNvXs8_NtNtCs6dyzbgxNKb8_10libcgroups2v215controller_typeNtB5_20PseudoControllerTypeNtNtCshypYLURccL2_4core5clone5Clone5cloneB9_
FN:3,_RNvXs2_NtNtCs6dyzbgxNKb8_10libcgroups2v215controller_typeNtB5_14ControllerTypeNtNtCshypYLURccL2_4core3fmt5Debug3fmt
FN:3,_RINvXs7_NtNtCs6dyzbgxNKb8_10libcgroups2v215controller_typeNtB6_14ControllerTypeNtNtCshypYLURccL2_4core4hash4Hash4hashpEBa_
FN:45,_RNvXs_NtNtCs6dyzbgxNKb8_10libcgroups2v215controller_typeNtB4_20PseudoControllerTypeNtNtCshypYLURccL2_4core3fmt7Display3fmt
FN:3,_RNvXs0_NtNtCs6dyzbgxNKb8_10libcgroups2v215controller_typeNtB5_14ControllerTypeNtNtCshypYLURccL2_4core5clone5Clone5cloneB9_
FN:14,_RNvXNtNtCs6dyzbgxNKb8_10libcgroups2v215controller_typeNtB2_14ControllerTypeNtNtCshypYLURccL2_4core3fmt7Display3fmt
FNDA:0,_RNvXs8_NtNtCslEpTaKix7hR_10libcgroups2v215controller_typeNtB5_20PseudoControllerTypeNtNtCshypYLURccL2_4core5clone5Clone5cloneB9_
FNDA:0,_RNvXs0_NtNtCslEpTaKix7hR_10libcgroups2v215controller_typeNtB5_14ControllerTypeNtNtCshypYLURccL2_4core5clone5Clone5cloneB9_
FNDA:0,_RINvXse_NtNtCslEpTaKix7hR_10libcgroups2v215controller_typeNtB6_20PseudoControllerTypeNtNtCshypYLURccL2_4core4hash4Hash4hashpEBa_
FNDA:1,_RNvXNtNtCslEpTaKix7hR_10libcgroups2v215controller_typeNtB2_14ControllerTypeNtNtCshypYLURccL2_4core3fmt7Display3fmt
FNDA:0,_RINvXs7_NtNtCslEpTaKix7hR_10libcgroups2v215controller_typeNtB6_14ControllerTypeNtNtCshypYLURccL2_4core4hash4Hash4hashpEBa_
FNDA:0,_RNvXs_NtNtCslEpTaKix7hR_10libcgroups2v215controller_typeNtB4_20PseudoControllerTypeNtNtCshypYLURccL2_4core3fmt7Display3fmt
FNDA:0,_RNvXsb_NtNtCslEpTaKix7hR_10libcgroups2v215controller_typeNtB5_20PseudoControllerTypeNtNtCshypYLURccL2_4core3cmp9PartialEq2eqB9_
FNDA:0,_RNvXs2_NtNtCslEpTaKix7hR_10libcgroups2v215controller_typeNtB5_14ControllerTypeNtNtCshypYLURccL2_4core3fmt5Debug3fmt
FNDA:0,_RNvXs4_NtNtCslEpTaKix7hR_10libcgroups2v215controller_typeNtB5_14ControllerTypeNtNtCshypYLURccL2_4core3cmp9PartialEq2eqB9_
FNDA:0,_RNvXsb_NtNtCs6dyzbgxNKb8_10libcgroups2v215controller_typeNtB5_20PseudoControllerTypeNtNtCshypYLURccL2_4core3cmp9PartialEq2eqB9_
FNDA:0,_RNvXs4_NtNtCs6dyzbgxNKb8_10libcgroups2v215controller_typeNtB5_14ControllerTypeNtNtCshypYLURccL2_4core3cmp9PartialEq2eqB9_
FNDA:0,_RINvXse_NtNtCs6dyzbgxNKb8_10libcgroups2v215controller_typeNtB6_20PseudoControllerTypeNtNtCshypYLURccL2_4core4hash4Hash4hashpEBa_
FNDA:0,_RNvXs8_NtNtCs6dyzbgxNKb8_10libcgroups2v215controller_typeNtB5_20PseudoControllerTypeNtNtCshypYLURccL2_4core5clone5Clone5cloneB9_
FNDA:0,_RNvXs2_NtNtCs6dyzbgxNKb8_10libcgroups2v215controller_typeNtB5_14ControllerTypeNtNtCshypYLURccL2_4core3fmt5Debug3fmt
FNDA:0,_RINvXs7_NtNtCs6dyzbgxNKb8_10libcgroups2v215controller_typeNtB6_14ControllerTypeNtNtCshypYLURccL2_4core4hash4Hash4hashpEBa_
FNDA:0,_RNvXs_NtNtCs6dyzbgxNKb8_10libcgroups2v215controller_typeNtB4_20PseudoControllerTypeNtNtCshypYLURccL2_4core3fmt7Display3fmt
FNDA:0,_RNvXs0_NtNtCs6dyzbgxNKb8_10libcgroups2v215controller_typeNtB5_14ControllerTypeNtNtCshypYLURccL2_4core5clone5Clone5cloneB9_
FNDA:0,_RNvXNtNtCs6dyzbgxNKb8_10libcgroups2v215controller_typeNtB2_14ControllerTypeNtNtCshypYLURccL2_4core3fmt7Display3fmt
FNF:9
FNH:1
DA:3,0
DA:14,1
DA:15,1
DA:16,0
DA:17,0
DA:18,0
DA:19,0
DA:20,1
DA:21,0
DA:24,1
DA:25,1
DA:37,0
DA:45,0
DA:46,0
DA:47,0
DA:48,0
DA:49,0
DA:52,0
DA:53,0
BRF:0
BRH:0
LF:24
LH:5
end_of_record
SF:crates/libcgroups/src/v2/cpu.rs
FN:118,_RNvMs0_NtNtCslEpTaKix7hR_10libcgroups2v23cpuNtB5_3Cpu24create_period_only_value
FN:24,_RNvXNtNtCslEpTaKix7hR_10libcgroups2v23cpuNtB2_3CpuNtNtB4_10controller10Controller5apply
FN:106,_RNvMs0_NtNtCslEpTaKix7hR_10libcgroups2v23cpuNtB5_3Cpu21is_realtime_requested
FN:97,_RNvMs0_NtNtCslEpTaKix7hR_10libcgroups2v23cpuNtB5_3Cpu25convert_shares_to_cgroup2
FN:35,_RNvXs_NtNtCslEpTaKix7hR_10libcgroups2v23cpuNtB4_3CpuNtNtB8_5stats13StatsProvider5stats
FN:59,_RNvMs0_NtNtCslEpTaKix7hR_10libcgroups2v23cpuNtB5_3Cpu5apply
FN:134,_RNCNvNtNtNtCslEpTaKix7hR_10libcgroups2v23cpu5tests21test_set_valid_shares0B9_
FN:182,_RNCNvNtNtNtCslEpTaKix7hR_10libcgroups2v23cpu5tests24test_set_positive_period0B9_
FN:152,_RNvNtNtNtCslEpTaKix7hR_10libcgroups2v23cpu5testss_23test_set_positive_quota
FN:163,_RNCNvNtNtNtCslEpTaKix7hR_10libcgroups2v23cpu5testss_23test_set_positive_quota0B9_
FN:241,_RNCNvNtNtNtCslEpTaKix7hR_10libcgroups2v23cpu5tests34test_realtime_period_not_supported0B9_
FN:135,_RNvNtNtNtCslEpTaKix7hR_10libcgroups2v23cpu5testss_21test_set_valid_shares
FN:151,_RNCNvNtNtNtCslEpTaKix7hR_10libcgroups2v23cpu5tests23test_set_positive_quota0B9_
FN:139,_RNCNvNtNtNtCslEpTaKix7hR_10libcgroups2v23cpu5testss_21test_set_valid_shares0B9_
FN:183,_RNvNtNtNtCslEpTaKix7hR_10libcgroups2v23cpu5testss_24test_set_positive_period
FN:196,_RNCNvNtNtNtCslEpTaKix7hR_10libcgroups2v23cpu5testss_24test_set_positive_period0B9_
FN:168,_RNvNtNtNtCslEpTaKix7hR_10libcgroups2v23cpu5testss_23test_set_negative_quota
FN:217,_RNCNvNtNtNtCslEpTaKix7hR_10libcgroups2v23cpu5testss_25test_set_quota_and_period0B9_
FN:201,_RNvNtNtNtCslEpTaKix7hR_10libcgroups2v23cpu5testss_25test_set_quota_and_period
FN:242,_RNvNtNtNtCslEpTaKix7hR_10libcgroups2v23cpu5testss_34test_realtime_period_not_supported
FN:167,_RNCNvNtNtNtCslEpTaKix7hR_10libcgroups2v23cpu5tests23test_set_negative_quota0B9_
FN:261,_RNCNvNtNtNtCslEpTaKix7hR_10libcgroups2v23cpu5tests15test_stat_usage0B9_
FN:200,_RNCNvNtNtNtCslEpTaKix7hR_10libcgroups2v23cpu5tests25test_set_quota_and_period0B9_
FN:178,_RNCNvNtNtNtCslEpTaKix7hR_10libcgroups2v23cpu5testss_23test_set_negative_quota0B9_
FN:221,_RNCNvNtNtNtCslEpTaKix7hR_10libcgroups2v23cpu5tests35test_realtime_runtime_not_supported0B9_
FN:262,_RNvNtNtNtCslEpTaKix7hR_10libcgroups2v23cpu5testss_15test_stat_usage
FN:147,_RNCNvNtNtNtCslEpTaKix7hR_10libcgroups2v23cpu5testss_21test_set_valid_sharess_0B9_
FN:222,_RNvNtNtNtCslEpTaKix7hR_10libcgroups2v23cpu5testss_35test_realtime_runtime_not_supported
FN:35,_RNvXs_NtNtCs6dyzbgxNKb8_10libcgroups2v23cpuNtB4_3CpuNtNtB8_5stats13StatsProvider5stats
FN:59,_RNvMs0_NtNtCs6dyzbgxNKb8_10libcgroups2v23cpuNtB5_3Cpu5apply
FN:24,_RNvXNtNtCs6dyzbgxNKb8_10libcgroups2v23cpuNtB2_3CpuNtNtB4_10controller10Controller5apply
FN:97,_RNvMs0_NtNtCs6dyzbgxNKb8_10libcgroups2v23cpuNtB5_3Cpu25convert_shares_to_cgroup2
FN:106,_RNvMs0_NtNtCs6dyzbgxNKb8_10libcgroups2v23cpuNtB5_3Cpu21is_realtime_requested
FN:118,_RNvMs0_NtNtCs6dyzbgxNKb8_10libcgroups2v23cpuNtB5_3Cpu24create_period_only_value
FNDA:1,_RNvMs0_NtNtCslEpTaKix7hR_10libcgroups2v23cpuNtB5_3Cpu24create_period_only_value
FNDA:0,_RNvXNtNtCslEpTaKix7hR_10libcgroups2v23cpuNtB2_3CpuNtNtB4_10controller10Controller5apply
FNDA:7,_RNvMs0_NtNtCslEpTaKix7hR_10libcgroups2v23cpuNtB5_3Cpu21is_realtime_requested
FNDA:1,_RNvMs0_NtNtCslEpTaKix7hR_10libcgroups2v23cpuNtB5_3Cpu25convert_shares_to_cgroup2
FNDA:1,_RNvXs_NtNtCslEpTaKix7hR_10libcgroups2v23cpuNtB4_3CpuNtNtB8_5stats13StatsProvider5stats
FNDA:7,_RNvMs0_NtNtCslEpTaKix7hR_10libcgroups2v23cpuNtB5_3Cpu5apply
FNDA:1,_RNCNvNtNtNtCslEpTaKix7hR_10libcgroups2v23cpu5tests21test_set_valid_shares0B9_
FNDA:1,_RNCNvNtNtNtCslEpTaKix7hR_10libcgroups2v23cpu5tests24test_set_positive_period0B9_
FNDA:1,_RNvNtNtNtCslEpTaKix7hR_10libcgroups2v23cpu5testss_23test_set_positive_quota
FNDA:0,_RNCNvNtNtNtCslEpTaKix7hR_10libcgroups2v23cpu5testss_23test_set_positive_quota0B9_
FNDA:1,_RNCNvNtNtNtCslEpTaKix7hR_10libcgroups2v23cpu5tests34test_realtime_period_not_supported0B9_
FNDA:1,_RNvNtNtNtCslEpTaKix7hR_10libcgroups2v23cpu5testss_21test_set_valid_shares
FNDA:1,_RNCNvNtNtNtCslEpTaKix7hR_10libcgroups2v23cpu5tests23test_set_positive_quota0B9_
FNDA:0,_RNCNvNtNtNtCslEpTaKix7hR_10libcgroups2v23cpu5testss_21test_set_valid_shares0B9_
FNDA:1,_RNvNtNtNtCslEpTaKix7hR_10libcgroups2v23cpu5testss_24test_set_positive_period
FNDA:0,_RNCNvNtNtNtCslEpTaKix7hR_10libcgroups2v23cpu5testss_24test_set_positive_period0B9_
FNDA:1,_RNvNtNtNtCslEpTaKix7hR_10libcgroups2v23cpu5testss_23test_set_negative_quota
FNDA:0,_RNCNvNtNtNtCslEpTaKix7hR_10libcgroups2v23cpu5testss_25test_set_quota_and_period0B9_
FNDA:1,_RNvNtNtNtCslEpTaKix7hR_10libcgroups2v23cpu5testss_25test_set_quota_and_period
FNDA:1,_RNvNtNtNtCslEpTaKix7hR_10libcgroups2v23cpu5testss_34test_realtime_period_not_supported
FNDA:1,_RNCNvNtNtNtCslEpTaKix7hR_10libcgroups2v23cpu5tests23test_set_negative_quota0B9_
FNDA:1,_RNCNvNtNtNtCslEpTaKix7hR_10libcgroups2v23cpu5tests15test_stat_usage0B9_
FNDA:1,_RNCNvNtNtNtCslEpTaKix7hR_10libcgroups2v23cpu5tests25test_set_quota_and_period0B9_
FNDA:0,_RNCNvNtNtNtCslEpTaKix7hR_10libcgroups2v23cpu5testss_23test_set_negative_quota0B9_
FNDA:1,_RNCNvNtNtNtCslEpTaKix7hR_10libcgroups2v23cpu5tests35test_realtime_runtime_not_supported0B9_
FNDA:1,_RNvNtNtNtCslEpTaKix7hR_10libcgroups2v23cpu5testss_15test_stat_usage
FNDA:0,_RNCNvNtNtNtCslEpTaKix7hR_10libcgroups2v23cpu5testss_21test_set_valid_sharess_0B9_
FNDA:1,_RNvNtNtNtCslEpTaKix7hR_10libcgroups2v23cpu5testss_35test_realtime_runtime_not_supported
FNDA:0,_RNvXs_NtNtCs6dyzbgxNKb8_10libcgroups2v23cpuNtB4_3CpuNtNtB8_5stats13StatsProvider5stats
FNDA:0,_RNvMs0_NtNtCs6dyzbgxNKb8_10libcgroups2v23cpuNtB5_3Cpu5apply
FNDA:0,_RNvXNtNtCs6dyzbgxNKb8_10libcgroups2v23cpuNtB2_3CpuNtNtB4_10controller10Controller5apply
FNDA:0,_RNvMs0_NtNtCs6dyzbgxNKb8_10libcgroups2v23cpuNtB5_3Cpu25convert_shares_to_cgroup2
FNDA:0,_RNvMs0_NtNtCs6dyzbgxNKb8_10libcgroups2v23cpuNtB5_3Cpu21is_realtime_requested
FNDA:0,_RNvMs0_NtNtCs6dyzbgxNKb8_10libcgroups2v23cpuNtB5_3Cpu24create_period_only_value
FNF:28
FNH:21
DA:24,0
DA:25,0
DA:26,0
DA:28,0
DA:29,0
DA:35,1
DA:36,1
DA:38,1
DA:39,3
DA:40,3
DA:41,3
DA:42,0
DA:43,3
DA:45,3
DA:46,3
DA:47,3
DA:48,2
DA:49,1
DA:50,0
DA:54,1
DA:55,1
DA:59,7
DA:60,7
DA:61,2
DA:62,5
DA:64,5
DA:65,1
DA:66,1
DA:68,1
DA:69,0
DA:70,4
DA:72,5
DA:73,5
DA:74,1
DA:75,2
DA:76,1
DA:77,1
DA:78,1
DA:80,0
DA:81,0
DA:83,1
DA:90,5
DA:91,4
DA:92,1
DA:94,5
DA:95,7
DA:97,1
DA:98,1
DA:99,0
DA:100,1
DA:101,1
DA:102,1
DA:103,1
DA:104,1
DA:106,7
DA:107,7
DA:108,1
DA:109,6
DA:110,6
DA:111,6
DA:112,1
DA:113,5
DA:114,5
DA:115,5
DA:116,7
DA:118,1
DA:119,1
DA:120,1
DA:121,1
DA:122,0
DA:123,0
DA:124,1
DA:134,1
DA:135,1
DA:136,1
DA:137,1
DA:138,1
DA:139,1
DA:140,1
DA:141,1
DA:142,1
DA:143,1
DA:144,1
DA:145,1
DA:146,1
DA:147,1
DA:148,1
DA:149,1
DA:151,1
DA:152,1
DA:153,1
DA:154,1
DA:155,1
DA:156,1
DA:157,1
DA:158,1
DA:159,1
DA:160,1
DA:161,1
DA:162,1
DA:163,1
DA:164,1
DA:165,1
DA:167,1
DA:168,1
DA:169,1
DA:170,1
DA:171,1
DA:172,1
DA:173,1
DA:174,1
DA:175,1
DA:176,1
DA:177,1
DA:178,1
DA:179,1
DA:180,1
DA:182,1
DA:183,1
DA:184,1
DA:185,1
DA:186,1
DA:187,1
DA:188,1
DA:189,1
DA:190,1
DA:191,1
DA:192,1
DA:193,1
DA:194,1
DA:195,1
DA:196,1
DA:197,1
DA:198,1
DA:200,1
DA:201,1
DA:202,1
DA:203,1
DA:204,1
DA:205,1
DA:206,1
DA:207,1
DA:208,1
DA:209,1
DA:210,1
DA:211,1
DA:212,1
DA:213,1
DA:214,1
DA:215,1
DA:216,1
DA:217,1
DA:218,1
DA:219,1
DA:221,1
DA:222,1
DA:223,1
DA:224,1
DA:225,1
DA:226,1
DA:227,1
DA:228,1
DA:229,1
DA:230,1
DA:231,1
DA:232,1
DA:233,1
DA:234,1
DA:235,1
DA:236,1
DA:237,0
DA:239,1
DA:241,1
DA:242,1
DA:243,1
DA:244,1
DA:245,1
DA:246,1
DA:247,1
DA:248,1
DA:249,1
DA:250,1
DA:251,1
DA:252,1
DA:253,1
DA:254,1
DA:255,1
DA:256,1
DA:257,0
DA:259,1
DA:261,1
DA:262,1
DA:263,1
DA:264,1
DA:265,1
DA:266,1
DA:267,1
DA:268,1
DA:269,1
DA:270,1
DA:271,1
DA:272,1
DA:273,1
DA:274,1
DA:275,1
DA:276,1
BRF:0
BRH:0
LF:212
LH:191
end_of_record
SF:crates/libcgroups/src/v2/cpuset.rs
FN:27,_RNvMs_NtNtCslEpTaKix7hR_10libcgroups2v26cpusetNtB4_6CpuSet5apply
FN:16,_RNvXNtNtCslEpTaKix7hR_10libcgroups2v26cpusetNtB2_6CpuSetNtNtB4_10controller10Controller5apply
FN:47,_RNCNvNtNtNtCslEpTaKix7hR_10libcgroups2v26cpuset5tests13test_set_cpus0B9_
FN:61,_RNCNvNtNtNtCslEpTaKix7hR_10libcgroups2v26cpuset5testss_13test_set_cpus0B9_
FN:66,_RNvNtNtNtCslEpTaKix7hR_10libcgroups2v26cpuset5testss_13test_set_mems
FN:48,_RNvNtNtNtCslEpTaKix7hR_10libcgroups2v26cpuset5testss_13test_set_cpus
FN:79,_RNCNvNtNtNtCslEpTaKix7hR_10libcgroups2v26cpuset5testss_13test_set_mems0B9_
FN:65,_RNCNvNtNtNtCslEpTaKix7hR_10libcgroups2v26cpuset5tests13test_set_mems0B9_
FN:27,_RNvMs_NtNtCs6dyzbgxNKb8_10libcgroups2v26cpusetNtB4_6CpuSet5apply
FN:16,_RNvXNtNtCs6dyzbgxNKb8_10libcgroups2v26cpusetNtB2_6CpuSetNtNtB4_10controller10Controller5apply
FNDA:1,_RNvMs_NtNtCslEpTaKix7hR_10libcgroups2v26cpusetNtB4_6CpuSet5apply
FNDA:0,_RNvXNtNtCslEpTaKix7hR_10libcgroups2v26cpusetNtB2_6CpuSetNtNtB4_10controller10Controller5apply
FNDA:1,_RNCNvNtNtNtCslEpTaKix7hR_10libcgroups2v26cpuset5tests13test_set_cpus0B9_
FNDA:0,_RNCNvNtNtNtCslEpTaKix7hR_10libcgroups2v26cpuset5testss_13test_set_cpus0B9_
FNDA:1,_RNvNtNtNtCslEpTaKix7hR_10libcgroups2v26cpuset5testss_13test_set_mems
FNDA:1,_RNvNtNtNtCslEpTaKix7hR_10libcgroups2v26cpuset5testss_13test_set_cpus
FNDA:0,_RNCNvNtNtNtCslEpTaKix7hR_10libcgroups2v26cpuset5testss_13test_set_mems0B9_
FNDA:1,_RNCNvNtNtNtCslEpTaKix7hR_10libcgroups2v26cpuset5tests13test_set_mems0B9_
FNDA:0,_RNvMs_NtNtCs6dyzbgxNKb8_10libcgroups2v26cpusetNtB4_6CpuSet5apply
FNDA:0,_RNvXNtNtCs6dyzbgxNKb8_10libcgroups2v26cpusetNtB2_6CpuSetNtNtB4_10controller10Controller5apply
FNF:8
FNH:5
DA:16,0
DA:17,0
DA:18,0
DA:19,0
DA:21,0
DA:22,0
DA:27,2
DA:28,1
DA:29,1
DA:31,2
DA:32,1
DA:33,1
DA:35,2
DA:36,2
DA:47,1
DA:48,1
DA:49,1
DA:50,1
DA:51,1
DA:52,1
DA:53,1
DA:54,1
DA:55,1
DA:56,1
DA:57,1
DA:58,1
DA:59,1
DA:60,1
DA:61,1
DA:62,1
DA:63,1
DA:65,1
DA:66,1
DA:67,1
DA:68,1
DA:69,1
DA:70,1
DA:71,1
DA:72,1
DA:73,1
DA:74,1
DA:75,1
DA:76,1
DA:77,1
DA:78,1
DA:79,1
DA:80,1
DA:81,1
BRF:0
BRH:0
LF:50
LH:42
end_of_record
SF:crates/libcgroups/src/v2/freezer.rs
FN:64,_RNvMs_NtNtCslEpTaKix7hR_10libcgroups2v27freezerNtB4_7Freezer18read_freezer_state
FN:30,_RNvMs_NtNtCslEpTaKix7hR_10libcgroups2v27freezerNtB4_7Freezer5apply
FN:21,_RNvXNtNtCslEpTaKix7hR_10libcgroups2v27freezerNtB2_7FreezerNtNtB4_10controller10Controller5apply
FN:81,_RNvMs_NtNtCslEpTaKix7hR_10libcgroups2v27freezerNtB4_7Freezer11wait_frozen
FN:142,_RNCNvNtNtNtCslEpTaKix7hR_10libcgroups2v27freezer5testss_22test_set_freezer_state0B9_
FN:130,_RNvNtNtNtCslEpTaKix7hR_10libcgroups2v27freezer5testss_22test_set_freezer_state
FN:129,_RNCNvNtNtNtCslEpTaKix7hR_10libcgroups2v27freezer5tests22test_set_freezer_state0B9_
FN:178,_RNCNvNtNtNtCslEpTaKix7hR_10libcgroups2v27freezer5tests28test_set_freezer_state_error0B9_
FN:179,_RNvNtNtNtCslEpTaKix7hR_10libcgroups2v27freezer5testss_28test_set_freezer_state_error
FN:30,_RNvMs_NtNtCs6dyzbgxNKb8_10libcgroups2v27freezerNtB4_7Freezer5apply
FN:64,_RNvMs_NtNtCs6dyzbgxNKb8_10libcgroups2v27freezerNtB4_7Freezer18read_freezer_state
FN:81,_RNvMs_NtNtCs6dyzbgxNKb8_10libcgroups2v27freezerNtB4_7Freezer11wait_frozen
FN:21,_RNvXNtNtCs6dyzbgxNKb8_10libcgroups2v27freezerNtB2_7FreezerNtNtB4_10controller10Controller5apply
FNDA:3,_RNvMs_NtNtCslEpTaKix7hR_10libcgroups2v27freezerNtB4_7Freezer18read_freezer_state
FNDA:4,_RNvMs_NtNtCslEpTaKix7hR_10libcgroups2v27freezerNtB4_7Freezer5apply
FNDA:0,_RNvXNtNtCslEpTaKix7hR_10libcgroups2v27freezerNtB2_7FreezerNtNtB4_10controller10Controller5apply
FNDA:2,_RNvMs_NtNtCslEpTaKix7hR_10libcgroups2v27freezerNtB4_7Freezer11wait_frozen
FNDA:1,_RNCNvNtNtNtCslEpTaKix7hR_10libcgroups2v27freezer5testss_22test_set_freezer_state0B9_
FNDA:1,_RNvNtNtNtCslEpTaKix7hR_10libcgroups2v27freezer5testss_22test_set_freezer_state
FNDA:1,_RNCNvNtNtNtCslEpTaKix7hR_10libcgroups2v27freezer5tests22test_set_freezer_state0B9_
FNDA:1,_RNCNvNtNtNtCslEpTaKix7hR_10libcgroups2v27freezer5tests28test_set_freezer_state_error0B9_
FNDA:1,_RNvNtNtNtCslEpTaKix7hR_10libcgroups2v27freezer5testss_28test_set_freezer_state_error
FNDA:0,_RNvMs_NtNtCs6dyzbgxNKb8_10libcgroups2v27freezerNtB4_7Freezer5apply
FNDA:0,_RNvMs_NtNtCs6dyzbgxNKb8_10libcgroups2v27freezerNtB4_7Freezer18read_freezer_state
FNDA:0,_RNvMs_NtNtCs6dyzbgxNKb8_10libcgroups2v27freezerNtB4_7Freezer11wait_frozen
FNDA:0,_RNvXNtNtCs6dyzbgxNKb8_10libcgroups2v27freezerNtB2_7FreezerNtNtB4_10controller10Controller5apply
FNF:9
FNH:8
DA:21,0
DA:22,0
DA:23,0
DA:25,0
DA:26,0
DA:30,4
DA:31,4
DA:32,1
DA:33,2
DA:34,1
DA:37,3
DA:38,3
DA:39,3
DA:40,3
DA:42,0
DA:43,0
DA:44,0
DA:45,0
DA:46,0
DA:48,3
DA:52,3
DA:53,3
DA:54,1
DA:55,1
DA:56,1
DA:57,1
DA:58,1
DA:59,2
DA:60,2
DA:61,2
DA:62,4
DA:64,3
DA:65,3
DA:66,3
DA:67,3
DA:68,3
DA:69,3
DA:70,3
DA:72,3
DA:73,3
DA:74,3
DA:75,2
DA:76,0
DA:78,3
DA:81,2
DA:82,2
DA:83,2
DA:84,2
DA:85,2
DA:86,2
DA:87,2
DA:88,2
DA:89,2
DA:90,2
DA:91,2
DA:93,23
DA:94,23
DA:95,0
DA:96,0
DA:97,0
DA:98,0
DA:99,23
DA:100,23
DA:101,23
DA:102,23
DA:103,1
DA:104,22
DA:105,22
DA:106,11
DA:107,1
DA:108,1
DA:109,0
DA:110,1
DA:111,10
DA:112,10
DA:113,10
DA:114,10
DA:115,11
DA:118,1
DA:119,2
DA:129,1
DA:130,1
DA:131,1
DA:132,1
DA:133,1
DA:134,1
DA:135,1
DA:136,1
DA:137,1
DA:138,1
DA:139,1
DA:140,1
DA:141,1
DA:142,1
DA:143,1
DA:144,1
DA:145,1
DA:146,1
DA:147,1
DA:148,1
DA:149,1
DA:150,1
DA:151,1
DA:152,1
DA:157,1
DA:158,1
DA:159,1
DA:160,1
DA:161,1
DA:162,1
DA:167,1
DA:168,1
DA:169,1
DA:170,1
DA:171,1
DA:172,1
DA:173,1
DA:174,1
DA:176,1
DA:178,1
DA:179,1
DA:180,1
DA:181,1
DA:182,1
DA:183,1
DA:184,1
DA:185,1
DA:186,1
DA:187,1
DA:188,1
DA:189,1
DA:191,1
BRF:0
BRH:0
LF:134
LH:118
end_of_record
SF:crates/libcgroups/src/v2/hugetlb.rs
FN:73,_RNCNvMs0_NtNtCslEpTaKix7hR_10libcgroups2v27hugetlbNtB7_7HugeTlb19stats_for_page_size0Bb_
FN:74,_RNCNvMs0_NtNtCslEpTaKix7hR_10libcgroups2v27hugetlbNtB7_7HugeTlb19stats_for_page_sizes_0Bb_
FN:50,_RNCNvMs0_NtNtCslEpTaKix7hR_10libcgroups2v27hugetlbNtB7_7HugeTlb5apply0Bb_
FN:68,_RNvMs0_NtNtCslEpTaKix7hR_10libcgroups2v27hugetlbNtB5_7HugeTlb19stats_for_page_size
FN:76,_RNCNvMs0_NtNtCslEpTaKix7hR_10libcgroups2v27hugetlbNtB7_7HugeTlb19stats_for_page_sizes0_0Bb_
FN:46,_RNvMs0_NtNtCslEpTaKix7hR_10libcgroups2v27hugetlbNtB5_7HugeTlb5apply
FN:64,_RNvMs0_NtNtCslEpTaKix7hR_10libcgroups2v27hugetlbNtB5_7HugeTlb15is_power_of_two
FN:30,_RNvXs_NtNtCslEpTaKix7hR_10libcgroups2v27hugetlbNtB4_7HugeTlbNtNtB8_5stats13StatsProvider5stats
FN:15,_RNvXNtNtCslEpTaKix7hR_10libcgroups2v27hugetlbNtB2_7HugeTlbNtNtB4_10controller10Controller5apply
FN:138,_RNCNvNvNtNtNtCslEpTaKix7hR_10libcgroups2v27hugetlb5testss_25property_test_set_hugetlb4prop0Bb_
FN:95,_RNvNtNtNtCslEpTaKix7hR_10libcgroups2v27hugetlb5testss_16test_set_hugetlb
FN:128,_RNCNvNtNtNtCslEpTaKix7hR_10libcgroups2v27hugetlb5tests25property_test_set_hugetlb0B9_
FN:111,_RNvNtNtNtCslEpTaKix7hR_10libcgroups2v27hugetlb5testss_39test_set_hugetlb_with_invalid_page_size
FN:152,_RNCNvNtNtNtCslEpTaKix7hR_10libcgroups2v27hugetlb5tests17test_stat_hugetbl0B9_
FN:94,_RNCNvNtNtNtCslEpTaKix7hR_10libcgroups2v27hugetlb5tests16test_set_hugetlb0B9_
FN:110,_RNCNvNtNtNtCslEpTaKix7hR_10libcgroups2v27hugetlb5tests39test_set_hugetlb_with_invalid_page_size0B9_
FN:153,_RNvNtNtNtCslEpTaKix7hR_10libcgroups2v27hugetlb5testss_17test_stat_hugetbl
FN:30,_RNvXs_NtNtCs6dyzbgxNKb8_10libcgroups2v27hugetlbNtB4_7HugeTlbNtNtB8_5stats13StatsProvider5stats
FN:50,_RNCNvMs0_NtNtCs6dyzbgxNKb8_10libcgroups2v27hugetlbNtB7_7HugeTlb5apply0Bb_
FN:46,_RNvMs0_NtNtCs6dyzbgxNKb8_10libcgroups2v27hugetlbNtB5_7HugeTlb5apply
FN:68,_RNvMs0_NtNtCs6dyzbgxNKb8_10libcgroups2v27hugetlbNtB5_7HugeTlb19stats_for_page_size
FN:73,_RNCNvMs0_NtNtCs6dyzbgxNKb8_10libcgroups2v27hugetlbNtB7_7HugeTlb19stats_for_page_size0Bb_
FN:15,_RNvXNtNtCs6dyzbgxNKb8_10libcgroups2v27hugetlbNtB2_7HugeTlbNtNtB4_10controller10Controller5apply
FN:76,_RNCNvMs0_NtNtCs6dyzbgxNKb8_10libcgroups2v27hugetlbNtB7_7HugeTlb19stats_for_page_sizes0_0Bb_
FN:74,_RNCNvMs0_NtNtCs6dyzbgxNKb8_10libcgroups2v27hugetlbNtB7_7HugeTlb19stats_for_page_sizes_0Bb_
FN:64,_RNvMs0_NtNtCs6dyzbgxNKb8_10libcgroups2v27hugetlbNtB5_7HugeTlb15is_power_of_two
FNDA:1,_RNCNvMs0_NtNtCslEpTaKix7hR_10libcgroups2v27hugetlbNtB7_7HugeTlb19stats_for_page_size0Bb_
FNDA:1,_RNCNvMs0_NtNtCslEpTaKix7hR_10libcgroups2v27hugetlbNtB7_7HugeTlb19stats_for_page_sizes_0Bb_
FNDA:1902,_RNCNvMs0_NtNtCslEpTaKix7hR_10libcgroups2v27hugetlbNtB7_7HugeTlb5apply0Bb_
FNDA:1,_RNvMs0_NtNtCslEpTaKix7hR_10libcgroups2v27hugetlbNtB5_7HugeTlb19stats_for_page_size
FNDA:0,_RNCNvMs0_NtNtCslEpTaKix7hR_10libcgroups2v27hugetlbNtB7_7HugeTlb19stats_for_page_sizes0_0Bb_
FNDA:102,_RNvMs0_NtNtCslEpTaKix7hR_10libcgroups2v27hugetlbNtB5_7HugeTlb5apply
FNDA:202,_RNvMs0_NtNtCslEpTaKix7hR_10libcgroups2v27hugetlbNtB5_7HugeTlb15is_power_of_two
FNDA:0,_RNvXs_NtNtCslEpTaKix7hR_10libcgroups2v27hugetlbNtB4_7HugeTlbNtNtB8_5stats13StatsProvider5stats
FNDA:0,_RNvXNtNtCslEpTaKix7hR_10libcgroups2v27hugetlbNtB2_7HugeTlbNtNtB4_10controller10Controller5apply
FNDA:1898,_RNCNvNvNtNtNtCslEpTaKix7hR_10libcgroups2v27hugetlb5testss_25property_test_set_hugetlb4prop0Bb_
FNDA:1,_RNvNtNtNtCslEpTaKix7hR_10libcgroups2v27hugetlb5testss_16test_set_hugetlb
FNDA:1,_RNCNvNtNtNtCslEpTaKix7hR_10libcgroups2v27hugetlb5tests25property_test_set_hugetlb0B9_
FNDA:1,_RNvNtNtNtCslEpTaKix7hR_10libcgroups2v27hugetlb5testss_39test_set_hugetlb_with_invalid_page_size
FNDA:1,_RNCNvNtNtNtCslEpTaKix7hR_10libcgroups2v27hugetlb5tests17test_stat_hugetbl0B9_
FNDA:1,_RNCNvNtNtNtCslEpTaKix7hR_10libcgroups2v27hugetlb5tests16test_set_hugetlb0B9_
FNDA:1,_RNCNvNtNtNtCslEpTaKix7hR_10libcgroups2v27hugetlb5tests39test_set_hugetlb_with_invalid_page_size0B9_
FNDA:1,_RNvNtNtNtCslEpTaKix7hR_10libcgroups2v27hugetlb5testss_17test_stat_hugetbl
FNDA:0,_RNvXs_NtNtCs6dyzbgxNKb8_10libcgroups2v27hugetlbNtB4_7HugeTlbNtNtB8_5stats13StatsProvider5stats
FNDA:0,_RNCNvMs0_NtNtCs6dyzbgxNKb8_10libcgroups2v27hugetlbNtB7_7HugeTlb5apply0Bb_
FNDA:0,_RNvMs0_NtNtCs6dyzbgxNKb8_10libcgroups2v27hugetlbNtB5_7HugeTlb5apply
FNDA:0,_RNvMs0_NtNtCs6dyzbgxNKb8_10libcgroups2v27hugetlbNtB5_7HugeTlb19stats_for_page_size
FNDA:0,_RNCNvMs0_NtNtCs6dyzbgxNKb8_10libcgroups2v27hugetlbNtB7_7HugeTlb19stats_for_page_size0Bb_
FNDA:0,_RNvXNtNtCs6dyzbgxNKb8_10libcgroups2v27hugetlbNtB2_7HugeTlbNtNtB4_10controller10Controller5apply
FNDA:0,_RNCNvMs0_NtNtCs6dyzbgxNKb8_10libcgroups2v27hugetlbNtB7_7HugeTlb19stats_for_page_sizes0_0Bb_
FNDA:0,_RNCNvMs0_NtNtCs6dyzbgxNKb8_10libcgroups2v27hugetlbNtB7_7HugeTlb19stats_for_page_sizes_0Bb_
FNDA:0,_RNvMs0_NtNtCs6dyzbgxNKb8_10libcgroups2v27hugetlbNtB5_7HugeTlb15is_power_of_two
FNF:17
FNH:14
DA:15,0
DA:16,0
DA:17,0
DA:18,0
DA:19,0
DA:20,0
DA:22,0
DA:23,0
DA:24,0
DA:30,0
DA:31,0
DA:32,0
DA:34,0
DA:35,0
DA:36,0
DA:37,0
DA:41,0
DA:42,0
DA:46,102
DA:47,102
DA:48,102
DA:49,102
DA:50,1902
DA:51,102
DA:52,102
DA:53,102
DA:54,96
DA:55,6
DA:56,6
DA:57,6
DA:58,6
DA:59,6
DA:60,6
DA:61,1
DA:62,102
DA:64,202
DA:65,202
DA:66,202
DA:68,1
DA:69,1
DA:70,1
DA:71,1
DA:72,1
DA:73,1
DA:74,1
DA:75,1
DA:76,1
DA:77,1
DA:78,1
DA:79,1
DA:80,1
DA:81,1
DA:82,1
DA:84,1
DA:94,1
DA:95,1
DA:96,1
DA:97,1
DA:98,1
DA:99,1
DA:100,1
DA:101,1
DA:102,1
DA:103,1
DA:104,1
DA:105,1
DA:106,1
DA:107,1
DA:108,1
DA:110,1
DA:111,1
DA:112,1
DA:113,1
DA:114,1
DA:115,1
DA:116,1
DA:117,1
DA:118,1
DA:119,1
DA:120,1
DA:121,1
DA:122,1
DA:123,1
DA:124,0
DA:126,1
DA:128,1
DA:129,1
DA:130,1
DA:131,1
DA:132,1
DA:133,1
DA:134,1
DA:135,1
DA:136,1
DA:137,1
DA:138,1898
DA:139,1
DA:140,1
DA:141,1
DA:142,1
DA:143,1
DA:144,1
DA:145,1
DA:146,1
DA:147,1
DA:148,1
DA:149,1
DA:150,1
DA:152,1
DA:153,1
DA:154,1
DA:155,1
DA:156,1
DA:157,1
DA:158,1
DA:159,1
DA:160,1
DA:161,1
DA:162,1
DA:163,1
DA:164,1
DA:165,1
DA:166,1
BRF:0
BRH:0
LF:128
LH:108
end_of_record
SF:crates/libcgroups/src/v2/io.rs
FN:20,_RNvXNtNtCslEpTaKix7hR_10libcgroups2v22ioNtB2_2IoNtNtB4_10controller10Controller5apply
FN:32,_RNvXs_NtNtCslEpTaKix7hR_10libcgroups2v22ioNtB4_2IoNtNtB8_5stats13StatsProvider5stats
FN:99,_RNvMs0_NtNtCslEpTaKix7hR_10libcgroups2v22ioNtB5_2Io5apply
FN:93,_RNvMs0_NtNtCslEpTaKix7hR_10libcgroups2v22ioNtB5_2Io11io_max_path
FN:86,_RNvMs0_NtNtCslEpTaKix7hR_10libcgroups2v22ioNtB5_2Io28convert_cfq_io_weight_to_bfq
FN:273,_RNCNvNtNtNtCslEpTaKix7hR_10libcgroups2v22io4tests_24test_set_ioweight_device0B9_
FN:178,_RNvNtNtNtCslEpTaKix7hR_10libcgroups2v22io4tests_20test_set_io_read_bps
FN:258,_RNvNtNtNtCslEpTaKix7hR_10libcgroups2v22io4tests_24test_set_ioweight_device
FN:252,_RNCNvNtNtNtCslEpTaKix7hR_10libcgroups2v22io4tests_22test_set_io_write_iops0B9_
FN:217,_RNCNvNtNtNtCslEpTaKix7hR_10libcgroups2v22io4test21test_set_io_read_iops0B9_
FN:232,_RNCNvNtNtNtCslEpTaKix7hR_10libcgroups2v22io4tests_21test_set_io_read_iops0B9_
FN:279,_RNvNtNtNtCslEpTaKix7hR_10libcgroups2v22io4tests_17test_set_ioweight
FN:278,_RNCNvNtNtNtCslEpTaKix7hR_10libcgroups2v22io4test17test_set_ioweight0B9_
FN:212,_RNCNvNtNtNtCslEpTaKix7hR_10libcgroups2v22io4tests_21test_set_io_write_bps0B9_
FN:197,_RNCNvNtNtNtCslEpTaKix7hR_10libcgroups2v22io4test21test_set_io_write_bps0B9_
FN:310,_RNvNtNtNtCslEpTaKix7hR_10libcgroups2v22io4tests_12test_stat_io
FN:238,_RNvNtNtNtCslEpTaKix7hR_10libcgroups2v22io4tests_22test_set_io_write_iops
FN:177,_RNCNvNtNtNtCslEpTaKix7hR_10libcgroups2v22io4test20test_set_io_read_bps0B9_
FN:237,_RNCNvNtNtNtCslEpTaKix7hR_10libcgroups2v22io4test22test_set_io_write_iops0B9_
FN:218,_RNvNtNtNtCslEpTaKix7hR_10libcgroups2v22io4tests_21test_set_io_read_iops
FN:198,_RNvNtNtNtCslEpTaKix7hR_10libcgroups2v22io4tests_21test_set_io_write_bps
FN:309,_RNCNvNtNtNtCslEpTaKix7hR_10libcgroups2v22io4test12test_stat_io0B9_
FN:257,_RNCNvNtNtNtCslEpTaKix7hR_10libcgroups2v22io4test24test_set_ioweight_device0B9_
FN:192,_RNCNvNtNtNtCslEpTaKix7hR_10libcgroups2v22io4tests_20test_set_io_read_bps0B9_
FN:20,_RNvXNtNtCs6dyzbgxNKb8_10libcgroups2v22ioNtB2_2IoNtNtB4_10controller10Controller5apply
FN:32,_RNvXs_NtNtCs6dyzbgxNKb8_10libcgroups2v22ioNtB4_2IoNtNtB8_5stats13StatsProvider5stats
FN:93,_RNvMs0_NtNtCs6dyzbgxNKb8_10libcgroups2v22ioNtB5_2Io11io_max_path
FN:86,_RNvMs0_NtNtCs6dyzbgxNKb8_10libcgroups2v22ioNtB5_2Io28convert_cfq_io_weight_to_bfq
FN:99,_RNvMs0_NtNtCs6dyzbgxNKb8_10libcgroups2v22ioNtB5_2Io5apply
FNDA:0,_RNvXNtNtCslEpTaKix7hR_10libcgroups2v22ioNtB2_2IoNtNtB4_10controller10Controller5apply
FNDA:1,_RNvXs_NtNtCslEpTaKix7hR_10libcgroups2v22ioNtB4_2IoNtNtB8_5stats13StatsProvider5stats
FNDA:1,_RNvMs0_NtNtCslEpTaKix7hR_10libcgroups2v22ioNtB5_2Io5apply
FNDA:4,_RNvMs0_NtNtCslEpTaKix7hR_10libcgroups2v22ioNtB5_2Io11io_max_path
FNDA:1,_RNvMs0_NtNtCslEpTaKix7hR_10libcgroups2v22ioNtB5_2Io28convert_cfq_io_weight_to_bfq
FNDA:0,_RNCNvNtNtNtCslEpTaKix7hR_10libcgroups2v22io4tests_24test_set_ioweight_device0B9_
FNDA:1,_RNvNtNtNtCslEpTaKix7hR_10libcgroups2v22io4tests_20test_set_io_read_bps
FNDA:1,_RNvNtNtNtCslEpTaKix7hR_10libcgroups2v22io4tests_24test_set_ioweight_device
FNDA:0,_RNCNvNtNtNtCslEpTaKix7hR_10libcgroups2v22io4tests_22test_set_io_write_iops0B9_
FNDA:1,_RNCNvNtNtNtCslEpTaKix7hR_10libcgroups2v22io4test21test_set_io_read_iops0B9_
FNDA:0,_RNCNvNtNtNtCslEpTaKix7hR_10libcgroups2v22io4tests_21test_set_io_read_iops0B9_
FNDA:1,_RNvNtNtNtCslEpTaKix7hR_10libcgroups2v22io4tests_17test_set_ioweight
FNDA:1,_RNCNvNtNtNtCslEpTaKix7hR_10libcgroups2v22io4test17test_set_ioweight0B9_
FNDA:0,_RNCNvNtNtNtCslEpTaKix7hR_10libcgroups2v22io4tests_21test_set_io_write_bps0B9_
FNDA:1,_RNCNvNtNtNtCslEpTaKix7hR_10libcgroups2v22io4test21test_set_io_write_bps0B9_
FNDA:1,_RNvNtNtNtCslEpTaKix7hR_10libcgroups2v22io4tests_12test_stat_io
FNDA:1,_RNvNtNtNtCslEpTaKix7hR_10libcgroups2v22io4tests_22test_set_io_write_iops
FNDA:1,_RNCNvNtNtNtCslEpTaKix7hR_10libcgroups2v22io4test20test_set_io_read_bps0B9_
FNDA:1,_RNCNvNtNtNtCslEpTaKix7hR_10libcgroups2v22io4test22test_set_io_write_iops0B9_
FNDA:1,_RNvNtNtNtCslEpTaKix7hR_10libcgroups2v22io4tests_21test_set_io_read_iops
FNDA:1,_RNvNtNtNtCslEpTaKix7hR_10libcgroups2v22io4tests_21test_set_io_write_bps
FNDA:1,_RNCNvNtNtNtCslEpTaKix7hR_10libcgroups2v22io4test12test_stat_io0B9_
FNDA:1,_RNCNvNtNtNtCslEpTaKix7hR_10libcgroups2v22io4test24test_set_ioweight_device0B9_
FNDA:0,_RNCNvNtNtNtCslEpTaKix7hR_10libcgroups2v22io4tests_20test_set_io_read_bps0B9_
FNDA:0,_RNvXNtNtCs6dyzbgxNKb8_10libcgroups2v22ioNtB2_2IoNtNtB4_10controller10Controller5apply
FNDA:0,_RNvXs_NtNtCs6dyzbgxNKb8_10libcgroups2v22ioNtB4_2IoNtNtB8_5stats13StatsProvider5stats
FNDA:0,_RNvMs0_NtNtCs6dyzbgxNKb8_10libcgroups2v22ioNtB5_2Io11io_max_path
FNDA:0,_RNvMs0_NtNtCs6dyzbgxNKb8_10libcgroups2v22ioNtB5_2Io28convert_cfq_io_weight_to_bfq
FNDA:0,_RNvMs0_NtNtCs6dyzbgxNKb8_10libcgroups2v22ioNtB5_2Io5apply
FNF:24
FNH:18
DA:20,0
DA:21,0
DA:22,0
DA:23,0
DA:24,0
DA:25,0
DA:26,0
DA:32,1
DA:33,1
DA:34,1
DA:35,1
DA:36,2
DA:37,2
DA:38,12
DA:39,12
DA:41,2
DA:42,2
DA:43,2
DA:44,2
DA:46,10
DA:48,2
DA:49,2
DA:50,2
DA:51,2
DA:53,8
DA:55,2
DA:56,2
DA:57,2
DA:58,2
DA:60,6
DA:62,2
DA:63,2
DA:64,2
DA:65,2
DA:67,4
DA:71,1
DA:72,1
DA:73,1
DA:74,1
DA:75,1
DA:76,1
DA:77,1
DA:78,1
DA:86,1
DA:87,1
DA:88,0
DA:89,1
DA:90,1
DA:91,1
DA:93,4
DA:94,4
DA:95,4
DA:99,7
DA:100,1
DA:101,1
DA:102,1
DA:103,1
DA:104,1
DA:106,6
DA:107,7
DA:108,0
DA:109,0
DA:110,0
DA:111,7
DA:112,7
DA:115,2
DA:116,2
DA:117,2
DA:118,1
DA:120,1
DA:121,1
DA:122,1
DA:123,1
DA:125,0
DA:126,5
DA:128,7
DA:129,1
DA:130,1
DA:131,1
DA:132,1
DA:133,1
DA:135,6
DA:137,7
DA:138,1
DA:139,1
DA:140,1
DA:141,1
DA:142,1
DA:144,6
DA:146,7
DA:147,1
DA:148,1
DA:149,1
DA:150,1
DA:151,1
DA:153,6
DA:155,7
DA:156,1
DA:157,1
DA:158,1
DA:159,1
DA:160,1
DA:162,6
DA:164,7
DA:165,7
DA:177,1
DA:178,1
DA:179,1
DA:180,1
DA:181,1
DA:182,1
DA:183,1
DA:184,1
DA:185,1
DA:186,1
DA:187,1
DA:188,1
DA:189,1
DA:190,1
DA:191,1
DA:192,1
DA:193,1
DA:194,1
DA:195,1
DA:197,1
DA:198,1
DA:199,1
DA:200,1
DA:201,1
DA:202,1
DA:203,1
DA:204,1
DA:205,1
DA:206,1
DA:207,1
DA:208,1
DA:209,1
DA:210,1
DA:211,1
DA:212,1
DA:213,1
DA:214,1
DA:215,1
DA:217,1
DA:218,1
DA:219,1
DA:220,1
DA:221,1
DA:222,1
DA:223,1
DA:224,1
DA:225,1
DA:226,1
DA:227,1
DA:228,1
DA:229,1
DA:230,1
DA:231,1
DA:232,1
DA:233,1
DA:234,1
DA:235,1
DA:237,1
DA:238,1
DA:239,1
DA:240,1
DA:241,1
DA:242,1
DA:243,1
DA:244,1
DA:245,1
DA:246,1
DA:247,1
DA:248,1
DA:249,1
DA:250,1
DA:251,1
DA:252,1
DA:253,1
DA:254,1
DA:255,1
DA:257,1
DA:258,1
DA:259,1
DA:260,1
DA:261,1
DA:262,1
DA:263,1
DA:264,1
DA:265,1
DA:266,1
DA:267,1
DA:268,1
DA:269,1
DA:270,1
DA:271,1
DA:272,1
DA:273,1
DA:274,1
DA:275,1
DA:276,1
DA:278,1
DA:279,1
DA:285,2
DA:286,1
DA:287,1
DA:288,1
DA:289,1
DA:290,1
DA:291,1
DA:292,1
DA:293,1
DA:294,1
DA:295,1
DA:296,1
DA:297,2
DA:298,2
DA:299,2
DA:300,2
DA:301,2
DA:302,2
DA:303,2
DA:304,2
DA:305,2
DA:307,1
DA:309,1
DA:310,1
DA:311,1
DA:312,1
DA:313,1
DA:314,1
DA:315,1
DA:316,1
DA:317,1
DA:318,1
DA:319,1
DA:320,1
DA:321,1
DA:322,1
DA:323,1
DA:324,1
DA:325,1
DA:326,1
DA:327,1
DA:328,1
DA:329,1
DA:330,1
DA:331,1
DA:332,1
DA:333,1
DA:334,1
DA:335,1
DA:336,1
DA:337,1
DA:338,1
DA:339,1
DA:340,1
DA:341,1
DA:342,1
DA:343,1
DA:344,1
DA:345,1
DA:346,1
DA:347,1
DA:348,1
DA:349,1
DA:350,1
DA:351,1
DA:352,1
DA:353,1
DA:354,1
DA:355,1
DA:356,1
DA:357,1
DA:358,1
DA:359,1
DA:360,1
DA:361,1
DA:362,1
DA:363,1
DA:364,1
DA:365,1
DA:366,1
DA:367,1
DA:368,1
DA:369,1
DA:370,1
DA:371,1
DA:372,1
DA:373,1
DA:374,1
DA:375,1
DA:376,1
DA:377,1
DA:378,1
DA:379,1
DA:380,1
BRF:0
BRH:0
LF:302
LH:285
end_of_record
SF:crates/libcgroups/src/v2/manager.rs
FN:95,_RNvXs_NtNtCs6dyzbgxNKb8_10libcgroups2v27managerNtB4_7ManagerNtNtB8_6common13CgroupManager8add_task
FN:64,_RNCNvMNtNtCs6dyzbgxNKb8_10libcgroups2v27managerNtB4_7Manager21create_unified_cgroups_0B8_
FN:154,_RNvXs_NtNtCs6dyzbgxNKb8_10libcgroups2v27managerNtB4_7ManagerNtNtB8_6common13CgroupManager5stats
FN:144,_RNvXs_NtNtCs6dyzbgxNKb8_10libcgroups2v27managerNtB4_7ManagerNtNtB8_6common13CgroupManager6freeze
FN:127,_RNvXs_NtNtCs6dyzbgxNKb8_10libcgroups2v27managerNtB4_7ManagerNtNtB8_6common13CgroupManager6remove
FN:52,_RNvMNtNtCs6dyzbgxNKb8_10libcgroups2v27managerNtB2_7Manager21create_unified_cgroup
FN:55,_RNCNvMNtNtCs6dyzbgxNKb8_10libcgroups2v27managerNtB4_7Manager21create_unified_cgroup0B8_
FN:42,_RNvMNtNtCs6dyzbgxNKb8_10libcgroups2v27managerNtB2_7Manager3new
FN:99,_RNvXs_NtNtCs6dyzbgxNKb8_10libcgroups2v27managerNtB4_7ManagerNtNtB8_6common13CgroupManager5apply
FN:84,_RNvMNtNtCs6dyzbgxNKb8_10libcgroups2v27managerNtB2_7Manager17write_controllers
FN:171,_RNvXs_NtNtCs6dyzbgxNKb8_10libcgroups2v27managerNtB4_7ManagerNtNtB8_6common13CgroupManager12get_all_pids
FNDA:0,_RNvXs_NtNtCs6dyzbgxNKb8_10libcgroups2v27managerNtB4_7ManagerNtNtB8_6common13CgroupManager8add_task
FNDA:0,_RNCNvMNtNtCs6dyzbgxNKb8_10libcgroups2v27managerNtB4_7Manager21create_unified_cgroups_0B8_
FNDA:0,_RNvXs_NtNtCs6dyzbgxNKb8_10libcgroups2v27managerNtB4_7ManagerNtNtB8_6common13CgroupManager5stats
FNDA:0,_RNvXs_NtNtCs6dyzbgxNKb8_10libcgroups2v27managerNtB4_7ManagerNtNtB8_6common13CgroupManager6freeze
FNDA:0,_RNvXs_NtNtCs6dyzbgxNKb8_10libcgroups2v27managerNtB4_7ManagerNtNtB8_6common13CgroupManager6remove
FNDA:0,_RNvMNtNtCs6dyzbgxNKb8_10libcgroups2v27managerNtB2_7Manager21create_unified_cgroup
FNDA:0,_RNCNvMNtNtCs6dyzbgxNKb8_10libcgroups2v27managerNtB4_7Manager21create_unified_cgroup0B8_
FNDA:0,_RNvMNtNtCs6dyzbgxNKb8_10libcgroups2v27managerNtB2_7Manager3new
FNDA:0,_RNvXs_NtNtCs6dyzbgxNKb8_10libcgroups2v27managerNtB4_7ManagerNtNtB8_6common13CgroupManager5apply
FNDA:0,_RNvMNtNtCs6dyzbgxNKb8_10libcgroups2v27managerNtB2_7Manager17write_controllers
FNDA:0,_RNvXs_NtNtCs6dyzbgxNKb8_10libcgroups2v27managerNtB4_7ManagerNtNtB8_6common13CgroupManager12get_all_pids
FNF:11
FNH:0
DA:42,0
DA:43,0
DA:45,0
DA:46,0
DA:47,0
DA:48,0
DA:49,0
DA:50,0
DA:52,0
DA:53,0
DA:54,0
DA:55,0
DA:56,0
DA:57,0
DA:58,0
DA:60,0
DA:61,0
DA:62,0
DA:63,0
DA:64,0
DA:65,0
DA:66,0
DA:67,0
DA:68,0
DA:69,0
DA:70,0
DA:71,0
DA:75,0
DA:76,0
DA:77,0
DA:80,0
DA:81,0
DA:82,0
DA:84,0
DA:85,0
DA:86,0
DA:89,0
DA:90,0
DA:95,0
DA:96,0
DA:97,0
DA:99,0
DA:100,0
DA:101,0
DA:102,0
DA:103,0
DA:104,0
DA:105,0
DA:106,0
DA:107,0
DA:114,0
DA:115,0
DA:117,0
DA:118,0
DA:119,0
DA:120,0
DA:121,0
DA:124,0
DA:125,0
DA:127,0
DA:128,0
DA:129,0
DA:130,0
DA:131,0
DA:133,0
DA:134,0
DA:135,0
DA:138,0
DA:139,0
DA:141,0
DA:142,0
DA:144,0
DA:145,0
DA:146,0
DA:147,0
DA:148,0
DA:149,0
DA:150,0
DA:151,0
DA:152,0
DA:154,0
DA:155,0
DA:157,0
DA:158,0
DA:159,0
DA:160,0
DA:161,0
DA:162,0
DA:163,0
DA:164,0
DA:168,0
DA:169,0
DA:171,0
DA:172,0
DA:173,0
BRF:0
BRH:0
LF:97
LH:0
end_of_record
SF:crates/libcgroups/src/v2/memory.rs
FN:22,_RNvXNtNtCslEpTaKix7hR_10libcgroups2v26memoryNtB2_6MemoryNtNtB4_10controller10Controller5apply
FN:85,_RNvMs0_NtNtCslEpTaKix7hR_10libcgroups2v26memoryNtB5_6Memory5apply
FN:48,_RNvMs0_NtNtCslEpTaKix7hR_10libcgroups2v26memoryNtB5_6Memory15get_memory_data
FN:75,_RINvMs0_NtNtCslEpTaKix7hR_10libcgroups2v26memoryNtB6_6Memory3setNtNtCslIgaOqvXPTn_3std4path7PathBufEBa_
FN:34,_RNvXs_NtNtCslEpTaKix7hR_10libcgroups2v26memoryNtB4_6MemoryNtNtB8_5stats13StatsProvider5stats
FN:203,_RNvNtNtNtCslEpTaKix7hR_10libcgroups2v26memory5testss_23test_err_swap_no_memory
FN:333,_RNCNvNtNtNtCslEpTaKix7hR_10libcgroups2v26memory5tests20test_get_memory_data0B9_
FN:249,_RNCNvNtNtNtCslEpTaKix7hR_10libcgroups2v26memory5tests24property_test_set_memory0B9_
FN:152,_RNCNvNtNtNtCslEpTaKix7hR_10libcgroups2v26memory5tests15test_set_memory0B9_
FN:217,_RNCNvNtNtNtCslEpTaKix7hR_10libcgroups2v26memory5tests18test_err_bad_limit0B9_
FN:334,_RNvNtNtNtCslEpTaKix7hR_10libcgroups2v26memory5testss_20test_get_memory_data
FN:153,_RNvNtNtNtCslEpTaKix7hR_10libcgroups2v26memory5testss_15test_set_memory
FN:183,_RNCNvNtNtNtCslEpTaKix7hR_10libcgroups2v26memory5tests25test_set_memory_unlimited0B9_
FN:202,_RNCNvNtNtNtCslEpTaKix7hR_10libcgroups2v26memory5tests23test_err_swap_no_memory0B9_
FN:218,_RNvNtNtNtCslEpTaKix7hR_10libcgroups2v26memory5testss_18test_err_bad_limit
FN:184,_RNvNtNtNtCslEpTaKix7hR_10libcgroups2v26memory5testss_25test_set_memory_unlimited
FN:232,_RNvNtNtNtCslEpTaKix7hR_10libcgroups2v26memory5testss_17test_err_bad_swap
FN:231,_RNCNvNtNtNtCslEpTaKix7hR_10libcgroups2v26memory5tests17test_err_bad_swap0B9_
FN:34,_RNvXs_NtNtCs6dyzbgxNKb8_10libcgroups2v26memoryNtB4_6MemoryNtNtB8_5stats13StatsProvider5stats
FN:22,_RNvXNtNtCs6dyzbgxNKb8_10libcgroups2v26memoryNtB2_6MemoryNtNtB4_10controller10Controller5apply
FN:75,_RINvMs0_NtNtCs6dyzbgxNKb8_10libcgroups2v26memoryNtB6_6Memory3setNtNtCslIgaOqvXPTn_3std4path7PathBufEBa_
FN:85,_RNvMs0_NtNtCs6dyzbgxNKb8_10libcgroups2v26memoryNtB5_6Memory5apply
FN:48,_RNvMs0_NtNtCs6dyzbgxNKb8_10libcgroups2v26memoryNtB5_6Memory15get_memory_data
FNDA:0,_RNvXNtNtCslEpTaKix7hR_10libcgroups2v26memoryNtB2_6MemoryNtNtB4_10controller10Controller5apply
FNDA:105,_RNvMs0_NtNtCslEpTaKix7hR_10libcgroups2v26memoryNtB5_6Memory5apply
FNDA:1,_RNvMs0_NtNtCslEpTaKix7hR_10libcgroups2v26memoryNtB5_6Memory15get_memory_data
FNDA:34,_RINvMs0_NtNtCslEpTaKix7hR_10libcgroups2v26memoryNtB6_6Memory3setNtNtCslIgaOqvXPTn_3std4path7PathBufEBa_
FNDA:0,_RNvXs_NtNtCslEpTaKix7hR_10libcgroups2v26memoryNtB4_6MemoryNtNtB8_5stats13StatsProvider5stats
FNDA:1,_RNvNtNtNtCslEpTaKix7hR_10libcgroups2v26memory5testss_23test_err_swap_no_memory
FNDA:1,_RNCNvNtNtNtCslEpTaKix7hR_10libcgroups2v26memory5tests20test_get_memory_data0B9_
FNDA:1,_RNCNvNtNtNtCslEpTaKix7hR_10libcgroups2v26memory5tests24property_test_set_memory0B9_
FNDA:1,_RNCNvNtNtNtCslEpTaKix7hR_10libcgroups2v26memory5tests15test_set_memory0B9_
FNDA:1,_RNCNvNtNtNtCslEpTaKix7hR_10libcgroups2v26memory5tests18test_err_bad_limit0B9_
FNDA:1,_RNvNtNtNtCslEpTaKix7hR_10libcgroups2v26memory5testss_20test_get_memory_data
FNDA:1,_RNvNtNtNtCslEpTaKix7hR_10libcgroups2v26memory5testss_15test_set_memory
FNDA:1,_RNCNvNtNtNtCslEpTaKix7hR_10libcgroups2v26memory5tests25test_set_memory_unlimited0B9_
FNDA:1,_RNCNvNtNtNtCslEpTaKix7hR_10libcgroups2v26memory5tests23test_err_swap_no_memory0B9_
FNDA:1,_RNvNtNtNtCslEpTaKix7hR_10libcgroups2v26memory5testss_18test_err_bad_limit
FNDA:1,_RNvNtNtNtCslEpTaKix7hR_10libcgroups2v26memory5testss_25test_set_memory_unlimited
FNDA:1,_RNvNtNtNtCslEpTaKix7hR_10libcgroups2v26memory5testss_17test_err_bad_swap
FNDA:1,_RNCNvNtNtNtCslEpTaKix7hR_10libcgroups2v26memory5tests17test_err_bad_swap0B9_
FNDA:0,_RNvXs_NtNtCs6dyzbgxNKb8_10libcgroups2v26memoryNtB4_6MemoryNtNtB8_5stats13StatsProvider5stats
FNDA:0,_RNvXNtNtCs6dyzbgxNKb8_10libcgroups2v26memoryNtB2_6MemoryNtNtB4_10controller10Controller5apply
FNDA:0,_RINvMs0_NtNtCs6dyzbgxNKb8_10libcgroups2v26memoryNtB6_6Memory3setNtNtCslIgaOqvXPTn_3std4path7PathBufEBa_
FNDA:0,_RNvMs0_NtNtCs6dyzbgxNKb8_10libcgroups2v26memoryNtB5_6Memory5apply
FNDA:0,_RNvMs0_NtNtCs6dyzbgxNKb8_10libcgroups2v26memoryNtB5_6Memory15get_memory_data
FNF:18
FNH:16
DA:22,0
DA:23,0
DA:24,0
DA:25,0
DA:27,0
DA:28,0
DA:34,0
DA:35,0
DA:36,0
DA:37,0
DA:39,0
DA:40,0
DA:41,0
DA:42,0
DA:43,0
DA:44,0
DA:48,1
DA:49,1
DA:50,1
DA:51,1
DA:52,1
DA:53,1
DA:54,1
DA:55,1
DA:56,1
DA:58,1
DA:59,1
DA:60,1
DA:61,1
DA:62,1
DA:64,0
DA:67,1
DA:68,1
DA:69,1
DA:70,1
DA:71,1
DA:72,1
DA:73,1
DA:75,34
DA:76,34
DA:77,0
DA:78,34
DA:79,2
DA:81,32
DA:83,34
DA:85,105
DA:86,105
DA:87,105
DA:88,11
DA:89,94
DA:90,94
DA:91,94
DA:92,59
DA:93,31
DA:95,28
DA:96,13
DA:97,5
DA:99,8
DA:100,8
DA:101,8
DA:102,0
DA:104,8
DA:105,4
DA:106,4
DA:107,4
DA:108,4
DA:109,4
DA:110,4
DA:111,4
DA:112,4
DA:113,4
DA:114,4
DA:115,4
DA:116,4
DA:118,4
DA:121,15
DA:122,1
DA:123,14
DA:124,15
DA:128,35
DA:129,22
DA:130,13
DA:134,32
DA:135,21
DA:136,11
DA:137,10
DA:138,10
DA:139,11
DA:141,21
DA:142,105
DA:152,1
DA:153,1
DA:154,1
DA:155,1
DA:156,1
DA:157,1
DA:158,1
DA:159,1
DA:160,1
DA:161,1
DA:162,1
DA:163,1
DA:164,1
DA:165,1
DA:166,1
DA:167,1
DA:168,1
DA:169,1
DA:170,1
DA:171,1
DA:172,1
DA:173,1
DA:175,1
DA:176,1
DA:178,1
DA:179,1
DA:180,1
DA:181,1
DA:183,1
DA:184,1
DA:185,1
DA:186,1
DA:187,1
DA:188,1
DA:189,1
DA:190,1
DA:191,1
DA:192,1
DA:193,1
DA:194,1
DA:195,1
DA:196,1
DA:198,1
DA:199,1
DA:200,1
DA:202,1
DA:203,1
DA:204,1
DA:205,1
DA:206,1
DA:207,1
DA:208,1
DA:209,1
DA:210,1
DA:211,1
DA:212,1
DA:213,1
DA:214,1
DA:215,1
DA:217,1
DA:218,1
DA:219,1
DA:220,1
DA:221,1
DA:222,1
DA:223,1
DA:224,1
DA:225,1
DA:226,1
DA:227,1
DA:228,1
DA:229,1
DA:231,1
DA:232,1
DA:233,1
DA:234,1
DA:235,1
DA:236,1
DA:237,1
DA:238,1
DA:239,1
DA:240,1
DA:241,1
DA:242,1
DA:243,1
DA:244,1
DA:245,1
DA:246,1
DA:247,1
DA:249,1
DA:250,1
DA:251,1
DA:252,1
DA:253,1
DA:254,1
DA:255,1
DA:256,1
DA:257,1
DA:258,1
DA:259,1
DA:260,1
DA:261,1
DA:262,1
DA:263,1
DA:264,1
DA:265,1
DA:266,1
DA:267,1
DA:268,1
DA:269,1
DA:270,1
DA:271,1
DA:272,1
DA:273,1
DA:274,1
DA:275,1
DA:276,1
DA:277,1
DA:278,1
DA:279,1
DA:280,1
DA:281,1
DA:282,1
DA:283,1
DA:284,1
DA:285,1
DA:286,1
DA:287,1
DA:288,1
DA:289,1
DA:290,1
DA:291,1
DA:292,1
DA:293,1
DA:294,1
DA:295,1
DA:296,1
DA:297,1
DA:298,1
DA:299,1
DA:300,1
DA:301,1
DA:302,1
DA:303,1
DA:304,1
DA:305,1
DA:306,1
DA:307,1
DA:308,1
DA:309,1
DA:310,1
DA:311,1
DA:312,1
DA:313,1
DA:314,1
DA:315,1
DA:316,1
DA:317,1
DA:318,1
DA:319,1
DA:320,1
DA:321,1
DA:322,1
DA:323,1
DA:324,1
DA:325,1
DA:326,1
DA:327,1
DA:328,1
DA:329,1
DA:330,1
DA:331,1
DA:333,1
DA:334,1
DA:335,1
DA:336,1
DA:337,1
DA:338,1
DA:339,1
DA:340,1
DA:341,1
DA:342,1
DA:343,1
DA:344,1
DA:345,1
DA:346,1
DA:347,1
DA:348,1
DA:349,1
DA:350,1
BRF:0
BRH:0
LF:280
LH:261
end_of_record
SF:crates/libcgroups/src/v2/pids.rs
FN:34,_RNvMs0_NtNtCslEpTaKix7hR_10libcgroups2v24pidsNtB5_4Pids5apply
FN:16,_RNvXNtNtCslEpTaKix7hR_10libcgroups2v24pidsNtB2_4PidsNtNtB4_10controller10Controller5apply
FN:28,_RNvXs_NtNtCslEpTaKix7hR_10libcgroups2v24pidsNtB4_4PidsNtNtB8_5stats13StatsProvider5stats
FN:64,_RNCNvNtNtNtCslEpTaKix7hR_10libcgroups2v24pids5tests17test_set_pids_max0B9_
FN:50,_RNCNvNtNtNtCslEpTaKix7hR_10libcgroups2v24pids5tests13test_set_pids0B9_
FN:51,_RNvNtNtNtCslEpTaKix7hR_10libcgroups2v24pids5testss_13test_set_pids
FN:65,_RNvNtNtNtCslEpTaKix7hR_10libcgroups2v24pids5testss_17test_set_pids_max
FN:34,_RNvMs0_NtNtCs6dyzbgxNKb8_10libcgroups2v24pidsNtB5_4Pids5apply
FN:28,_RNvXs_NtNtCs6dyzbgxNKb8_10libcgroups2v24pidsNtB4_4PidsNtNtB8_5stats13StatsProvider5stats
FN:16,_RNvXNtNtCs6dyzbgxNKb8_10libcgroups2v24pidsNtB2_4PidsNtNtB4_10controller10Controller5apply
FNDA:2,_RNvMs0_NtNtCslEpTaKix7hR_10libcgroups2v24pidsNtB5_4Pids5apply
FNDA:0,_RNvXNtNtCslEpTaKix7hR_10libcgroups2v24pidsNtB2_4PidsNtNtB4_10controller10Controller5apply
FNDA:0,_RNvXs_NtNtCslEpTaKix7hR_10libcgroups2v24pidsNtB4_4PidsNtNtB8_5stats13StatsProvider5stats
FNDA:1,_RNCNvNtNtNtCslEpTaKix7hR_10libcgroups2v24pids5tests17test_set_pids_max0B9_
FNDA:1,_RNCNvNtNtNtCslEpTaKix7hR_10libcgroups2v24pids5tests13test_set_pids0B9_
FNDA:1,_RNvNtNtNtCslEpTaKix7hR_10libcgroups2v24pids5testss_13test_set_pids
FNDA:1,_RNvNtNtNtCslEpTaKix7hR_10libcgroups2v24pids5testss_17test_set_pids_max
FNDA:0,_RNvMs0_NtNtCs6dyzbgxNKb8_10libcgroups2v24pidsNtB5_4Pids5apply
FNDA:0,_RNvXs_NtNtCs6dyzbgxNKb8_10libcgroups2v24pidsNtB4_4PidsNtNtB8_5stats13StatsProvider5stats
FNDA:0,_RNvXNtNtCs6dyzbgxNKb8_10libcgroups2v24pidsNtB2_4PidsNtNtB4_10controller10Controller5apply
FNF:7
FNH:5
DA:16,0
DA:17,0
DA:18,0
DA:19,0
DA:20,0
DA:21,0
DA:22,0
DA:28,0
DA:29,0
DA:30,0
DA:34,2
DA:35,2
DA:36,1
DA:38,1
DA:40,2
DA:41,2
DA:50,1
DA:51,1
DA:52,1
DA:53,1
DA:54,1
DA:55,1
DA:56,1
DA:57,1
DA:58,1
DA:59,1
DA:60,1
DA:61,1
DA:62,1
DA:64,1
DA:65,1
DA:66,1
DA:67,1
DA:68,1
DA:69,1
DA:70,1
DA:71,1
DA:72,1
DA:73,1
DA:74,1
DA:75,1
DA:76,1
DA:77,1
BRF:0
BRH:0
LF:43
LH:33
end_of_record
SF:crates/libcgroups/src/v2/unified.rs
FN:36,_RNCNCNvMNtNtCslEpTaKix7hR_10libcgroups2v27unifiedNtB6_7Unified10apply_impl00Ba_
FN:16,_RNvMNtNtCslEpTaKix7hR_10libcgroups2v27unifiedNtB2_7Unified5apply
FN:40,_RNCNCNvMNtNtCslEpTaKix7hR_10libcgroups2v27unifiedNtB6_7Unified10apply_impl0s_0Ba_
FN:33,_RNCNvMNtNtCslEpTaKix7hR_10libcgroups2v27unifiedNtB4_7Unified10apply_impl0B8_
FN:24,_RNvMNtNtCslEpTaKix7hR_10libcgroups2v27unifiedNtB2_7Unified10apply_impl
FN:145,_RNCNvNtNtNtCslEpTaKix7hR_10libcgroups2v27unified5tests50test_set_unified_failed_to_write_subsystem_enabled0B9_
FN:71,_RNCNvNtNtNtCslEpTaKix7hR_10libcgroups2v27unified5tests16test_set_unified0B9_
FN:110,_RNCNvNtNtNtCslEpTaKix7hR_10libcgroups2v27unified5tests54test_set_unified_failed_to_write_subsystem_not_enabled0B9_
FN:72,_RNvNtNtNtCslEpTaKix7hR_10libcgroups2v27unified5testss_16test_set_unified
FN:111,_RNvNtNtNtCslEpTaKix7hR_10libcgroups2v27unified5testss_54test_set_unified_failed_to_write_subsystem_not_enabled
FN:146,_RNvNtNtNtCslEpTaKix7hR_10libcgroups2v27unified5testss_50test_set_unified_failed_to_write_subsystem_enabled
FN:16,_RNvMNtNtCs6dyzbgxNKb8_10libcgroups2v27unifiedNtB2_7Unified5apply
FN:40,_RNCNCNvMNtNtCs6dyzbgxNKb8_10libcgroups2v27unifiedNtB6_7Unified10apply_impl0s_0Ba_
FN:36,_RNCNCNvMNtNtCs6dyzbgxNKb8_10libcgroups2v27unifiedNtB6_7Unified10apply_impl00Ba_
FN:24,_RNvMNtNtCs6dyzbgxNKb8_10libcgroups2v27unifiedNtB2_7Unified10apply_impl
FN:33,_RNCNvMNtNtCs6dyzbgxNKb8_10libcgroups2v27unifiedNtB4_7Unified10apply_impl0B8_
FNDA:0,_RNCNCNvMNtNtCslEpTaKix7hR_10libcgroups2v27unifiedNtB6_7Unified10apply_impl00Ba_
FNDA:3,_RNvMNtNtCslEpTaKix7hR_10libcgroups2v27unifiedNtB2_7Unified5apply
FNDA:1,_RNCNCNvMNtNtCslEpTaKix7hR_10libcgroups2v27unifiedNtB6_7Unified10apply_impl0s_0Ba_
FNDA:2,_RNCNvMNtNtCslEpTaKix7hR_10libcgroups2v27unifiedNtB4_7Unified10apply_impl0B8_
FNDA:3,_RNvMNtNtCslEpTaKix7hR_10libcgroups2v27unifiedNtB2_7Unified10apply_impl
FNDA:1,_RNCNvNtNtNtCslEpTaKix7hR_10libcgroups2v27unified5tests50test_set_unified_failed_to_write_subsystem_enabled0B9_
FNDA:1,_RNCNvNtNtNtCslEpTaKix7hR_10libcgroups2v27unified5tests16test_set_unified0B9_
FNDA:1,_RNCNvNtNtNtCslEpTaKix7hR_10libcgroups2v27unified5tests54test_set_unified_failed_to_write_subsystem_not_enabled0B9_
FNDA:1,_RNvNtNtNtCslEpTaKix7hR_10libcgroups2v27unified5testss_16test_set_unified
FNDA:1,_RNvNtNtNtCslEpTaKix7hR_10libcgroups2v27unified5testss_54test_set_unified_failed_to_write_subsystem_not_enabled
FNDA:1,_RNvNtNtNtCslEpTaKix7hR_10libcgroups2v27unified5testss_50test_set_unified_failed_to_write_subsystem_enabled
FNDA:0,_RNvMNtNtCs6dyzbgxNKb8_10libcgroups2v27unifiedNtB2_7Unified5apply
FNDA:0,_RNCNCNvMNtNtCs6dyzbgxNKb8_10libcgroups2v27unifiedNtB6_7Unified10apply_impl0s_0Ba_
FNDA:0,_RNCNCNvMNtNtCs6dyzbgxNKb8_10libcgroups2v27unifiedNtB6_7Unified10apply_impl00Ba_
FNDA:0,_RNvMNtNtCs6dyzbgxNKb8_10libcgroups2v27unifiedNtB2_7Unified10apply_impl
FNDA:0,_RNCNvMNtNtCs6dyzbgxNKb8_10libcgroups2v27unifiedNtB4_7Unified10apply_impl0B8_
FNF:11
FNH:10
DA:16,3
DA:17,3
DA:18,3
DA:19,0
DA:21,1
DA:22,3
DA:24,3
DA:25,3
DA:26,3
DA:27,3
DA:28,3
DA:29,3
DA:30,3
DA:31,5
DA:32,4
DA:33,4
DA:34,2
DA:35,2
DA:36,2
DA:37,0
DA:38,2
DA:39,2
DA:40,2
DA:41,1
DA:42,1
DA:43,1
DA:44,1
DA:46,1
DA:49,2
DA:50,4
DA:51,4
DA:55,1
DA:56,3
DA:71,1
DA:72,1
DA:73,1
DA:74,1
DA:75,1
DA:76,1
DA:77,1
DA:78,1
DA:79,1
DA:80,1
DA:81,1
DA:82,1
DA:83,1
DA:84,1
DA:85,1
DA:86,1
DA:87,1
DA:88,1
DA:89,1
DA:90,1
DA:91,1
DA:92,1
DA:93,1
DA:94,1
DA:95,1
DA:96,1
DA:97,1
DA:98,1
DA:99,1
DA:100,1
DA:101,1
DA:102,1
DA:103,1
DA:104,1
DA:105,1
DA:106,1
DA:107,1
DA:108,1
DA:110,1
DA:111,1
DA:112,1
DA:113,1
DA:114,1
DA:115,1
DA:116,1
DA:117,1
DA:118,1
DA:119,1
DA:120,1
DA:121,1
DA:122,1
DA:123,1
DA:124,1
DA:125,1
DA:126,1
DA:127,1
DA:128,1
DA:129,1
DA:130,1
DA:131,1
DA:132,1
DA:133,1
DA:134,1
DA:135,1
DA:136,1
DA:137,1
DA:138,1
DA:139,1
DA:140,1
DA:141,1
DA:142,1
DA:143,1
DA:145,1
DA:146,1
DA:147,1
DA:148,1
DA:149,1
DA:150,1
DA:151,1
DA:152,1
DA:153,1
DA:154,1
DA:155,1
DA:156,1
DA:157,1
DA:158,1
DA:159,1
DA:160,1
DA:161,1
DA:162,1
DA:163,1
DA:164,1
DA:165,1
DA:166,1
DA:167,1
DA:168,1
DA:169,1
DA:170,1
DA:171,1
DA:172,1
DA:173,1
DA:174,1
DA:175,1
DA:176,1
DA:177,1
DA:178,1
DA:179,1
DA:180,1
DA:181,1
BRF:0
BRH:0
LF:147
LH:143
end_of_record
SF:crates/libcgroups/src/v2/util.rs
FN:17,_RNCNvNtNtCs6dyzbgxNKb8_10libcgroups2v24util23get_unified_mount_point0B7_
FN:13,_RNvNtNtCs6dyzbgxNKb8_10libcgroups2v24util23get_unified_mount_point
FN:18,_RNCNvNtNtCs6dyzbgxNKb8_10libcgroups2v24util23get_unified_mount_points_0B7_
FN:22,_RINvNtNtCs6dyzbgxNKb8_10libcgroups2v24util25get_available_controllersRNtNtCslIgaOqvXPTn_3std4path7PathBufEB6_
FN:19,_RNCNvNtNtCs6dyzbgxNKb8_10libcgroups2v24util23get_unified_mount_points0_0B7_
FNDA:0,_RNCNvNtNtCs6dyzbgxNKb8_10libcgroups2v24util23get_unified_mount_point0B7_
FNDA:0,_RNvNtNtCs6dyzbgxNKb8_10libcgroups2v24util23get_unified_mount_point
FNDA:0,_RNCNvNtNtCs6dyzbgxNKb8_10libcgroups2v24util23get_unified_mount_points_0B7_
FNDA:0,_RINvNtNtCs6dyzbgxNKb8_10libcgroups2v24util25get_available_controllersRNtNtCslIgaOqvXPTn_3std4path7PathBufEB6_
FNDA:0,_RNCNvNtNtCs6dyzbgxNKb8_10libcgroups2v24util23get_unified_mount_points0_0B7_
FNF:5
FNH:0
DA:13,0
DA:14,0
DA:15,0
DA:16,0
DA:17,0
DA:18,0
DA:19,0
DA:20,0
DA:22,0
DA:23,0
DA:24,0
DA:25,0
DA:26,0
DA:27,0
DA:28,0
DA:29,0
DA:30,0
DA:31,0
DA:32,0
DA:33,0
DA:34,0
DA:35,0
DA:36,0
DA:37,0
DA:38,0
DA:39,0
DA:40,0
DA:41,0
DA:45,0
DA:46,0
BRF:0
BRH:0
LF:33
LH:0
end_of_record
SF:crates/libcontainer/src/apparmor.rs
FN:35,_RNvNtCs9aHzSL9YGbd_12libcontainer8apparmor16activate_profile
FN:12,_RNvNtCs9aHzSL9YGbd_12libcontainer8apparmor10is_enabled
FN:19,_RNvNtCs9aHzSL9YGbd_12libcontainer8apparmor13apply_profile
FN:14,_RNCNvNtCs9aHzSL9YGbd_12libcontainer8apparmor10is_enabled0B5_
FNDA:0,_RNvNtCs9aHzSL9YGbd_12libcontainer8apparmor16activate_profile
FNDA:0,_RNvNtCs9aHzSL9YGbd_12libcontainer8apparmor10is_enabled
FNDA:0,_RNvNtCs9aHzSL9YGbd_12libcontainer8apparmor13apply_profile
FNDA:0,_RNCNvNtCs9aHzSL9YGbd_12libcontainer8apparmor10is_enabled0B5_
FNF:4
FNH:0
DA:12,0
DA:13,0
DA:14,0
DA:15,0
DA:16,0
DA:19,0
DA:20,0
DA:21,0
DA:22,0
DA:23,0
DA:24,0
DA:25,0
DA:26,0
DA:27,0
DA:28,0
DA:29,0
DA:30,0
DA:31,0
DA:32,0
DA:35,0
DA:36,0
DA:37,0
BRF:0
BRH:0
LF:23
LH:0
end_of_record
SF:crates/libcontainer/src/capabilities.rs
FN:170,_RNCNvNtNtCs4hmKDm3KTCY_12libcontainer12capabilities5tests20test_reset_effective0B7_
FN:656,_RNCNvNtNtCs4hmKDm3KTCY_12libcontainer12capabilities5testss_20test_drop_privilegess_0B7_
FN:542,_RNCNvNtNtCs4hmKDm3KTCY_12libcontainer12capabilities5tests20test_drop_privileges0B7_
FN:183,_RNvNtNtCs4hmKDm3KTCY_12libcontainer12capabilities5testss_34test_convert_oci_spec_to_caps_type
FN:624,_RNCNvNtNtCs4hmKDm3KTCY_12libcontainer12capabilities5testss_20test_drop_privileges0B7_
FN:543,_RNvNtNtCs4hmKDm3KTCY_12libcontainer12capabilities5testss_20test_drop_privileges
FN:362,_RNCNvNtNtCs4hmKDm3KTCY_12libcontainer12capabilities5tests34test_convert_caps_type_to_oci_spec0B7_
FN:177,_RNCNvNtNtCs4hmKDm3KTCY_12libcontainer12capabilities5testss_20test_reset_effective0B7_
FN:171,_RNvNtNtCs4hmKDm3KTCY_12libcontainer12capabilities5testss_20test_reset_effective
FN:363,_RNvNtNtCs4hmKDm3KTCY_12libcontainer12capabilities5testss_34test_convert_caps_type_to_oci_spec
FN:182,_RNCNvNtNtCs4hmKDm3KTCY_12libcontainer12capabilities5tests34test_convert_oci_spec_to_caps_type0B7_
FN:76,_RNvXNtCs4hmKDm3KTCY_12libcontainer12capabilitiesNtNtNtCsavfOPrTag7s_8oci_spec7runtime10capability10CapabilityNtB2_13CapabilityExt8from_cap
FN:29,_RNvXNtCs4hmKDm3KTCY_12libcontainer12capabilitiesNtNtNtCsavfOPrTag7s_8oci_spec7runtime10capability10CapabilityNtB2_13CapabilityExt6to_cap
FN:127,_RINvNtCs4hmKDm3KTCY_12libcontainer12capabilities15reset_effectiveNtNtNtB4_7syscall5linux12LinuxSyscallEB4_
FN:127,_RINvNtCs4hmKDm3KTCY_12libcontainer12capabilities15reset_effectiveNtNtNtB4_7syscall4test17TestHelperSyscallEB4_
FN:134,_RINvNtCs4hmKDm3KTCY_12libcontainer12capabilities15drop_privilegesNtNtNtB4_7syscall4test17TestHelperSyscallEB4_
FN:10,_RNvNtCs4hmKDm3KTCY_12libcontainer12capabilities6to_set
FN:76,_RNvXNtCs9aHzSL9YGbd_12libcontainer12capabilitiesNtNtNtCsavfOPrTag7s_8oci_spec7runtime10capability10CapabilityNtB2_13CapabilityExt8from_cap
FN:29,_RNvXNtCs9aHzSL9YGbd_12libcontainer12capabilitiesNtNtNtCsavfOPrTag7s_8oci_spec7runtime10capability10CapabilityNtB2_13CapabilityExt6to_cap
FN:134,_RINvNtCs9aHzSL9YGbd_12libcontainer12capabilities15drop_privilegesDNtNtNtB4_7syscall7syscall7SyscallEL_EB4_
FN:127,_RINvNtCs9aHzSL9YGbd_12libcontainer12capabilities15reset_effectiveDNtNtNtB4_7syscall7syscall7SyscallEL_EB4_
FN:127,_RINvNtCs9aHzSL9YGbd_12libcontainer12capabilities15reset_effectiveNtNtNtB4_7syscall5linux12LinuxSyscallEB4_
FN:10,_RNvNtCs9aHzSL9YGbd_12libcontainer12capabilities6to_set
FNDA:14,_RNCNvNtNtCs4hmKDm3KTCY_12libcontainer12capabilities5tests20test_reset_effective0B7_
FNDA:420,_RNCNvNtNtCs4hmKDm3KTCY_12libcontainer12capabilities5testss_20test_drop_privilegess_0B7_
FNDA:14,_RNCNvNtNtCs4hmKDm3KTCY_12libcontainer12capabilities5tests20test_drop_privileges0B7_
FNDA:14,_RNvNtNtCs4hmKDm3KTCY_12libcontainer12capabilities5testss_34test_convert_oci_spec_to_caps_type
FNDA:210,_RNCNvNtNtCs4hmKDm3KTCY_12libcontainer12capabilities5testss_20test_drop_privileges0B7_
FNDA:14,_RNvNtNtCs4hmKDm3KTCY_12libcontainer12capabilities5testss_20test_drop_privileges
FNDA:14,_RNCNvNtNtCs4hmKDm3KTCY_12libcontainer12capabilities5tests34test_convert_caps_type_to_oci_spec0B7_
FNDA:14,_RNCNvNtNtCs4hmKDm3KTCY_12libcontainer12capabilities5testss_20test_reset_effective0B7_
FNDA:14,_RNvNtNtCs4hmKDm3KTCY_12libcontainer12capabilities5testss_20test_reset_effective
FNDA:14,_RNvNtNtCs4hmKDm3KTCY_12libcontainer12capabilities5testss_34test_convert_caps_type_to_oci_spec
FNDA:14,_RNCNvNtNtCs4hmKDm3KTCY_12libcontainer12capabilities5tests34test_convert_oci_spec_to_caps_type0B7_
FNDA:994,_RNvXNtCs4hmKDm3KTCY_12libcontainer12capabilitiesNtNtNtCsavfOPrTag7s_8oci_spec7runtime10capability10CapabilityNtB2_13CapabilityExt8from_cap
FNDA:994,_RNvXNtCs4hmKDm3KTCY_12libcontainer12capabilitiesNtNtNtCsavfOPrTag7s_8oci_spec7runtime10capability10CapabilityNtB2_13CapabilityExt6to_cap
FNDA:0,_RINvNtCs4hmKDm3KTCY_12libcontainer12capabilities15reset_effectiveNtNtNtB4_7syscall5linux12LinuxSyscallEB4_
FNDA:14,_RINvNtCs4hmKDm3KTCY_12libcontainer12capabilities15reset_effectiveNtNtNtB4_7syscall4test17TestHelperSyscallEB4_
FNDA:42,_RINvNtCs4hmKDm3KTCY_12libcontainer12capabilities15drop_privilegesNtNtNtB4_7syscall4test17TestHelperSyscallEB4_
FNDA:210,_RNvNtCs4hmKDm3KTCY_12libcontainer12capabilities6to_set
FNDA:0,_RNvXNtCs9aHzSL9YGbd_12libcontainer12capabilitiesNtNtNtCsavfOPrTag7s_8oci_spec7runtime10capability10CapabilityNtB2_13CapabilityExt8from_cap
FNDA:0,_RNvXNtCs9aHzSL9YGbd_12libcontainer12capabilitiesNtNtNtCsavfOPrTag7s_8oci_spec7runtime10capability10CapabilityNtB2_13CapabilityExt6to_cap
FNDA:0,_RINvNtCs9aHzSL9YGbd_12libcontainer12capabilities15drop_privilegesDNtNtNtB4_7syscall7syscall7SyscallEL_EB4_
FNDA:0,_RINvNtCs9aHzSL9YGbd_12libcontainer12capabilities15reset_effectiveDNtNtNtB4_7syscall7syscall7SyscallEL_EB4_
FNDA:0,_RINvNtCs9aHzSL9YGbd_12libcontainer12capabilities15reset_effectiveNtNtNtB4_7syscall5linux12LinuxSyscallEB4_
FNDA:0,_RNvNtCs9aHzSL9YGbd_12libcontainer12capabilities6to_set
FNF:16
FNH:16
DA:10,210
DA:11,210
DA:13,420
DA:14,420
DA:15,420
DA:16,420
DA:17,210
DA:18,210
DA:29,994
DA:30,994
DA:31,14
DA:32,14
DA:33,154
DA:34,14
DA:35,14
DA:36,14
DA:37,14
DA:38,14
DA:39,14
DA:40,14
DA:41,14
DA:42,14
DA:43,14
DA:44,154
DA:45,14
DA:46,14
DA:47,14
DA:48,14
DA:49,14
DA:50,14
DA:51,154
DA:52,14
DA:53,14
DA:54,14
DA:55,14
DA:56,14
DA:57,14
DA:58,14
DA:59,14
DA:60,14
DA:61,14
DA:62,14
DA:63,14
DA:64,14
DA:65,14
DA:66,14
DA:67,14
DA:68,14
DA:69,14
DA:70,14
DA:71,14
DA:73,994
DA:76,994
DA:77,994
DA:78,14
DA:79,14
DA:80,154
DA:81,14
DA:82,14
DA:83,14
DA:84,14
DA:85,14
DA:86,14
DA:87,14
DA:88,14
DA:89,14
DA:90,14
DA:91,154
DA:92,14
DA:93,14
DA:94,14
DA:95,14
DA:96,14
DA:97,14
DA:98,154
DA:99,14
DA:100,14
DA:101,14
DA:102,14
DA:103,14
DA:104,14
DA:105,14
DA:106,14
DA:107,14
DA:108,14
DA:109,14
DA:110,14
DA:111,14
DA:112,14
DA:113,14
DA:114,14
DA:115,14
DA:116,14
DA:117,14
DA:118,14
DA:119,0
DA:121,994
DA:127,14
DA:128,14
DA:129,14
DA:130,14
DA:131,14
DA:134,42
DA:135,42
DA:136,42
DA:137,42
DA:138,0
DA:140,42
DA:141,42
DA:142,0
DA:144,42
DA:145,42
DA:146,0
DA:148,42
DA:149,42
DA:150,0
DA:152,42
DA:154,42
DA:155,0
DA:156,42
DA:157,0
DA:159,42
DA:160,42
DA:170,14
DA:171,14
DA:172,14
DA:173,14
DA:174,14
DA:175,14
DA:176,14
DA:177,14
DA:178,14
DA:179,14
DA:180,14
DA:182,14
DA:183,14
DA:184,14
DA:185,14
DA:186,14
DA:187,14
DA:188,14
DA:189,14
DA:190,14
DA:191,14
DA:192,14
DA:193,14
DA:194,14
DA:195,14
DA:196,14
DA:197,14
DA:198,14
DA:199,14
DA:200,14
DA:201,14
DA:202,14
DA:203,14
DA:204,14
DA:205,14
DA:206,14
DA:207,14
DA:208,14
DA:209,14
DA:210,14
DA:211,14
DA:212,14
DA:213,14
DA:214,14
DA:215,14
DA:216,14
DA:217,14
DA:218,14
DA:219,14
DA:220,14
DA:221,14
DA:222,14
DA:223,14
DA:224,14
DA:225,14
DA:226,14
DA:227,14
DA:228,14
DA:229,14
DA:230,14
DA:231,14
DA:232,14
DA:233,14
DA:234,14
DA:235,14
DA:236,14
DA:237,14
DA:238,14
DA:239,14
DA:240,14
DA:241,14
DA:242,14
DA:243,14
DA:244,14
DA:245,14
DA:246,14
DA:247,14
DA:248,14
DA:249,14
DA:250,14
DA:251,14
DA:252,14
DA:253,14
DA:254,14
DA:255,14
DA:256,14
DA:257,14
DA:258,14
DA:259,14
DA:260,14
DA:261,14
DA:262,14
DA:263,14
DA:264,14
DA:265,14
DA:266,14
DA:267,14
DA:268,14
DA:269,14
DA:270,14
DA:271,14
DA:272,14
DA:273,14
DA:274,14
DA:275,14
DA:276,14
DA:277,14
DA:278,14
DA:279,14
DA:280,14
DA:281,14
DA:282,14
DA:283,14
DA:284,14
DA:285,14
DA:286,14
DA:287,14
DA:288,14
DA:289,14
DA:290,14
DA:291,14
DA:292,14
DA:293,14
DA:294,14
DA:295,14
DA:296,14
DA:297,14
DA:298,14
DA:299,14
DA:300,14
DA:301,14
DA:302,14
DA:303,14
DA:304,14
DA:305,14
DA:306,14
DA:307,14
DA:308,14
DA:309,14
DA:310,14
DA:311,14
DA:312,14
DA:313,14
DA:314,14
DA:315,14
DA:316,14
DA:317,14
DA:318,14
DA:319,14
DA:320,14
DA:321,14
DA:322,14
DA:323,14
DA:324,14
DA:325,14
DA:326,14
DA:327,14
DA:328,14
DA:329,14
DA:330,14
DA:331,14
DA:332,14
DA:333,14
DA:334,14
DA:335,14
DA:336,14
DA:337,14
DA:338,14
DA:339,14
DA:340,14
DA:341,14
DA:342,14
DA:343,14
DA:344,14
DA:345,14
DA:346,14
DA:347,14
DA:348,14
DA:349,14
DA:350,14
DA:351,14
DA:352,14
DA:353,14
DA:354,14
DA:356,574
DA:357,574
DA:358,574
DA:360,14
DA:362,14
DA:363,14
DA:364,14
DA:365,14
DA:366,14
DA:367,14
DA:368,14
DA:369,14
DA:370,14
DA:371,14
DA:372,14
DA:373,14
DA:374,14
DA:375,14
DA:376,14
DA:377,14
DA:378,14
DA:379,14
DA:380,14
DA:381,14
DA:382,14
DA:383,14
DA:384,14
DA:385,14
DA:386,14
DA:387,14
DA:388,14
DA:389,14
DA:390,14
DA:391,14
DA:392,14
DA:393,14
DA:394,14
DA:395,14
DA:396,14
DA:397,14
DA:398,14
DA:399,14
DA:400,14
DA:401,14
DA:402,14
DA:403,14
DA:404,14
DA:405,14
DA:406,14
DA:407,14
DA:408,14
DA:409,14
DA:410,14
DA:411,14
DA:412,14
DA:413,14
DA:414,14
DA:415,14
DA:416,14
DA:417,14
DA:418,14
DA:419,14
DA:420,14
DA:421,14
DA:422,14
DA:423,14
DA:424,14
DA:425,14
DA:426,14
DA:427,14
DA:428,14
DA:429,14
DA:430,14
DA:431,14
DA:432,14
DA:433,14
DA:434,14
DA:435,14
DA:436,14
DA:437,14
DA:438,14
DA:439,14
DA:440,14
DA:441,14
DA:442,14
DA:443,14
DA:444,14
DA:445,14
DA:446,14
DA:447,14
DA:448,14
DA:449,14
DA:450,14
DA:451,14
DA:452,14
DA:453,14
DA:454,14
DA:455,14
DA:456,14
DA:457,14
DA:458,14
DA:459,14
DA:460,14
DA:461,14
DA:462,14
DA:463,14
DA:464,14
DA:465,14
DA:466,14
DA:467,14
DA:468,14
DA:469,14
DA:470,14
DA:471,14
DA:472,14
DA:473,14
DA:474,14
DA:475,14
DA:476,14
DA:477,14
DA:478,14
DA:479,14
DA:480,14
DA:481,14
DA:482,14
DA:483,14
DA:484,14
DA:485,14
DA:486,14
DA:487,14
DA:488,14
DA:489,14
DA:490,14
DA:491,14
DA:492,14
DA:493,14
DA:494,14
DA:495,14
DA:496,14
DA:497,14
DA:498,14
DA:499,14
DA:500,14
DA:501,14
DA:502,14
DA:503,14
DA:504,14
DA:505,14
DA:506,14
DA:507,14
DA:508,14
DA:509,14
DA:510,14
DA:511,14
DA:512,14
DA:513,14
DA:514,14
DA:515,14
DA:516,14
DA:517,14
DA:518,14
DA:519,14
DA:520,14
DA:521,14
DA:522,14
DA:523,14
DA:524,14
DA:525,14
DA:526,14
DA:527,14
DA:528,14
DA:529,14
DA:530,14
DA:531,14
DA:532,14
DA:533,14
DA:534,14
DA:536,574
DA:537,574
DA:538,574
DA:540,14
DA:542,14
DA:543,14
DA:544,14
DA:545,14
DA:546,14
DA:547,14
DA:548,14
DA:549,14
DA:550,14
DA:551,14
DA:552,14
DA:553,14
DA:554,14
DA:555,14
DA:556,14
DA:557,14
DA:558,14
DA:559,14
DA:560,14
DA:561,14
DA:562,14
DA:563,14
DA:564,14
DA:565,14
DA:566,14
DA:567,14
DA:568,14
DA:569,14
DA:570,14
DA:571,14
DA:572,14
DA:573,14
DA:574,14
DA:575,14
DA:576,14
DA:577,14
DA:578,14
DA:579,14
DA:580,14
DA:581,14
DA:582,14
DA:583,14
DA:584,14
DA:585,14
DA:586,14
DA:587,14
DA:588,14
DA:589,14
DA:590,14
DA:591,14
DA:592,14
DA:593,14
DA:594,14
DA:595,14
DA:596,14
DA:597,14
DA:598,14
DA:599,14
DA:600,14
DA:601,14
DA:602,14
DA:603,14
DA:604,14
DA:605,14
DA:606,14
DA:607,14
DA:608,14
DA:609,14
DA:610,14
DA:611,14
DA:613,42
DA:614,42
DA:615,42
DA:616,42
DA:617,0
DA:618,0
DA:621,42
DA:622,42
DA:623,42
DA:624,210
DA:625,210
DA:626,210
DA:627,210
DA:628,210
DA:629,210
DA:630,42
DA:631,42
DA:632,42
DA:633,42
DA:634,0
DA:635,0
DA:636,0
DA:637,0
DA:640,210
DA:643,210
DA:644,210
DA:645,210
DA:646,210
DA:647,210
DA:648,210
DA:650,0
DA:651,0
DA:655,210
DA:656,420
DA:657,0
DA:658,0
DA:659,0
DA:660,0
DA:664,14
BRF:0
BRH:0
LF:601
LH:582
end_of_record
SF:crates/libcontainer/src/config.rs
FN:72,_RNCNvNtNtCs4hmKDm3KTCY_12libcontainer6config5tests25test_config_save_and_load0B7_
FN:61,_RNCNvNtNtCs4hmKDm3KTCY_12libcontainer6config5tests21test_config_from_spec0B7_
FN:73,_RNvNtNtCs4hmKDm3KTCY_12libcontainer6config5testss_25test_config_save_and_load
FN:62,_RNvNtNtCs4hmKDm3KTCY_12libcontainer6config5testss_21test_config_from_spec
FN:39,_RINvMNtCs4hmKDm3KTCY_12libcontainer6configNtB3_11YoukiConfig4saveRNtNtCslIgaOqvXPTn_3std4path4PathEB5_
FN:49,_RNCINvMNtCs4hmKDm3KTCY_12libcontainer6configNtB5_11YoukiConfig4loadRNtNtCslIgaOqvXPTn_3std4path7PathBufE0B7_
FN:17,_RNvXs0_NtCs4hmKDm3KTCY_12libcontainer6configNtB5_11YoukiConfigNtNtCshypYLURccL2_4core3fmt5Debug3fmt
FN:17,_RINvXNvNtCs4hmKDm3KTCY_12libcontainer6configs_1__NtB5_11YoukiConfigNtNtCsdJwOYunNrgH_5serde3ser9Serialize9serializeQINtNtCs5MpeWeKc5si_10serde_json3ser10SerializerRNtNtCslIgaOqvXPTn_3std2fs4FileEEB7_
FN:17,_RNvXs2_NtCs4hmKDm3KTCY_12libcontainer6configNtB5_11YoukiConfigNtNtCshypYLURccL2_4core3cmp9PartialEq2eqB7_
FN:45,_RINvMNtCs4hmKDm3KTCY_12libcontainer6configNtB3_11YoukiConfig4loadRNtNtB5_5utils7TempDirEB5_
FN:17,_RNvXNvXNvNtCs4hmKDm3KTCY_12libcontainer6config1__NtB7_11YoukiConfigNtNtCsdJwOYunNrgH_5serde2de11Deserialize11deserializeNtB2_14___FieldVisitorNtB15_7Visitor9expecting
FN:17,_RINvXNvXNvNtCs4hmKDm3KTCY_12libcontainer6config1__NtB8_11YoukiConfigNtNtCsdJwOYunNrgH_5serde2de11Deserialize11deserializeNtB3_14___FieldVisitorNtB16_7Visitor9visit_u64pEBa_
FN:17,_RINvXNvNtCs4hmKDm3KTCY_12libcontainer6config1__NtB5_11YoukiConfigNtNtCsdJwOYunNrgH_5serde2de11Deserialize11deserializeQINtNtCs5MpeWeKc5si_10serde_json2de12DeserializerINtNtB1Y_4read6IoReadRNtNtCslIgaOqvXPTn_3std2fs4FileEEEB7_
FN:17,_RINvXs_NvXNvNtCs4hmKDm3KTCY_12libcontainer6config1__NtBa_11YoukiConfigNtNtCsdJwOYunNrgH_5serde2de11Deserialize11deserializeNtB5_7___FieldB16_11deserializeINtNtCs5MpeWeKc5si_10serde_json2de6MapKeyINtNtB2x_4read6IoReadRNtNtCslIgaOqvXPTn_3std2fs4FileEEEBc_
FN:17,_RNvXs0_NvXNvNtCs4hmKDm3KTCY_12libcontainer6config1__NtBa_11YoukiConfigNtNtCsdJwOYunNrgH_5serde2de11Deserialize11deserializeNtB5_9___VisitorNtB18_7Visitor9expecting
FN:39,_RINvMNtCs4hmKDm3KTCY_12libcontainer6configNtB3_11YoukiConfig4saveRNtNtB5_5utils7TempDirEB5_
FN:17,_RINvXs0_NvXNvNtCs4hmKDm3KTCY_12libcontainer6config1__NtBb_11YoukiConfigNtNtCsdJwOYunNrgH_5serde2de11Deserialize11deserializeNtB6_9___VisitorNtB19_7Visitor9visit_mapINtNtCs5MpeWeKc5si_10serde_json2de9MapAccessINtNtB2H_4read6IoReadRNtNtCslIgaOqvXPTn_3std2fs4FileEEEBd_
FN:17,_RNvXs_NtCs4hmKDm3KTCY_12libcontainer6configNtB4_11YoukiConfigNtNtCshypYLURccL2_4core5clone5Clone5cloneB6_
FN:49,_RNCINvMNtCs4hmKDm3KTCY_12libcontainer6configNtB5_11YoukiConfig4loadRNtNtB7_5utils7TempDirE0B7_
FN:25,_RNvMNtCs4hmKDm3KTCY_12libcontainer6configNtB2_11YoukiConfig9from_spec
FN:17,_RINvXNvXNvNtCs4hmKDm3KTCY_12libcontainer6config1__NtB8_11YoukiConfigNtNtCsdJwOYunNrgH_5serde2de11Deserialize11deserializeNtB3_14___FieldVisitorNtB16_7Visitor11visit_bytespEBa_
FN:17,_RINvXs0_NvXNvNtCs4hmKDm3KTCY_12libcontainer6config1__NtBb_11YoukiConfigNtNtCsdJwOYunNrgH_5serde2de11Deserialize11deserializeNtB6_9___VisitorNtB19_7Visitor9visit_seqINtNtCs5MpeWeKc5si_10serde_json2de9SeqAccessINtNtB2H_4read6IoReadRNtNtCslIgaOqvXPTn_3std2fs4FileEEEBd_
FN:17,_RINvXNvXNvNtCs4hmKDm3KTCY_12libcontainer6config1__NtB8_11YoukiConfigNtNtCsdJwOYunNrgH_5serde2de11Deserialize11deserializeNtB3_14___FieldVisitorNtB16_7Visitor9visit_strNtNtCs5MpeWeKc5si_10serde_json5error5ErrorEBa_
FN:45,_RINvMNtCs4hmKDm3KTCY_12libcontainer6configNtB3_11YoukiConfig4loadRNtNtCslIgaOqvXPTn_3std4path7PathBufEB5_
FN:17,_RNvXs2_NtCs4hmKDm3KTCY_12libcontainer6configNtB5_11YoukiConfigNtNtCshypYLURccL2_4core3cmp9PartialEq2neB7_
FN:17,_RNvXs_NtCs9aHzSL9YGbd_12libcontainer6configNtB4_11YoukiConfigNtNtCshypYLURccL2_4core5clone5Clone5cloneB6_
FN:45,_RINvMNtCs9aHzSL9YGbd_12libcontainer6configNtB3_11YoukiConfig4loadRNtNtCslIgaOqvXPTn_3std4path7PathBufEB5_
FN:17,_RINvXNvNtCs9aHzSL9YGbd_12libcontainer6configs_1__NtB5_11YoukiConfigNtNtCsdJwOYunNrgH_5serde3ser9Serialize9serializeQINtNtCs5MpeWeKc5si_10serde_json3ser10SerializerRNtNtCslIgaOqvXPTn_3std2fs4FileEEB7_
FN:17,_RINvXs0_NvXNvNtCs9aHzSL9YGbd_12libcontainer6config1__NtBb_11YoukiConfigNtNtCsdJwOYunNrgH_5serde2de11Deserialize11deserializeNtB6_9___VisitorNtB19_7Visitor9visit_mapINtNtCs5MpeWeKc5si_10serde_json2de9MapAccessINtNtB2H_4read6IoReadRNtNtCslIgaOqvXPTn_3std2fs4FileEEEBd_
FN:39,_RINvMNtCs9aHzSL9YGbd_12libcontainer6configNtB3_11YoukiConfig4saveRNtNtCslIgaOqvXPTn_3std4path7PathBufEB5_
FN:17,_RINvXNvXNvNtCs9aHzSL9YGbd_12libcontainer6config1__NtB8_11YoukiConfigNtNtCsdJwOYunNrgH_5serde2de11Deserialize11deserializeNtB3_14___FieldVisitorNtB16_7Visitor9visit_strNtNtCs5MpeWeKc5si_10serde_json5error5ErrorEBa_
FN:17,_RNvXNvXNvNtCs9aHzSL9YGbd_12libcontainer6config1__NtB7_11YoukiConfigNtNtCsdJwOYunNrgH_5serde2de11Deserialize11deserializeNtB2_14___FieldVisitorNtB15_7Visitor9expecting
FN:17,_RNvXs0_NvXNvNtCs9aHzSL9YGbd_12libcontainer6config1__NtBa_11YoukiConfigNtNtCsdJwOYunNrgH_5serde2de11Deserialize11deserializeNtB5_9___VisitorNtB18_7Visitor9expecting
FN:17,_RINvXs0_NvXNvNtCs9aHzSL9YGbd_12libcontainer6config1__NtBb_11YoukiConfigNtNtCsdJwOYunNrgH_5serde2de11Deserialize11deserializeNtB6_9___VisitorNtB19_7Visitor9visit_seqINtNtCs5MpeWeKc5si_10serde_json2de9SeqAccessINtNtB2H_4read6IoReadRNtNtCslIgaOqvXPTn_3std2fs4FileEEEBd_
FN:49,_RNCINvMNtCs9aHzSL9YGbd_12libcontainer6configNtB5_11YoukiConfig4loadRNtNtCslIgaOqvXPTn_3std4path7PathBufE0B7_
FN:25,_RNvMNtCs9aHzSL9YGbd_12libcontainer6configNtB2_11YoukiConfig9from_spec
FN:17,_RINvXNvXNvNtCs9aHzSL9YGbd_12libcontainer6config1__NtB8_11YoukiConfigNtNtCsdJwOYunNrgH_5serde2de11Deserialize11deserializeNtB3_14___FieldVisitorNtB16_7Visitor11visit_bytespEBa_
FN:17,_RNvXs0_NtCs9aHzSL9YGbd_12libcontainer6configNtB5_11YoukiConfigNtNtCshypYLURccL2_4core3fmt5Debug3fmt
FN:17,_RINvXNvXNvNtCs9aHzSL9YGbd_12libcontainer6config1__NtB8_11YoukiConfigNtNtCsdJwOYunNrgH_5serde2de11Deserialize11deserializeNtB3_14___FieldVisitorNtB16_7Visitor9visit_u64pEBa_
FN:17,_RNvXs2_NtCs9aHzSL9YGbd_12libcontainer6configNtB5_11YoukiConfigNtNtCshypYLURccL2_4core3cmp9PartialEq2neB7_
FN:17,_RNvXs2_NtCs9aHzSL9YGbd_12libcontainer6configNtB5_11YoukiConfigNtNtCshypYLURccL2_4core3cmp9PartialEq2eqB7_
FN:17,_RINvXNvNtCs9aHzSL9YGbd_12libcontainer6config1__NtB5_11YoukiConfigNtNtCsdJwOYunNrgH_5serde2de11Deserialize11deserializeQINtNtCs5MpeWeKc5si_10serde_json2de12DeserializerINtNtB1Y_4read6IoReadRNtNtCslIgaOqvXPTn_3std2fs4FileEEEB7_
FN:17,_RINvXs_NvXNvNtCs9aHzSL9YGbd_12libcontainer6config1__NtBa_11YoukiConfigNtNtCsdJwOYunNrgH_5serde2de11Deserialize11deserializeNtB5_7___FieldB16_11deserializeINtNtCs5MpeWeKc5si_10serde_json2de6MapKeyINtNtB2x_4read6IoReadRNtNtCslIgaOqvXPTn_3std2fs4FileEEEBc_
FNDA:14,_RNCNvNtNtCs4hmKDm3KTCY_12libcontainer6config5tests25test_config_save_and_load0B7_
FNDA:14,_RNCNvNtNtCs4hmKDm3KTCY_12libcontainer6config5tests21test_config_from_spec0B7_
FNDA:14,_RNvNtNtCs4hmKDm3KTCY_12libcontainer6config5testss_25test_config_save_and_load
FNDA:14,_RNvNtNtCs4hmKDm3KTCY_12libcontainer6config5testss_21test_config_from_spec
FNDA:14,_RINvMNtCs4hmKDm3KTCY_12libcontainer6configNtB3_11YoukiConfig4saveRNtNtCslIgaOqvXPTn_3std4path4PathEB5_
FNDA:0,_RNCINvMNtCs4hmKDm3KTCY_12libcontainer6configNtB5_11YoukiConfig4loadRNtNtCslIgaOqvXPTn_3std4path7PathBufE0B7_
FNDA:0,_RNvXs0_NtCs4hmKDm3KTCY_12libcontainer6configNtB5_11YoukiConfigNtNtCshypYLURccL2_4core3fmt5Debug3fmt
FNDA:28,_RINvXNvNtCs4hmKDm3KTCY_12libcontainer6configs_1__NtB5_11YoukiConfigNtNtCsdJwOYunNrgH_5serde3ser9Serialize9serializeQINtNtCs5MpeWeKc5si_10serde_json3ser10SerializerRNtNtCslIgaOqvXPTn_3std2fs4FileEEB7_
FNDA:14,_RNvXs2_NtCs4hmKDm3KTCY_12libcontainer6configNtB5_11YoukiConfigNtNtCshypYLURccL2_4core3cmp9PartialEq2eqB7_
FNDA:14,_RINvMNtCs4hmKDm3KTCY_12libcontainer6configNtB3_11YoukiConfig4loadRNtNtB5_5utils7TempDirEB5_
FNDA:0,_RNvXNvXNvNtCs4hmKDm3KTCY_12libcontainer6config1__NtB7_11YoukiConfigNtNtCsdJwOYunNrgH_5serde2de11Deserialize11deserializeNtB2_14___FieldVisitorNtB15_7Visitor9expecting
FNDA:0,_RINvXNvXNvNtCs4hmKDm3KTCY_12libcontainer6config1__NtB8_11YoukiConfigNtNtCsdJwOYunNrgH_5serde2de11Deserialize11deserializeNtB3_14___FieldVisitorNtB16_7Visitor9visit_u64pEBa_
FNDA:28,_RINvXNvNtCs4hmKDm3KTCY_12libcontainer6config1__NtB5_11YoukiConfigNtNtCsdJwOYunNrgH_5serde2de11Deserialize11deserializeQINtNtCs5MpeWeKc5si_10serde_json2de12DeserializerINtNtB1Y_4read6IoReadRNtNtCslIgaOqvXPTn_3std2fs4FileEEEB7_
FNDA:56,_RINvXs_NvXNvNtCs4hmKDm3KTCY_12libcontainer6config1__NtBa_11YoukiConfigNtNtCsdJwOYunNrgH_5serde2de11Deserialize11deserializeNtB5_7___FieldB16_11deserializeINtNtCs5MpeWeKc5si_10serde_json2de6MapKeyINtNtB2x_4read6IoReadRNtNtCslIgaOqvXPTn_3std2fs4FileEEEBc_
FNDA:0,_RNvXs0_NvXNvNtCs4hmKDm3KTCY_12libcontainer6config1__NtBa_11YoukiConfigNtNtCsdJwOYunNrgH_5serde2de11Deserialize11deserializeNtB5_9___VisitorNtB18_7Visitor9expecting
FNDA:14,_RINvMNtCs4hmKDm3KTCY_12libcontainer6configNtB3_11YoukiConfig4saveRNtNtB5_5utils7TempDirEB5_
FNDA:0,_RINvXs0_NvXNvNtCs4hmKDm3KTCY_12libcontainer6config1__NtBb_11YoukiConfigNtNtCsdJwOYunNrgH_5serde2de11Deserialize11deserializeNtB6_9___VisitorNtB19_7Visitor9visit_mapINtNtCs5MpeWeKc5si_10serde_json2de9MapAccessINtNtB2H_4read6IoReadRNtNtCslIgaOqvXPTn_3std2fs4FileEEEBd_
FNDA:0,_RNvXs_NtCs4hmKDm3KTCY_12libcontainer6configNtB4_11YoukiConfigNtNtCshypYLURccL2_4core5clone5Clone5cloneB6_
FNDA:0,_RNCINvMNtCs4hmKDm3KTCY_12libcontainer6configNtB5_11YoukiConfig4loadRNtNtB7_5utils7TempDirE0B7_
FNDA:42,_RNvMNtCs4hmKDm3KTCY_12libcontainer6configNtB2_11YoukiConfig9from_spec
FNDA:0,_RINvXNvXNvNtCs4hmKDm3KTCY_12libcontainer6config1__NtB8_11YoukiConfigNtNtCsdJwOYunNrgH_5serde2de11Deserialize11deserializeNtB3_14___FieldVisitorNtB16_7Visitor11visit_bytespEBa_
FNDA:0,_RINvXs0_NvXNvNtCs4hmKDm3KTCY_12libcontainer6config1__NtBb_11YoukiConfigNtNtCsdJwOYunNrgH_5serde2de11Deserialize11deserializeNtB6_9___VisitorNtB19_7Visitor9visit_seqINtNtCs5MpeWeKc5si_10serde_json2de9SeqAccessINtNtB2H_4read6IoReadRNtNtCslIgaOqvXPTn_3std2fs4FileEEEBd_
FNDA:56,_RINvXNvXNvNtCs4hmKDm3KTCY_12libcontainer6config1__NtB8_11YoukiConfigNtNtCsdJwOYunNrgH_5serde2de11Deserialize11deserializeNtB3_14___FieldVisitorNtB16_7Visitor9visit_strNtNtCs5MpeWeKc5si_10serde_json5error5ErrorEBa_
FNDA:14,_RINvMNtCs4hmKDm3KTCY_12libcontainer6configNtB3_11YoukiConfig4loadRNtNtCslIgaOqvXPTn_3std4path7PathBufEB5_
FNDA:0,_RNvXs2_NtCs4hmKDm3KTCY_12libcontainer6configNtB5_11YoukiConfigNtNtCshypYLURccL2_4core3cmp9PartialEq2neB7_
FNDA:0,_RNvXs_NtCs9aHzSL9YGbd_12libcontainer6configNtB4_11YoukiConfigNtNtCshypYLURccL2_4core5clone5Clone5cloneB6_
FNDA:0,_RINvMNtCs9aHzSL9YGbd_12libcontainer6configNtB3_11YoukiConfig4loadRNtNtCslIgaOqvXPTn_3std4path7PathBufEB5_
FNDA:0,_RINvXNvNtCs9aHzSL9YGbd_12libcontainer6configs_1__NtB5_11YoukiConfigNtNtCsdJwOYunNrgH_5serde3ser9Serialize9serializeQINtNtCs5MpeWeKc5si_10serde_json3ser10SerializerRNtNtCslIgaOqvXPTn_3std2fs4FileEEB7_
FNDA:0,_RINvXs0_NvXNvNtCs9aHzSL9YGbd_12libcontainer6config1__NtBb_11YoukiConfigNtNtCsdJwOYunNrgH_5serde2de11Deserialize11deserializeNtB6_9___VisitorNtB19_7Visitor9visit_mapINtNtCs5MpeWeKc5si_10serde_json2de9MapAccessINtNtB2H_4read6IoReadRNtNtCslIgaOqvXPTn_3std2fs4FileEEEBd_
FNDA:0,_RINvMNtCs9aHzSL9YGbd_12libcontainer6configNtB3_11YoukiConfig4saveRNtNtCslIgaOqvXPTn_3std4path7PathBufEB5_
FNDA:0,_RINvXNvXNvNtCs9aHzSL9YGbd_12libcontainer6config1__NtB8_11YoukiConfigNtNtCsdJwOYunNrgH_5serde2de11Deserialize11deserializeNtB3_14___FieldVisitorNtB16_7Visitor9visit_strNtNtCs5MpeWeKc5si_10serde_json5error5ErrorEBa_
FNDA:0,_RNvXNvXNvNtCs9aHzSL9YGbd_12libcontainer6config1__NtB7_11YoukiConfigNtNtCsdJwOYunNrgH_5serde2de11Deserialize11deserializeNtB2_14___FieldVisitorNtB15_7Visitor9expecting
FNDA:0,_RNvXs0_NvXNvNtCs9aHzSL9YGbd_12libcontainer6config1__NtBa_11YoukiConfigNtNtCsdJwOYunNrgH_5serde2de11Deserialize11deserializeNtB5_9___VisitorNtB18_7Visitor9expecting
FNDA:0,_RINvXs0_NvXNvNtCs9aHzSL9YGbd_12libcontainer6config1__NtBb_11YoukiConfigNtNtCsdJwOYunNrgH_5serde2de11Deserialize11deserializeNtB6_9___VisitorNtB19_7Visitor9visit_seqINtNtCs5MpeWeKc5si_10serde_json2de9SeqAccessINtNtB2H_4read6IoReadRNtNtCslIgaOqvXPTn_3std2fs4FileEEEBd_
FNDA:0,_RNCINvMNtCs9aHzSL9YGbd_12libcontainer6configNtB5_11YoukiConfig4loadRNtNtCslIgaOqvXPTn_3std4path7PathBufE0B7_
FNDA:0,_RNvMNtCs9aHzSL9YGbd_12libcontainer6configNtB2_11YoukiConfig9from_spec
FNDA:0,_RINvXNvXNvNtCs9aHzSL9YGbd_12libcontainer6config1__NtB8_11YoukiConfigNtNtCsdJwOYunNrgH_5serde2de11Deserialize11deserializeNtB3_14___FieldVisitorNtB16_7Visitor11visit_bytespEBa_
FNDA:0,_RNvXs0_NtCs9aHzSL9YGbd_12libcontainer6configNtB5_11YoukiConfigNtNtCshypYLURccL2_4core3fmt5Debug3fmt
FNDA:0,_RINvXNvXNvNtCs9aHzSL9YGbd_12libcontainer6config1__NtB8_11YoukiConfigNtNtCsdJwOYunNrgH_5serde2de11Deserialize11deserializeNtB3_14___FieldVisitorNtB16_7Visitor9visit_u64pEBa_
FNDA:0,_RNvXs2_NtCs9aHzSL9YGbd_12libcontainer6configNtB5_11YoukiConfigNtNtCshypYLURccL2_4core3cmp9PartialEq2neB7_
FNDA:0,_RNvXs2_NtCs9aHzSL9YGbd_12libcontainer6configNtB5_11YoukiConfigNtNtCshypYLURccL2_4core3cmp9PartialEq2eqB7_
FNDA:0,_RINvXNvNtCs9aHzSL9YGbd_12libcontainer6config1__NtB5_11YoukiConfigNtNtCsdJwOYunNrgH_5serde2de11Deserialize11deserializeQINtNtCs5MpeWeKc5si_10serde_json2de12DeserializerINtNtB1Y_4read6IoReadRNtNtCslIgaOqvXPTn_3std2fs4FileEEEB7_
FNDA:0,_RINvXs_NvXNvNtCs9aHzSL9YGbd_12libcontainer6config1__NtBa_11YoukiConfigNtNtCsdJwOYunNrgH_5serde2de11Deserialize11deserializeNtB5_7___FieldB16_11deserializeINtNtCs5MpeWeKc5si_10serde_json2de6MapKeyINtNtB2x_4read6IoReadRNtNtCslIgaOqvXPTn_3std2fs4FileEEEBc_
FNF:13
FNH:10
DA:17,140
DA:25,42
DA:26,42
DA:27,42
DA:28,42
DA:29,42
DA:30,42
DA:31,42
DA:32,42
DA:33,42
DA:34,42
DA:37,42
DA:39,28
DA:40,28
DA:41,28
DA:42,28
DA:43,28
DA:45,28
DA:46,28
DA:47,28
DA:48,28
DA:49,28
DA:50,28
DA:51,28
DA:61,14
DA:62,14
DA:63,14
DA:64,14
DA:65,14
DA:66,14
DA:67,14
DA:68,14
DA:69,14
DA:70,14
DA:72,14
DA:73,14
DA:74,14
DA:75,14
DA:76,14
DA:77,14
DA:78,14
DA:79,14
DA:80,14
DA:81,14
DA:82,14
BRF:0
BRH:0
LF:50
LH:47
end_of_record
SF:crates/libcontainer/src/container/builder.rs
FN:92,_RINvMNtNtCs9aHzSL9YGbd_12libcontainer9container7builderNtB3_16ContainerBuilder7as_initpEB7_
FN:123,_RNCINvMNtNtCs9aHzSL9YGbd_12libcontainer9container7builderNtB5_16ContainerBuilder13with_pid_filepE0B9_
FN:138,_RINvMNtNtCs9aHzSL9YGbd_12libcontainer9container7builderNtB3_16ContainerBuilder19with_console_socketpEB7_
FN:106,_RINvMNtNtCs9aHzSL9YGbd_12libcontainer9container7builderNtB3_16ContainerBuilder14with_root_pathpEB7_
FN:139,_RNCINvMNtNtCs9aHzSL9YGbd_12libcontainer9container7builderNtB5_16ContainerBuilder19with_console_socketpE0B9_
FN:49,_RNvMNtNtCs9aHzSL9YGbd_12libcontainer9container7builderNtB2_16ContainerBuilder3new
FN:75,_RNvMNtNtCs9aHzSL9YGbd_12libcontainer9container7builderNtB2_16ContainerBuilder9as_tenant
FN:154,_RNvMNtNtCs9aHzSL9YGbd_12libcontainer9container7builderNtB2_16ContainerBuilder18with_preserved_fds
FN:122,_RINvMNtNtCs9aHzSL9YGbd_12libcontainer9container7builderNtB3_16ContainerBuilder13with_pid_filepEB7_
FNDA:0,_RINvMNtNtCs9aHzSL9YGbd_12libcontainer9container7builderNtB3_16ContainerBuilder7as_initpEB7_
FNDA:0,_RNCINvMNtNtCs9aHzSL9YGbd_12libcontainer9container7builderNtB5_16ContainerBuilder13with_pid_filepE0B9_
FNDA:0,_RINvMNtNtCs9aHzSL9YGbd_12libcontainer9container7builderNtB3_16ContainerBuilder19with_console_socketpEB7_
FNDA:0,_RINvMNtNtCs9aHzSL9YGbd_12libcontainer9container7builderNtB3_16ContainerBuilder14with_root_pathpEB7_
FNDA:0,_RNCINvMNtNtCs9aHzSL9YGbd_12libcontainer9container7builderNtB5_16ContainerBuilder19with_console_socketpE0B9_
FNDA:0,_RNvMNtNtCs9aHzSL9YGbd_12libcontainer9container7builderNtB2_16ContainerBuilder3new
FNDA:0,_RNvMNtNtCs9aHzSL9YGbd_12libcontainer9container7builderNtB2_16ContainerBuilder9as_tenant
FNDA:0,_RNvMNtNtCs9aHzSL9YGbd_12libcontainer9container7builderNtB2_16ContainerBuilder18with_preserved_fds
FNDA:0,_RINvMNtNtCs9aHzSL9YGbd_12libcontainer9container7builderNtB3_16ContainerBuilder13with_pid_filepEB7_
FNF:9
FNH:0
DA:49,0
DA:50,0
DA:51,0
DA:52,0
DA:53,0
DA:54,0
DA:55,0
DA:56,0
DA:57,0
DA:58,0
DA:59,0
DA:60,0
DA:75,0
DA:76,0
DA:77,0
DA:92,0
DA:93,0
DA:94,0
DA:106,0
DA:107,0
DA:108,0
DA:109,0
DA:122,0
DA:123,0
DA:124,0
DA:125,0
DA:138,0
DA:139,0
DA:140,0
DA:141,0
DA:154,0
DA:155,0
DA:156,0
DA:157,0
BRF:0
BRH:0
LF:36
LH:0
end_of_record
SF:crates/libcontainer/src/container/builder_impl.rs
FN:144,_RNvMNtNtCs9aHzSL9YGbd_12libcontainer9container12builder_implNtB2_20ContainerBuilderImpl17cleanup_container
FN:165,_RNCNvMNtNtCs9aHzSL9YGbd_12libcontainer9container12builder_implNtB4_20ContainerBuilderImpl17cleanup_container0B8_
FN:55,_RNvMNtNtCs9aHzSL9YGbd_12libcontainer9container12builder_implNtB2_20ContainerBuilderImpl13run_container
FN:44,_RNvMNtNtCs9aHzSL9YGbd_12libcontainer9container12builder_implNtB2_20ContainerBuilderImpl6create
FNDA:0,_RNvMNtNtCs9aHzSL9YGbd_12libcontainer9container12builder_implNtB2_20ContainerBuilderImpl17cleanup_container
FNDA:0,_RNCNvMNtNtCs9aHzSL9YGbd_12libcontainer9container12builder_implNtB4_20ContainerBuilderImpl17cleanup_container0B8_
FNDA:0,_RNvMNtNtCs9aHzSL9YGbd_12libcontainer9container12builder_implNtB2_20ContainerBuilderImpl13run_container
FNDA:0,_RNvMNtNtCs9aHzSL9YGbd_12libcontainer9container12builder_implNtB2_20ContainerBuilderImpl6create
FNF:4
FNH:0
DA:44,0
DA:45,0
DA:46,0
DA:47,0
DA:48,0
DA:49,0
DA:50,0
DA:51,0
DA:52,0
DA:53,0
DA:55,0
DA:56,0
DA:57,0
DA:58,0
DA:59,0
DA:60,0
DA:61,0
DA:62,0
DA:63,0
DA:64,0
DA:65,0
DA:66,0
DA:67,0
DA:69,0
DA:70,0
DA:71,0
DA:72,0
DA:73,0
DA:79,0
DA:90,0
DA:91,0
DA:92,0
DA:93,0
DA:94,0
DA:104,0
DA:105,0
DA:106,0
DA:111,0
DA:112,0
DA:113,0
DA:114,0
DA:115,0
DA:116,0
DA:117,0
DA:118,0
DA:119,0
DA:120,0
DA:121,0
DA:122,0
DA:124,0
DA:127,0
DA:128,0
DA:129,0
DA:131,0
DA:133,0
DA:134,0
DA:135,0
DA:136,0
DA:137,0
DA:138,0
DA:139,0
DA:141,0
DA:142,0
DA:144,0
DA:145,0
DA:146,0
DA:147,0
DA:148,0
DA:149,0
DA:150,0
DA:151,0
DA:152,0
DA:153,0
DA:154,0
DA:155,0
DA:157,0
DA:158,0
DA:159,0
DA:160,0
DA:162,0
DA:163,0
DA:164,0
DA:165,0
DA:166,0
DA:167,0
DA:168,0
DA:169,0
DA:170,0
DA:172,0
DA:173,0
DA:174,0
DA:175,0
DA:176,0
DA:177,0
BRF:0
BRH:0
LF:95
LH:0
end_of_record
SF:crates/libcontainer/src/container/container.rs
FN:60,_RNvMs_NtNtCs4hmKDm3KTCY_12libcontainer9container9containerNtB4_9Container8can_kill
FN:273,_RNCNvNtNtNtCs4hmKDm3KTCY_12libcontainer9container9container5tests28test_refresh_load_save_state0B9_
FN:119,_RNvMs_NtNtCs4hmKDm3KTCY_12libcontainer9container9containerNtB4_9Container7systemd
FN:72,_RNvMs_NtNtCs4hmKDm3KTCY_12libcontainer9container9containerNtB4_9Container9can_pause
FN:173,_RNvMs_NtNtCs4hmKDm3KTCY_12libcontainer9container9containerNtB4_9Container13refresh_state
FN:209,_RNvNtNtNtCs4hmKDm3KTCY_12libcontainer9container9container5testss_16test_get_set_pid
FN:89,_RNvMs_NtNtCs4hmKDm3KTCY_12libcontainer9container9containerNtB4_9Container3pid
FN:114,_RNvMs_NtNtCs4hmKDm3KTCY_12libcontainer9container9containerNtB4_9Container11set_creator
FN:132,_RNvMs_NtNtCs4hmKDm3KTCY_12libcontainer9container9containerNtB4_9Container10set_status
FN:28,_RNvXNtNtCs4hmKDm3KTCY_12libcontainer9container9containerNtB2_9ContainerNtNtCshypYLURccL2_4core7default7Default7default
FN:242,_RNvNtNtNtCs4hmKDm3KTCY_12libcontainer9container9container5testss_20test_set_annotations
FN:274,_RNvNtNtNtCs4hmKDm3KTCY_12libcontainer9container9container5testss_28test_refresh_load_save_state
FN:298,_RNCNvNtNtNtCs4hmKDm3KTCY_12libcontainer9container9container5tests13test_get_spec0B9_
FN:68,_RNvMs_NtNtCs4hmKDm3KTCY_12libcontainer9container9containerNtB4_9Container8can_exec
FN:256,_RNvNtNtNtCs4hmKDm3KTCY_12libcontainer9container9container5testss_20test_get_set_systemd
FN:128,_RNvMs_NtNtCs4hmKDm3KTCY_12libcontainer9container9containerNtB4_9Container6status
FN:19,_RNvXs0_NtNtCs4hmKDm3KTCY_12libcontainer9container9containerNtB5_9ContainerNtNtCshypYLURccL2_4core3fmt5Debug3fmt
FN:217,_RNCNvNtNtNtCs4hmKDm3KTCY_12libcontainer9container9container5tests17test_basic_getter0B9_
FN:318,_RNCNvNtNtNtCs4hmKDm3KTCY_12libcontainer9container9container5testss_27test_get_set_refresh_status0B9_
FN:98,_RNvMs_NtNtCs4hmKDm3KTCY_12libcontainer9container9containerNtB4_9Container7created
FN:241,_RNCNvNtNtNtCs4hmKDm3KTCY_12libcontainer9container9container5tests20test_set_annotations0B9_
FN:317,_RNCNvNtNtNtCs4hmKDm3KTCY_12libcontainer9container9container5tests27test_get_set_refresh_status0B9_
FN:180,_RNvMs_NtNtCs4hmKDm3KTCY_12libcontainer9container9containerNtB4_9Container4load
FN:64,_RNvMs_NtNtCs4hmKDm3KTCY_12libcontainer9container9containerNtB4_9Container10can_delete
FN:265,_RNCNvNtNtNtCs4hmKDm3KTCY_12libcontainer9container9container5tests20test_get_set_creator0B9_
FN:93,_RNvMs_NtNtCs4hmKDm3KTCY_12libcontainer9container9containerNtB4_9Container7set_pid
FN:318,_RNvNtNtNtCs4hmKDm3KTCY_12libcontainer9container9container5testss_27test_get_set_refresh_status
FN:218,_RNvNtNtNtCs4hmKDm3KTCY_12libcontainer9container9container5testss_17test_basic_getter
FN:144,_RNvMs_NtNtCs4hmKDm3KTCY_12libcontainer9container9containerNtB4_9Container14refresh_status
FN:195,_RNvMs_NtNtCs4hmKDm3KTCY_12libcontainer9container9containerNtB4_9Container4spec
FN:266,_RNvNtNtNtCs4hmKDm3KTCY_12libcontainer9container9container5testss_20test_get_set_creator
FN:19,_RNvXs1_NtNtCs4hmKDm3KTCY_12libcontainer9container9containerNtB5_9ContainerNtNtCshypYLURccL2_4core5clone5Clone5cloneB9_
FN:56,_RNvMs_NtNtCs4hmKDm3KTCY_12libcontainer9container9containerNtB4_9Container9can_start
FN:190,_RNvMs_NtNtCs4hmKDm3KTCY_12libcontainer9container9containerNtB4_9Container4save
FN:208,_RNCNvNtNtNtCs4hmKDm3KTCY_12libcontainer9container9container5tests16test_get_set_pid0B9_
FN:84,_RNvMs_NtNtCs4hmKDm3KTCY_12libcontainer9container9containerNtB4_9Container15set_annotations
FN:52,_RNvMs_NtNtCs4hmKDm3KTCY_12libcontainer9container9containerNtB4_9Container2id
FN:103,_RNvMs_NtNtCs4hmKDm3KTCY_12libcontainer9container9containerNtB4_9Container7creator
FN:274,_RNCNvNtNtNtCs4hmKDm3KTCY_12libcontainer9container9container5testss_28test_refresh_load_save_state0B9_
FN:80,_RNvMs_NtNtCs4hmKDm3KTCY_12libcontainer9container9containerNtB4_9Container6bundle
FN:37,_RNvMs_NtNtCs4hmKDm3KTCY_12libcontainer9container9containerNtB4_9Container3new
FN:123,_RNvMs_NtNtCs4hmKDm3KTCY_12libcontainer9container9containerNtB4_9Container11set_systemd
FN:76,_RNvMs_NtNtCs4hmKDm3KTCY_12libcontainer9container9containerNtB4_9Container10can_resume
FN:299,_RNCNvNtNtNtCs4hmKDm3KTCY_12libcontainer9container9container5testss_13test_get_spec0B9_
FN:255,_RNCNvNtNtNtCs4hmKDm3KTCY_12libcontainer9container9container5tests20test_get_set_systemd0B9_
FN:299,_RNvNtNtNtCs4hmKDm3KTCY_12libcontainer9container9container5testss_13test_get_spec
FN:132,_RNvMs_NtNtCs9aHzSL9YGbd_12libcontainer9container9containerNtB4_9Container10set_status
FN:180,_RNvMs_NtNtCs9aHzSL9YGbd_12libcontainer9container9containerNtB4_9Container4load
FN:123,_RNvMs_NtNtCs9aHzSL9YGbd_12libcontainer9container9containerNtB4_9Container11set_systemd
FN:114,_RNvMs_NtNtCs9aHzSL9YGbd_12libcontainer9container9containerNtB4_9Container11set_creator
FN:98,_RNvMs_NtNtCs9aHzSL9YGbd_12libcontainer9container9containerNtB4_9Container7created
FN:19,_RNvXs1_NtNtCs9aHzSL9YGbd_12libcontainer9container9containerNtB5_9ContainerNtNtCshypYLURccL2_4core5clone5Clone5cloneB9_
FN:93,_RNvMs_NtNtCs9aHzSL9YGbd_12libcontainer9container9containerNtB4_9Container7set_pid
FN:72,_RNvMs_NtNtCs9aHzSL9YGbd_12libcontainer9container9containerNtB4_9Container9can_pause
FN:28,_RNvXNtNtCs9aHzSL9YGbd_12libcontainer9container9containerNtB2_9ContainerNtNtCshypYLURccL2_4core7default7Default7default
FN:173,_RNvMs_NtNtCs9aHzSL9YGbd_12libcontainer9container9containerNtB4_9Container13refresh_state
FN:52,_RNvMs_NtNtCs9aHzSL9YGbd_12libcontainer9container9containerNtB4_9Container2id
FN:119,_RNvMs_NtNtCs9aHzSL9YGbd_12libcontainer9container9containerNtB4_9Container7systemd
FN:56,_RNvMs_NtNtCs9aHzSL9YGbd_12libcontainer9container9containerNtB4_9Container9can_start
FN:144,_RNvMs_NtNtCs9aHzSL9YGbd_12libcontainer9container9containerNtB4_9Container14refresh_status
FN:190,_RNvMs_NtNtCs9aHzSL9YGbd_12libcontainer9container9containerNtB4_9Container4save
FN:128,_RNvMs_NtNtCs9aHzSL9YGbd_12libcontainer9container9containerNtB4_9Container6status
FN:76,_RNvMs_NtNtCs9aHzSL9YGbd_12libcontainer9container9containerNtB4_9Container10can_resume
FN:103,_RNvMs_NtNtCs9aHzSL9YGbd_12libcontainer9container9containerNtB4_9Container7creator
FN:64,_RNvMs_NtNtCs9aHzSL9YGbd_12libcontainer9container9containerNtB4_9Container10can_delete
FN:84,_RNvMs_NtNtCs9aHzSL9YGbd_12libcontainer9container9containerNtB4_9Container15set_annotations
FN:19,_RNvXs0_NtNtCs9aHzSL9YGbd_12libcontainer9container9containerNtB5_9ContainerNtNtCshypYLURccL2_4core3fmt5Debug3fmt
FN:37,_RNvMs_NtNtCs9aHzSL9YGbd_12libcontainer9container9containerNtB4_9Container3new
FN:89,_RNvMs_NtNtCs9aHzSL9YGbd_12libcontainer9container9containerNtB4_9Container3pid
FN:68,_RNvMs_NtNtCs9aHzSL9YGbd_12libcontainer9container9containerNtB4_9Container8can_exec
FN:80,_RNvMs_NtNtCs9aHzSL9YGbd_12libcontainer9container9containerNtB4_9Container6bundle
FN:60,_RNvMs_NtNtCs9aHzSL9YGbd_12libcontainer9container9containerNtB4_9Container8can_kill
FN:195,_RNvMs_NtNtCs9aHzSL9YGbd_12libcontainer9container9containerNtB4_9Container4spec
FNDA:14,_RNvMs_NtNtCs4hmKDm3KTCY_12libcontainer9container9containerNtB4_9Container8can_kill
FNDA:14,_RNCNvNtNtNtCs4hmKDm3KTCY_12libcontainer9container9container5tests28test_refresh_load_save_state0B9_
FNDA:42,_RNvMs_NtNtCs4hmKDm3KTCY_12libcontainer9container9containerNtB4_9Container7systemd
FNDA:14,_RNvMs_NtNtCs4hmKDm3KTCY_12libcontainer9container9containerNtB4_9Container9can_pause
FNDA:14,_RNvMs_NtNtCs4hmKDm3KTCY_12libcontainer9container9containerNtB4_9Container13refresh_state
FNDA:14,_RNvNtNtNtCs4hmKDm3KTCY_12libcontainer9container9container5testss_16test_get_set_pid
FNDA:98,_RNvMs_NtNtCs4hmKDm3KTCY_12libcontainer9container9containerNtB4_9Container3pid
FNDA:14,_RNvMs_NtNtCs4hmKDm3KTCY_12libcontainer9container9containerNtB4_9Container11set_creator
FNDA:112,_RNvMs_NtNtCs4hmKDm3KTCY_12libcontainer9container9containerNtB4_9Container10set_status
FNDA:140,_RNvXNtNtCs4hmKDm3KTCY_12libcontainer9container9containerNtB2_9ContainerNtNtCshypYLURccL2_4core7default7Default7default
FNDA:14,_RNvNtNtNtCs4hmKDm3KTCY_12libcontainer9container9container5testss_20test_set_annotations
FNDA:14,_RNvNtNtNtCs4hmKDm3KTCY_12libcontainer9container9container5testss_28test_refresh_load_save_state
FNDA:14,_RNCNvNtNtNtCs4hmKDm3KTCY_12libcontainer9container9container5tests13test_get_spec0B9_
FNDA:14,_RNvMs_NtNtCs4hmKDm3KTCY_12libcontainer9container9containerNtB4_9Container8can_exec
FNDA:14,_RNvNtNtNtCs4hmKDm3KTCY_12libcontainer9container9container5testss_20test_get_set_systemd
FNDA:112,_RNvMs_NtNtCs4hmKDm3KTCY_12libcontainer9container9containerNtB4_9Container6status
FNDA:0,_RNvXs0_NtNtCs4hmKDm3KTCY_12libcontainer9container9containerNtB5_9ContainerNtNtCshypYLURccL2_4core3fmt5Debug3fmt
FNDA:14,_RNCNvNtNtNtCs4hmKDm3KTCY_12libcontainer9container9container5tests17test_basic_getter0B9_
FNDA:14,_RNCNvNtNtNtCs4hmKDm3KTCY_12libcontainer9container9container5testss_27test_get_set_refresh_status0B9_
FNDA:28,_RNvMs_NtNtCs4hmKDm3KTCY_12libcontainer9container9containerNtB4_9Container7created
FNDA:14,_RNCNvNtNtNtCs4hmKDm3KTCY_12libcontainer9container9container5tests20test_set_annotations0B9_
FNDA:14,_RNCNvNtNtNtCs4hmKDm3KTCY_12libcontainer9container9container5tests27test_get_set_refresh_status0B9_
FNDA:14,_RNvMs_NtNtCs4hmKDm3KTCY_12libcontainer9container9containerNtB4_9Container4load
FNDA:14,_RNvMs_NtNtCs4hmKDm3KTCY_12libcontainer9container9containerNtB4_9Container10can_delete
FNDA:14,_RNCNvNtNtNtCs4hmKDm3KTCY_12libcontainer9container9container5tests20test_get_set_creator0B9_
FNDA:42,_RNvMs_NtNtCs4hmKDm3KTCY_12libcontainer9container9containerNtB4_9Container7set_pid
FNDA:14,_RNvNtNtNtCs4hmKDm3KTCY_12libcontainer9container9container5testss_27test_get_set_refresh_status
FNDA:14,_RNvNtNtNtCs4hmKDm3KTCY_12libcontainer9container9container5testss_17test_basic_getter
FNDA:70,_RNvMs_NtNtCs4hmKDm3KTCY_12libcontainer9container9containerNtB4_9Container14refresh_status
FNDA:14,_RNvMs_NtNtCs4hmKDm3KTCY_12libcontainer9container9containerNtB4_9Container4spec
FNDA:14,_RNvNtNtNtCs4hmKDm3KTCY_12libcontainer9container9container5testss_20test_get_set_creator
FNDA:0,_RNvXs1_NtNtCs4hmKDm3KTCY_12libcontainer9container9containerNtB5_9ContainerNtNtCshypYLURccL2_4core5clone5Clone5cloneB9_
FNDA:14,_RNvMs_NtNtCs4hmKDm3KTCY_12libcontainer9container9containerNtB4_9Container9can_start
FNDA:28,_RNvMs_NtNtCs4hmKDm3KTCY_12libcontainer9container9containerNtB4_9Container4save
FNDA:14,_RNCNvNtNtNtCs4hmKDm3KTCY_12libcontainer9container9container5tests16test_get_set_pid0B9_
FNDA:14,_RNvMs_NtNtCs4hmKDm3KTCY_12libcontainer9container9containerNtB4_9Container15set_annotations
FNDA:14,_RNvMs_NtNtCs4hmKDm3KTCY_12libcontainer9container9containerNtB4_9Container2id
FNDA:14,_RNvMs_NtNtCs4hmKDm3KTCY_12libcontainer9container9containerNtB4_9Container7creator
FNDA:0,_RNCNvNtNtNtCs4hmKDm3KTCY_12libcontainer9container9container5testss_28test_refresh_load_save_state0B9_
FNDA:14,_RNvMs_NtNtCs4hmKDm3KTCY_12libcontainer9container9containerNtB4_9Container6bundle
FNDA:28,_RNvMs_NtNtCs4hmKDm3KTCY_12libcontainer9container9containerNtB4_9Container3new
FNDA:28,_RNvMs_NtNtCs4hmKDm3KTCY_12libcontainer9container9containerNtB4_9Container11set_systemd
FNDA:14,_RNvMs_NtNtCs4hmKDm3KTCY_12libcontainer9container9containerNtB4_9Container10can_resume
FNDA:14,_RNCNvNtNtNtCs4hmKDm3KTCY_12libcontainer9container9container5testss_13test_get_spec0B9_
FNDA:14,_RNCNvNtNtNtCs4hmKDm3KTCY_12libcontainer9container9container5tests20test_get_set_systemd0B9_
FNDA:14,_RNvNtNtNtCs4hmKDm3KTCY_12libcontainer9container9container5testss_13test_get_spec
FNDA:0,_RNvMs_NtNtCs9aHzSL9YGbd_12libcontainer9container9containerNtB4_9Container10set_status
FNDA:0,_RNvMs_NtNtCs9aHzSL9YGbd_12libcontainer9container9containerNtB4_9Container4load
FNDA:0,_RNvMs_NtNtCs9aHzSL9YGbd_12libcontainer9container9containerNtB4_9Container11set_systemd
FNDA:0,_RNvMs_NtNtCs9aHzSL9YGbd_12libcontainer9container9containerNtB4_9Container11set_creator
FNDA:0,_RNvMs_NtNtCs9aHzSL9YGbd_12libcontainer9container9containerNtB4_9Container7created
FNDA:0,_RNvXs1_NtNtCs9aHzSL9YGbd_12libcontainer9container9containerNtB5_9ContainerNtNtCshypYLURccL2_4core5clone5Clone5cloneB9_
FNDA:0,_RNvMs_NtNtCs9aHzSL9YGbd_12libcontainer9container9containerNtB4_9Container7set_pid
FNDA:0,_RNvMs_NtNtCs9aHzSL9YGbd_12libcontainer9container9containerNtB4_9Container9can_pause
FNDA:0,_RNvXNtNtCs9aHzSL9YGbd_12libcontainer9container9containerNtB2_9ContainerNtNtCshypYLURccL2_4core7default7Default7default
FNDA:0,_RNvMs_NtNtCs9aHzSL9YGbd_12libcontainer9container9containerNtB4_9Container13refresh_state
FNDA:0,_RNvMs_NtNtCs9aHzSL9YGbd_12libcontainer9container9containerNtB4_9Container2id
FNDA:0,_RNvMs_NtNtCs9aHzSL9YGbd_12libcontainer9container9containerNtB4_9Container7systemd
FNDA:0,_RNvMs_NtNtCs9aHzSL9YGbd_12libcontainer9container9containerNtB4_9Container9can_start
FNDA:0,_RNvMs_NtNtCs9aHzSL9YGbd_12libcontainer9container9containerNtB4_9Container14refresh_status
FNDA:0,_RNvMs_NtNtCs9aHzSL9YGbd_12libcontainer9container9containerNtB4_9Container4save
FNDA:0,_RNvMs_NtNtCs9aHzSL9YGbd_12libcontainer9container9containerNtB4_9Container6status
FNDA:0,_RNvMs_NtNtCs9aHzSL9YGbd_12libcontainer9container9containerNtB4_9Container10can_resume
FNDA:0,_RNvMs_NtNtCs9aHzSL9YGbd_12libcontainer9container9containerNtB4_9Container7creator
FNDA:0,_RNvMs_NtNtCs9aHzSL9YGbd_12libcontainer9container9containerNtB4_9Container10can_delete
FNDA:0,_RNvMs_NtNtCs9aHzSL9YGbd_12libcontainer9container9containerNtB4_9Container15set_annotations
FNDA:0,_RNvXs0_NtNtCs9aHzSL9YGbd_12libcontainer9container9containerNtB5_9ContainerNtNtCshypYLURccL2_4core3fmt5Debug3fmt
FNDA:0,_RNvMs_NtNtCs9aHzSL9YGbd_12libcontainer9container9containerNtB4_9Container3new
FNDA:0,_RNvMs_NtNtCs9aHzSL9YGbd_12libcontainer9container9containerNtB4_9Container3pid
FNDA:0,_RNvMs_NtNtCs9aHzSL9YGbd_12libcontainer9container9containerNtB4_9Container8can_exec
FNDA:0,_RNvMs_NtNtCs9aHzSL9YGbd_12libcontainer9container9containerNtB4_9Container6bundle
FNDA:0,_RNvMs_NtNtCs9aHzSL9YGbd_12libcontainer9container9containerNtB4_9Container8can_kill
FNDA:0,_RNvMs_NtNtCs9aHzSL9YGbd_12libcontainer9container9containerNtB4_9Container4spec
FNF:43
FNH:41
DA:19,0
DA:28,140
DA:29,140
DA:30,140
DA:31,140
DA:32,140
DA:33,140
DA:37,28
DA:38,28
DA:39,28
DA:40,28
DA:41,28
DA:42,28
DA:43,28
DA:44,28
DA:45,28
DA:46,28
DA:47,28
DA:48,28
DA:49,28
DA:50,28
DA:52,14
DA:53,14
DA:54,14
DA:56,14
DA:57,14
DA:58,14
DA:60,14
DA:61,14
DA:62,14
DA:64,14
DA:65,14
DA:66,14
DA:68,14
DA:69,14
DA:70,14
DA:72,14
DA:73,14
DA:74,14
DA:76,14
DA:77,14
DA:78,14
DA:80,14
DA:81,14
DA:82,14
DA:84,14
DA:85,14
DA:86,14
DA:87,14
DA:89,98
DA:90,98
DA:91,98
DA:93,42
DA:94,42
DA:95,42
DA:96,42
DA:98,28
DA:99,28
DA:100,28
DA:103,28
DA:104,14
DA:105,14
DA:106,14
DA:107,14
DA:108,0
DA:109,14
DA:111,14
DA:112,28
DA:114,14
DA:115,14
DA:116,14
DA:117,14
DA:119,42
DA:120,42
DA:121,42
DA:123,28
DA:124,28
DA:125,28
DA:126,28
DA:128,112
DA:129,112
DA:130,112
DA:132,112
DA:133,112
DA:134,14
DA:135,98
DA:138,112
DA:139,112
DA:140,112
DA:141,112
DA:142,112
DA:144,70
DA:145,70
DA:146,42
DA:150,42
DA:153,28
DA:154,0
DA:155,28
DA:158,14
DA:159,14
DA:163,14
DA:166,28
DA:169,70
DA:170,70
DA:171,70
DA:173,14
DA:174,14
DA:175,14
DA:176,14
DA:177,14
DA:178,14
DA:180,14
DA:181,14
DA:182,14
DA:183,14
DA:184,14
DA:185,14
DA:186,14
DA:187,14
DA:188,14
DA:190,28
DA:191,28
DA:192,28
DA:193,28
DA:195,14
DA:196,14
DA:197,14
DA:198,14
DA:208,14
DA:209,14
DA:210,14
DA:211,14
DA:212,14
DA:213,14
DA:214,14
DA:215,14
DA:217,14
DA:218,14
DA:219,14
DA:220,14
DA:221,14
DA:222,14
DA:223,14
DA:224,14
DA:225,14
DA:228,14
DA:230,14
DA:232,14
DA:234,14
DA:235,14
DA:236,14
DA:238,14
DA:239,14
DA:241,14
DA:242,14
DA:243,14
DA:244,14
DA:246,14
DA:247,14
DA:248,14
DA:249,14
DA:250,14
DA:251,14
DA:252,14
DA:253,14
DA:255,14
DA:256,14
DA:257,14
DA:258,14
DA:259,14
DA:260,14
DA:261,14
DA:262,14
DA:263,14
DA:265,14
DA:266,14
DA:267,14
DA:268,14
DA:269,14
DA:270,14
DA:271,14
DA:273,14
DA:274,14
DA:275,14
DA:298,14
DA:299,28
DA:317,14
DA:318,14
DA:319,14
BRF:0
BRH:0
LF:190
LH:186
end_of_record
SF:crates/libcontainer/src/container/container_delete.rs
FN:27,_RNvMNtNtCs9aHzSL9YGbd_12libcontainer9container16container_deleteNtNtB4_9container9Container6delete
FN:39,_RNCNvMNtNtCs9aHzSL9YGbd_12libcontainer9container16container_deleteNtNtB6_9container9Container6delete0B8_
FN:68,_RNCNvMNtNtCs9aHzSL9YGbd_12libcontainer9container16container_deleteNtNtB6_9container9Container6deletes1_0B8_
FN:62,_RNCNvMNtNtCs9aHzSL9YGbd_12libcontainer9container16container_deleteNtNtB6_9container9Container6deletes0_0B8_
FN:46,_RNCNvMNtNtCs9aHzSL9YGbd_12libcontainer9container16container_deleteNtNtB6_9container9Container6deletes_0B8_
FNDA:0,_RNvMNtNtCs9aHzSL9YGbd_12libcontainer9container16container_deleteNtNtB4_9container9Container6delete
FNDA:0,_RNCNvMNtNtCs9aHzSL9YGbd_12libcontainer9container16container_deleteNtNtB6_9container9Container6delete0B8_
FNDA:0,_RNCNvMNtNtCs9aHzSL9YGbd_12libcontainer9container16container_deleteNtNtB6_9container9Container6deletes1_0B8_
FNDA:0,_RNCNvMNtNtCs9aHzSL9YGbd_12libcontainer9container16container_deleteNtNtB6_9container9Container6deletes0_0B8_
FNDA:0,_RNCNvMNtNtCs9aHzSL9YGbd_12libcontainer9container16container_deleteNtNtB6_9container9Container6deletes_0B8_
FNF:5
FNH:0
DA:27,0
DA:28,0
DA:29,0
DA:30,0
DA:31,0
DA:32,0
DA:33,0
DA:34,0
DA:35,0
DA:36,0
DA:37,0
DA:38,0
DA:39,0
DA:40,0
DA:41,0
DA:42,0
DA:45,0
DA:46,0
DA:47,0
DA:48,0
DA:53,0
DA:54,0
DA:55,0
DA:56,0
DA:57,0
DA:58,0
DA:59,0
DA:60,0
DA:61,0
DA:62,0
DA:63,0
DA:64,0
DA:66,0
DA:67,0
DA:68,0
DA:69,0
DA:70,0
DA:71,0
DA:73,0
DA:74,0
DA:75,0
DA:76,0
DA:77,0
DA:79,0
BRF:0
BRH:0
LF:51
LH:0
end_of_record
SF:crates/libcontainer/src/container/container_events.rs
FN:25,_RNvMNtNtCs9aHzSL9YGbd_12libcontainer9container16container_eventsNtNtB4_9container9Container6events
FNDA:0,_RNvMNtNtCs9aHzSL9YGbd_12libcontainer9container16container_eventsNtNtB4_9container9Container6events
FNF:1
FNH:0
DA:25,0
DA:26,0
DA:27,0
DA:28,0
DA:29,0
DA:31,0
DA:32,0
DA:33,0
DA:34,0
DA:36,0
DA:37,0
DA:38,0
DA:40,0
DA:41,0
DA:44,0
DA:45,0
DA:46,0
DA:50,0
DA:51,0
BRF:0
BRH:0
LF:19
LH:0
end_of_record
SF:crates/libcontainer/src/container/container_pause.rs
FN:24,_RNvMNtNtCs9aHzSL9YGbd_12libcontainer9container15container_pauseNtNtB4_9container9Container5pause
FNDA:0,_RNvMNtNtCs9aHzSL9YGbd_12libcontainer9container15container_pauseNtNtB4_9container9Container5pause
FNF:1
FNH:0
DA:24,0
DA:25,0
DA:27,0
DA:28,0
DA:29,0
DA:30,0
DA:31,0
DA:32,0
DA:33,0
DA:35,0
DA:36,0
DA:37,0
DA:38,0
DA:39,0
DA:40,0
DA:41,0
DA:43,0
DA:44,0
DA:46,0
DA:47,0
DA:48,0
BRF:0
BRH:0
LF:21
LH:0
end_of_record
SF:crates/libcontainer/src/container/container_resume.rs
FN:25,_RNvMNtNtCs9aHzSL9YGbd_12libcontainer9container16container_resumeNtNtB4_9container9Container6resume
FNDA:0,_RNvMNtNtCs9aHzSL9YGbd_12libcontainer9container16container_resumeNtNtB4_9container9Container6resume
FNF:1
FNH:0
DA:25,0
DA:26,0
DA:29,0
DA:30,0
DA:31,0
DA:32,0
DA:33,0
DA:34,0
DA:35,0
DA:37,0
DA:38,0
DA:39,0
DA:40,0
DA:41,0
DA:42,0
DA:44,0
DA:46,0
DA:47,0
DA:49,0
DA:50,0
DA:51,0
BRF:0
BRH:0
LF:21
LH:0
end_of_record
SF:crates/libcontainer/src/container/container_start.rs
FN:30,_RNvMNtNtCs9aHzSL9YGbd_12libcontainer9container15container_startNtNtB4_9container9Container5start
FN:59,_RNCNvMNtNtCs9aHzSL9YGbd_12libcontainer9container15container_startNtNtB6_9container9Container5starts0_0B8_
FN:44,_RNCNvMNtNtCs9aHzSL9YGbd_12libcontainer9container15container_startNtNtB6_9container9Container5start0B8_
FN:50,_RNCNvMNtNtCs9aHzSL9YGbd_12libcontainer9container15container_startNtNtB6_9container9Container5starts_0B8_
FN:65,_RNCNvMNtNtCs9aHzSL9YGbd_12libcontainer9container15container_startNtNtB6_9container9Container5starts1_0B8_
FNDA:0,_RNvMNtNtCs9aHzSL9YGbd_12libcontainer9container15container_startNtNtB4_9container9Container5start
FNDA:0,_RNCNvMNtNtCs9aHzSL9YGbd_12libcontainer9container15container_startNtNtB6_9container9Container5starts0_0B8_
FNDA:0,_RNCNvMNtNtCs9aHzSL9YGbd_12libcontainer9container15container_startNtNtB6_9container9Container5start0B8_
FNDA:0,_RNCNvMNtNtCs9aHzSL9YGbd_12libcontainer9container15container_startNtNtB6_9container9Container5starts_0B8_
FNDA:0,_RNCNvMNtNtCs9aHzSL9YGbd_12libcontainer9container15container_startNtNtB6_9container9Container5starts1_0B8_
FNF:5
FNH:0
DA:30,0
DA:31,0
DA:33,0
DA:34,0
DA:35,0
DA:36,0
DA:37,0
DA:38,0
DA:39,0
DA:40,0
DA:41,0
DA:43,0
DA:44,0
DA:45,0
DA:49,0
DA:50,0
DA:51,0
DA:53,0
DA:55,0
DA:56,0
DA:57,0
DA:58,0
DA:59,0
DA:63,0
DA:64,0
DA:65,0
DA:66,0
DA:68,0
DA:69,0
BRF:0
BRH:0
LF:33
LH:0
end_of_record
SF:crates/libcontainer/src/container/init_builder.rs
FN:35,_RNvMNtNtCs9aHzSL9YGbd_12libcontainer9container12init_builderNtB2_20InitContainerBuilder12with_systemd
FN:92,_RNvMNtNtCs9aHzSL9YGbd_12libcontainer9container12init_builderNtB2_20InitContainerBuilder20create_container_dir
FN:136,_RNvMNtNtCs9aHzSL9YGbd_12libcontainer9container12init_builderNtB2_20InitContainerBuilder22create_container_state
FN:104,_RNvMNtNtCs9aHzSL9YGbd_12libcontainer9container12init_builderNtB2_20InitContainerBuilder9load_spec
FN:41,_RNvMNtNtCs9aHzSL9YGbd_12libcontainer9container12init_builderNtB2_20InitContainerBuilder5build
FN:113,_RNvMNtNtCs9aHzSL9YGbd_12libcontainer9container12init_builderNtB2_20InitContainerBuilder13validate_spec
FN:26,_RNvMNtNtCs9aHzSL9YGbd_12libcontainer9container12init_builderNtB2_20InitContainerBuilder3new
FNDA:0,_RNvMNtNtCs9aHzSL9YGbd_12libcontainer9container12init_builderNtB2_20InitContainerBuilder12with_systemd
FNDA:0,_RNvMNtNtCs9aHzSL9YGbd_12libcontainer9container12init_builderNtB2_20InitContainerBuilder20create_container_dir
FNDA:0,_RNvMNtNtCs9aHzSL9YGbd_12libcontainer9container12init_builderNtB2_20InitContainerBuilder22create_container_state
FNDA:0,_RNvMNtNtCs9aHzSL9YGbd_12libcontainer9container12init_builderNtB2_20InitContainerBuilder9load_spec
FNDA:0,_RNvMNtNtCs9aHzSL9YGbd_12libcontainer9container12init_builderNtB2_20InitContainerBuilder5build
FNDA:0,_RNvMNtNtCs9aHzSL9YGbd_12libcontainer9container12init_builderNtB2_20InitContainerBuilder13validate_spec
FNDA:0,_RNvMNtNtCs9aHzSL9YGbd_12libcontainer9container12init_builderNtB2_20InitContainerBuilder3new
FNF:7
FNH:0
DA:26,0
DA:27,0
DA:28,0
DA:29,0
DA:30,0
DA:31,0
DA:32,0
DA:35,0
DA:36,0
DA:37,0
DA:38,0
DA:41,0
DA:42,0
DA:43,0
DA:45,0
DA:46,0
DA:47,0
DA:48,0
DA:49,0
DA:50,0
DA:51,0
DA:53,0
DA:57,0
DA:58,0
DA:59,0
DA:60,0
DA:61,0
DA:62,0
DA:64,0
DA:67,0
DA:68,0
DA:69,0
DA:71,0
DA:72,0
DA:73,0
DA:74,0
DA:75,0
DA:76,0
DA:77,0
DA:78,0
DA:79,0
DA:80,0
DA:81,0
DA:82,0
DA:83,0
DA:84,0
DA:85,0
DA:86,0
DA:87,0
DA:89,0
DA:90,0
DA:92,0
DA:93,0
DA:94,0
DA:96,0
DA:97,0
DA:98,0
DA:99,0
DA:100,0
DA:101,0
DA:102,0
DA:104,0
DA:105,0
DA:106,0
DA:107,0
DA:109,0
DA:110,0
DA:111,0
DA:113,0
DA:114,0
DA:115,0
DA:116,0
DA:117,0
DA:118,0
DA:119,0
DA:121,0
DA:122,0
DA:123,0
DA:124,0
DA:125,0
DA:126,0
DA:127,0
DA:128,0
DA:129,0
DA:130,0
DA:131,0
DA:133,0
DA:134,0
DA:136,0
DA:137,0
DA:138,0
DA:139,0
DA:140,0
DA:141,0
DA:142,0
DA:143,0
DA:144,0
DA:145,0
DA:146,0
BRF:0
BRH:0
LF:99
LH:0
end_of_record
SF:crates/libcontainer/src/container/state.rs
FN:105,_RNvMs1_NtNtCs4hmKDm3KTCY_12libcontainer9container5stateNtB5_5State3new
FN:13,_RINvXs0_NvXNvNtNtCs4hmKDm3KTCY_12libcontainer9container5states_1__NtBb_15ContainerStatusNtNtCsdJwOYunNrgH_5serde2de11Deserialize11deserializeNtB6_9___VisitorNtB1q_7Visitor10visit_enumINtNtCs5MpeWeKc5si_10serde_json2de17UnitVariantAccessINtNtB30_4read6IoReadRNtNtCslIgaOqvXPTn_3std2fs4FileEEEBf_
FN:75,_RNvXsb_NtNtCs4hmKDm3KTCY_12libcontainer9container5stateNtB5_5StateNtNtCshypYLURccL2_4core7default7Default7defaultB9_
FN:75,_RINvXNvXNvNtNtCs4hmKDm3KTCY_12libcontainer9container5states1_1__NtB8_5StateNtNtCsdJwOYunNrgH_5serde2de11Deserialize11deserializeNtB3_14___FieldVisitorNtB1d_7Visitor11visit_bytespEBc_
FN:75,_RNvXNvXNvNtNtCs4hmKDm3KTCY_12libcontainer9container5states1_1__NtB7_5StateNtNtCsdJwOYunNrgH_5serde2de11Deserialize11deserializeNtB2_14___FieldVisitorNtB1c_7Visitor9expecting
FN:13,_RINvXNvNtNtCs4hmKDm3KTCY_12libcontainer9container5states_1__NtB5_15ContainerStatusNtNtCsdJwOYunNrgH_5serde2de11Deserialize11deserializeQINtNtCs5MpeWeKc5si_10serde_json2de12DeserializerINtNtB2f_4read6IoReadRNtNtCslIgaOqvXPTn_3std2fs4FileEEEB9_
FN:75,_RNvXs0_NvXNvNtNtCs4hmKDm3KTCY_12libcontainer9container5states1_1__NtBa_5StateNtNtCsdJwOYunNrgH_5serde2de11Deserialize11deserializeNtB5_9___VisitorNtB1f_7Visitor9expecting
FN:162,_RNvXNvXNvNtNtCs4hmKDm3KTCY_12libcontainer9container5states3_1__NtB7_21ContainerProcessStateNtNtCsdJwOYunNrgH_5serde2de11Deserialize11deserializeNtB2_14___FieldVisitorNtB1t_7Visitor9expecting
FN:13,_RINvXNvXNvNtNtCs4hmKDm3KTCY_12libcontainer9container5states_1__NtB8_15ContainerStatusNtNtCsdJwOYunNrgH_5serde2de11Deserialize11deserializeNtB3_14___FieldVisitorNtB1n_7Visitor11visit_bytespEBc_
FN:133,_RNCNvMs1_NtNtCs4hmKDm3KTCY_12libcontainer9container5stateNtB7_5State4save0Bb_
FN:75,_RINvXNvXNvNtNtCs4hmKDm3KTCY_12libcontainer9container5states1_1__NtB8_5StateNtNtCsdJwOYunNrgH_5serde2de11Deserialize11deserializeNtB3_14___FieldVisitorNtB1d_7Visitor9visit_strNtNtCs5MpeWeKc5si_10serde_json5error5ErrorEBc_
FN:55,_RNvMs_NtNtCs4hmKDm3KTCY_12libcontainer9container5stateNtB4_15ContainerStatus10can_resume
FN:75,_RINvXNvNtNtCs4hmKDm3KTCY_12libcontainer9container5states1_1__NtB5_5StateNtNtCsdJwOYunNrgH_5serde2de11Deserialize11deserializeQINtNtCs5MpeWeKc5si_10serde_json2de12DeserializerINtNtB25_4read6IoReadRNtNtCslIgaOqvXPTn_3std2fs4FileEEEB9_
FN:162,_RINvXNvXNvNtNtCs4hmKDm3KTCY_12libcontainer9container5states3_1__NtB8_21ContainerProcessStateNtNtCsdJwOYunNrgH_5serde2de11Deserialize11deserializeNtB3_14___FieldVisitorNtB1u_7Visitor11visit_bytespEBc_
FN:162,_RINvXs0_NvXNvNtNtCs4hmKDm3KTCY_12libcontainer9container5states3_1__NtBb_21ContainerProcessStateNtNtCsdJwOYunNrgH_5serde2de11Deserialize11deserializeNtB6_9___VisitorNtB1x_7Visitor9visit_mappEBf_
FN:51,_RNvMs_NtNtCs4hmKDm3KTCY_12libcontainer9container5stateNtB4_15ContainerStatus9can_pause
FN:162,_RINvXNvXNvNtNtCs4hmKDm3KTCY_12libcontainer9container5states3_1__NtB8_21ContainerProcessStateNtNtCsdJwOYunNrgH_5serde2de11Deserialize11deserializeNtB3_14___FieldVisitorNtB1u_7Visitor9visit_u64pEBc_
FN:124,_RNvMs1_NtNtCs4hmKDm3KTCY_12libcontainer9container5stateNtB5_5State4save
FN:157,_RNvMs1_NtNtCs4hmKDm3KTCY_12libcontainer9container5stateNtB5_5State9file_path
FN:140,_RNCNvMs1_NtNtCs4hmKDm3KTCY_12libcontainer9container5stateNtB7_5State4load0Bb_
FN:75,_RINvXs_NvXNvNtNtCs4hmKDm3KTCY_12libcontainer9container5states1_1__NtBa_5StateNtNtCsdJwOYunNrgH_5serde2de11Deserialize11deserializeNtB5_7___FieldB1d_11deserializeINtNtCs5MpeWeKc5si_10serde_json2de6MapKeyINtNtB2E_4read6IoReadRNtNtCslIgaOqvXPTn_3std2fs4FileEEEBe_
FN:75,_RINvXNvXNvNtNtCs4hmKDm3KTCY_12libcontainer9container5states1_1__NtB8_5StateNtNtCsdJwOYunNrgH_5serde2de11Deserialize11deserializeNtB3_14___FieldVisitorNtB1d_7Visitor9visit_u64pEBc_
FN:61,_RNvXs0_NtNtCs4hmKDm3KTCY_12libcontainer9container5stateNtB5_15ContainerStatusNtNtCshypYLURccL2_4core3fmt7Display3fmt
FN:162,_RNvXsc_NtNtCs4hmKDm3KTCY_12libcontainer9container5stateNtB5_21ContainerProcessStateNtNtCshypYLURccL2_4core3fmt5Debug3fmt
FN:162,_RINvXNvNtNtCs4hmKDm3KTCY_12libcontainer9container5states3_1__NtB5_21ContainerProcessStateNtNtCsdJwOYunNrgH_5serde2de11Deserialize11deserializepEB9_
FN:39,_RNvMs_NtNtCs4hmKDm3KTCY_12libcontainer9container5stateNtB4_15ContainerStatus8can_kill
FN:13,_RNvXNvXNvNtNtCs4hmKDm3KTCY_12libcontainer9container5states_1__NtB7_15ContainerStatusNtNtCsdJwOYunNrgH_5serde2de11Deserialize11deserializeNtB2_14___FieldVisitorNtB1m_7Visitor9expecting
FN:75,_RNvXs9_NtNtCs4hmKDm3KTCY_12libcontainer9container5stateNtB5_5StateNtNtCshypYLURccL2_4core3fmt5Debug3fmt
FN:13,_RINvXNvNtNtCs4hmKDm3KTCY_12libcontainer9container5state1__NtB5_15ContainerStatusNtNtCsdJwOYunNrgH_5serde3ser9Serialize9serializeQINtNtCs5MpeWeKc5si_10serde_json3ser10SerializerQINtNtCsdfjrgz5TZDL_5alloc3vec3VechEEEB9_
FN:75,_RINvXs0_NvXNvNtNtCs4hmKDm3KTCY_12libcontainer9container5states1_1__NtBb_5StateNtNtCsdJwOYunNrgH_5serde2de11Deserialize11deserializeNtB6_9___VisitorNtB1g_7Visitor9visit_seqINtNtCs5MpeWeKc5si_10serde_json2de9SeqAccessINtNtB2O_4read6IoReadRNtNtCslIgaOqvXPTn_3std2fs4FileEEEBf_
FN:162,_RINvXs_NvXNvNtNtCs4hmKDm3KTCY_12libcontainer9container5states3_1__NtBa_21ContainerProcessStateNtNtCsdJwOYunNrgH_5serde2de11Deserialize11deserializeNtB5_7___FieldB1u_11deserializepEBe_
FN:75,_RINvXs0_NvXNvNtNtCs4hmKDm3KTCY_12libcontainer9container5states1_1__NtBb_5StateNtNtCsdJwOYunNrgH_5serde2de11Deserialize11deserializeNtB6_9___VisitorNtB1g_7Visitor9visit_mapINtNtCs5MpeWeKc5si_10serde_json2de9MapAccessINtNtB2O_4read6IoReadRNtNtCslIgaOqvXPTn_3std2fs4FileEEEBf_
FN:13,_RNvXs2_NtNtCs4hmKDm3KTCY_12libcontainer9container5stateNtB5_15ContainerStatusNtNtCshypYLURccL2_4core3fmt5Debug3fmt
FN:162,_RNvXs0_NvXNvNtNtCs4hmKDm3KTCY_12libcontainer9container5states3_1__NtBa_21ContainerProcessStateNtNtCsdJwOYunNrgH_5serde2de11Deserialize11deserializeNtB5_9___VisitorNtB1w_7Visitor9expecting
FN:162,_RINvXNvNtNtCs4hmKDm3KTCY_12libcontainer9container5states2_1__NtB5_21ContainerProcessStateNtNtCsdJwOYunNrgH_5serde3ser9Serialize9serializeQINtNtCs5MpeWeKc5si_10serde_json3ser10SerializerQINtNtCsdfjrgz5TZDL_5alloc3vec3VechEEEB9_
FN:13,_RINvXNvNtNtCs4hmKDm3KTCY_12libcontainer9container5state1__NtB5_15ContainerStatusNtNtCsdJwOYunNrgH_5serde3ser9Serialize9serializeQINtNtCs5MpeWeKc5si_10serde_json3ser10SerializerRNtNtCslIgaOqvXPTn_3std2fs4FileEEB9_
FN:29,_RNvXNtNtCs4hmKDm3KTCY_12libcontainer9container5stateNtB2_15ContainerStatusNtNtCshypYLURccL2_4core7default7Default7default
FN:47,_RNvMs_NtNtCs4hmKDm3KTCY_12libcontainer9container5stateNtB4_15ContainerStatus10can_delete
FN:13,_RNvXs6_NtNtCs4hmKDm3KTCY_12libcontainer9container5stateNtB5_15ContainerStatusNtNtCshypYLURccL2_4core3cmp9PartialEq2eqB9_
FN:75,_RNvXsa_NtNtCs4hmKDm3KTCY_12libcontainer9container5stateNtB5_5StateNtNtCshypYLURccL2_4core5clone5Clone5cloneB9_
FN:162,_RINvXNvXNvNtNtCs4hmKDm3KTCY_12libcontainer9container5states3_1__NtB8_21ContainerProcessStateNtNtCsdJwOYunNrgH_5serde2de11Deserialize11deserializeNtB3_14___FieldVisitorNtB1u_7Visitor9visit_strpEBc_
FN:162,_RINvXs0_NvXNvNtNtCs4hmKDm3KTCY_12libcontainer9container5states3_1__NtBb_21ContainerProcessStateNtNtCsdJwOYunNrgH_5serde2de11Deserialize11deserializeNtB6_9___VisitorNtB1x_7Visitor9visit_seqpEBf_
FN:13,_RINvXs_NvXNvNtNtCs4hmKDm3KTCY_12libcontainer9container5states_1__NtBa_15ContainerStatusNtNtCsdJwOYunNrgH_5serde2de11Deserialize11deserializeNtB5_7___FieldB1n_11deserializeQINtNtCs5MpeWeKc5si_10serde_json2de12DeserializerINtNtB2P_4read6IoReadRNtNtCslIgaOqvXPTn_3std2fs4FileEEEBe_
FN:162,_RNvXsd_NtNtCs4hmKDm3KTCY_12libcontainer9container5stateNtB5_21ContainerProcessStateNtNtCshypYLURccL2_4core7default7Default7defaultB9_
FN:75,_RINvXNvNtNtCs4hmKDm3KTCY_12libcontainer9container5states0_1__NtB5_5StateNtNtCsdJwOYunNrgH_5serde3ser9Serialize9serializeQINtNtCs5MpeWeKc5si_10serde_json3ser10SerializerQINtNtCsdfjrgz5TZDL_5alloc3vec3VechEEEB9_
FN:13,_RINvXs0_NvXNvNtNtCs4hmKDm3KTCY_12libcontainer9container5states_1__NtBb_15ContainerStatusNtNtCsdJwOYunNrgH_5serde2de11Deserialize11deserializeNtB6_9___VisitorNtB1q_7Visitor10visit_enumINtNtCs5MpeWeKc5si_10serde_json2de13VariantAccessINtNtB30_4read6IoReadRNtNtCslIgaOqvXPTn_3std2fs4FileEEEBf_
FN:138,_RNvMs1_NtNtCs4hmKDm3KTCY_12libcontainer9container5stateNtB5_5State4load
FN:35,_RNvMs_NtNtCs4hmKDm3KTCY_12libcontainer9container5stateNtB4_15ContainerStatus9can_start
FN:13,_RINvXNvNtNtCs4hmKDm3KTCY_12libcontainer9container5states_1__NtB5_15ContainerStatusNtNtCsdJwOYunNrgH_5serde2de11Deserialize11deserializeINtNvNtNtB1m_9___private2de13missing_field24MissingFieldDeserializerNtNtCs5MpeWeKc5si_10serde_json5error5ErrorEEB9_
FN:75,_RINvXNvNtNtCs4hmKDm3KTCY_12libcontainer9container5states0_1__NtB5_5StateNtNtCsdJwOYunNrgH_5serde3ser9Serialize9serializeQINtNtCs5MpeWeKc5si_10serde_json3ser10SerializerRNtNtCslIgaOqvXPTn_3std2fs4FileEEB9_
FN:13,_RINvXNvXNvNtNtCs4hmKDm3KTCY_12libcontainer9container5states_1__NtB8_15ContainerStatusNtNtCsdJwOYunNrgH_5serde2de11Deserialize11deserializeNtB3_14___FieldVisitorNtB1n_7Visitor9visit_u64pEBc_
FN:13,_RNvXs0_NvXNvNtNtCs4hmKDm3KTCY_12libcontainer9container5states_1__NtBa_15ContainerStatusNtNtCsdJwOYunNrgH_5serde2de11Deserialize11deserializeNtB5_9___VisitorNtB1p_7Visitor9expecting
FN:13,_RNvXs4_NtNtCs4hmKDm3KTCY_12libcontainer9container5stateNtB5_15ContainerStatusNtNtCshypYLURccL2_4core5clone5Clone5cloneB9_
FN:13,_RINvXNvXNvNtNtCs4hmKDm3KTCY_12libcontainer9container5states_1__NtB8_15ContainerStatusNtNtCsdJwOYunNrgH_5serde2de11Deserialize11deserializeNtB3_14___FieldVisitorNtB1n_7Visitor9visit_strNtNtCs5MpeWeKc5si_10serde_json5error5ErrorEBc_
FN:223,_RNCNvNtNtNtCs4hmKDm3KTCY_12libcontainer9container5state5tests18test_paused_status0B9_
FN:204,_RNvNtNtNtCs4hmKDm3KTCY_12libcontainer9container5state5testss_19test_running_status
FN:183,_RNCNvNtNtNtCs4hmKDm3KTCY_12libcontainer9container5state5tests20test_creating_status0B9_
FN:193,_RNCNvNtNtNtCs4hmKDm3KTCY_12libcontainer9container5state5tests18test_create_status0B9_
FN:224,_RNvNtNtNtCs4hmKDm3KTCY_12libcontainer9container5state5testss_18test_paused_status
FN:213,_RNCNvNtNtNtCs4hmKDm3KTCY_12libcontainer9container5state5tests19test_stopped_status0B9_
FN:203,_RNCNvNtNtNtCs4hmKDm3KTCY_12libcontainer9container5state5tests19test_running_status0B9_
FN:184,_RNvNtNtNtCs4hmKDm3KTCY_12libcontainer9container5state5testss_20test_creating_status
FN:214,_RNvNtNtNtCs4hmKDm3KTCY_12libcontainer9container5state5testss_19test_stopped_status
FN:194,_RNvNtNtNtCs4hmKDm3KTCY_12libcontainer9container5state5testss_18test_create_status
FN:13,_RNvXNvXNvNtNtCs9aHzSL9YGbd_12libcontainer9container5states_1__NtB7_15ContainerStatusNtNtCsdJwOYunNrgH_5serde2de11Deserialize11deserializeNtB2_14___FieldVisitorNtB1m_7Visitor9expecting
FN:13,_RINvXNvXNvNtNtCs9aHzSL9YGbd_12libcontainer9container5states_1__NtB8_15ContainerStatusNtNtCsdJwOYunNrgH_5serde2de11Deserialize11deserializeNtB3_14___FieldVisitorNtB1n_7Visitor9visit_strNtNtCs5MpeWeKc5si_10serde_json5error5ErrorEBc_
FN:162,_RNvXs0_NvXNvNtNtCs9aHzSL9YGbd_12libcontainer9container5states3_1__NtBa_21ContainerProcessStateNtNtCsdJwOYunNrgH_5serde2de11Deserialize11deserializeNtB5_9___VisitorNtB1w_7Visitor9expecting
FN:75,_RINvXNvXNvNtNtCs9aHzSL9YGbd_12libcontainer9container5states1_1__NtB8_5StateNtNtCsdJwOYunNrgH_5serde2de11Deserialize11deserializeNtB3_14___FieldVisitorNtB1d_7Visitor9visit_u64pEBc_
FN:75,_RNvXNvXNvNtNtCs9aHzSL9YGbd_12libcontainer9container5states1_1__NtB7_5StateNtNtCsdJwOYunNrgH_5serde2de11Deserialize11deserializeNtB2_14___FieldVisitorNtB1c_7Visitor9expecting
FN:162,_RINvXNvNtNtCs9aHzSL9YGbd_12libcontainer9container5states2_1__NtB5_21ContainerProcessStateNtNtCsdJwOYunNrgH_5serde3ser9Serialize9serializeQINtNtCs5MpeWeKc5si_10serde_json3ser10SerializerQINtNtCsdfjrgz5TZDL_5alloc3vec3VechEEEB9_
FN:75,_RINvXNvXNvNtNtCs9aHzSL9YGbd_12libcontainer9container5states1_1__NtB8_5StateNtNtCsdJwOYunNrgH_5serde2de11Deserialize11deserializeNtB3_14___FieldVisitorNtB1d_7Visitor11visit_bytespEBc_
FN:124,_RNvMs1_NtNtCs9aHzSL9YGbd_12libcontainer9container5stateNtB5_5State4save
FN:75,_RINvXs0_NvXNvNtNtCs9aHzSL9YGbd_12libcontainer9container5states1_1__NtBb_5StateNtNtCsdJwOYunNrgH_5serde2de11Deserialize11deserializeNtB6_9___VisitorNtB1g_7Visitor9visit_mapINtNtCs5MpeWeKc5si_10serde_json2de9MapAccessINtNtB2O_4read6IoReadRNtNtCslIgaOqvXPTn_3std2fs4FileEEEBf_
FN:75,_RNvXsb_NtNtCs9aHzSL9YGbd_12libcontainer9container5stateNtB5_5StateNtNtCshypYLURccL2_4core7default7Default7defaultB9_
FN:162,_RNvXsd_NtNtCs9aHzSL9YGbd_12libcontainer9container5stateNtB5_21ContainerProcessStateNtNtCshypYLURccL2_4core7default7Default7defaultB9_
FN:157,_RNvMs1_NtNtCs9aHzSL9YGbd_12libcontainer9container5stateNtB5_5State9file_path
FN:162,_RNvXNvXNvNtNtCs9aHzSL9YGbd_12libcontainer9container5states3_1__NtB7_21ContainerProcessStateNtNtCsdJwOYunNrgH_5serde2de11Deserialize11deserializeNtB2_14___FieldVisitorNtB1t_7Visitor9expecting
FN:162,_RINvXNvXNvNtNtCs9aHzSL9YGbd_12libcontainer9container5states3_1__NtB8_21ContainerProcessStateNtNtCsdJwOYunNrgH_5serde2de11Deserialize11deserializeNtB3_14___FieldVisitorNtB1u_7Visitor9visit_strpEBc_
FN:13,_RNvXs2_NtNtCs9aHzSL9YGbd_12libcontainer9container5stateNtB5_15ContainerStatusNtNtCshypYLURccL2_4core3fmt5Debug3fmt
FN:105,_RNvMs1_NtNtCs9aHzSL9YGbd_12libcontainer9container5stateNtB5_5State3new
FN:75,_RINvXNvNtNtCs9aHzSL9YGbd_12libcontainer9container5states1_1__NtB5_5StateNtNtCsdJwOYunNrgH_5serde2de11Deserialize11deserializeQINtNtCs5MpeWeKc5si_10serde_json2de12DeserializerINtNtB25_4read6IoReadRNtNtCslIgaOqvXPTn_3std2fs4FileEEEB9_
FN:13,_RINvXNvNtNtCs9aHzSL9YGbd_12libcontainer9container5states_1__NtB5_15ContainerStatusNtNtCsdJwOYunNrgH_5serde2de11Deserialize11deserializeINtNvNtNtB1m_9___private2de13missing_field24MissingFieldDeserializerNtNtCs5MpeWeKc5si_10serde_json5error5ErrorEEB9_
FN:133,_RNCNvMs1_NtNtCs9aHzSL9YGbd_12libcontainer9container5stateNtB7_5State4save0Bb_
FN:75,_RINvXs_NvXNvNtNtCs9aHzSL9YGbd_12libcontainer9container5states1_1__NtBa_5StateNtNtCsdJwOYunNrgH_5serde2de11Deserialize11deserializeNtB5_7___FieldB1d_11deserializeINtNtCs5MpeWeKc5si_10serde_json2de6MapKeyINtNtB2E_4read6IoReadRNtNtCslIgaOqvXPTn_3std2fs4FileEEEBe_
FN:75,_RINvXs0_NvXNvNtNtCs9aHzSL9YGbd_12libcontainer9container5states1_1__NtBb_5StateNtNtCsdJwOYunNrgH_5serde2de11Deserialize11deserializeNtB6_9___VisitorNtB1g_7Visitor9visit_seqINtNtCs5MpeWeKc5si_10serde_json2de9SeqAccessINtNtB2O_4read6IoReadRNtNtCslIgaOqvXPTn_3std2fs4FileEEEBf_
FN:75,_RNvXs0_NvXNvNtNtCs9aHzSL9YGbd_12libcontainer9container5states1_1__NtBa_5StateNtNtCsdJwOYunNrgH_5serde2de11Deserialize11deserializeNtB5_9___VisitorNtB1f_7Visitor9expecting
FN:75,_RNvXs9_NtNtCs9aHzSL9YGbd_12libcontainer9container5stateNtB5_5StateNtNtCshypYLURccL2_4core3fmt5Debug3fmt
FN:29,_RNvXNtNtCs9aHzSL9YGbd_12libcontainer9container5stateNtB2_15ContainerStatusNtNtCshypYLURccL2_4core7default7Default7default
FN:13,_RINvXs_NvXNvNtNtCs9aHzSL9YGbd_12libcontainer9container5states_1__NtBa_15ContainerStatusNtNtCsdJwOYunNrgH_5serde2de11Deserialize11deserializeNtB5_7___FieldB1n_11deserializeQINtNtCs5MpeWeKc5si_10serde_json2de12DeserializerINtNtB2P_4read6IoReadRNtNtCslIgaOqvXPTn_3std2fs4FileEEEBe_
FN:13,_RINvXNvNtNtCs9aHzSL9YGbd_12libcontainer9container5state1__NtB5_15ContainerStatusNtNtCsdJwOYunNrgH_5serde3ser9Serialize9serializeQINtNtCs5MpeWeKc5si_10serde_json3ser10SerializerQINtNtCsdfjrgz5TZDL_5alloc3vec3VechEEEB9_
FN:13,_RNvXs0_NvXNvNtNtCs9aHzSL9YGbd_12libcontainer9container5states_1__NtBa_15ContainerStatusNtNtCsdJwOYunNrgH_5serde2de11Deserialize11deserializeNtB5_9___VisitorNtB1p_7Visitor9expecting
FN:75,_RINvXNvXNvNtNtCs9aHzSL9YGbd_12libcontainer9container5states1_1__NtB8_5StateNtNtCsdJwOYunNrgH_5serde2de11Deserialize11deserializeNtB3_14___FieldVisitorNtB1d_7Visitor9visit_strNtNtCs5MpeWeKc5si_10serde_json5error5ErrorEBc_
FN:162,_RINvXs_NvXNvNtNtCs9aHzSL9YGbd_12libcontainer9container5states3_1__NtBa_21ContainerProcessStateNtNtCsdJwOYunNrgH_5serde2de11Deserialize11deserializeNtB5_7___FieldB1u_11deserializepEBe_
FN:75,_RINvXNvNtNtCs9aHzSL9YGbd_12libcontainer9container5states0_1__NtB5_5StateNtNtCsdJwOYunNrgH_5serde3ser9Serialize9serializeQINtNtCs5MpeWeKc5si_10serde_json3ser10SerializerRNtNtCslIgaOqvXPTn_3std2fs4FileEEB9_
FN:162,_RINvXNvXNvNtNtCs9aHzSL9YGbd_12libcontainer9container5states3_1__NtB8_21ContainerProcessStateNtNtCsdJwOYunNrgH_5serde2de11Deserialize11deserializeNtB3_14___FieldVisitorNtB1u_7Visitor11visit_bytespEBc_
FN:13,_RNvXs4_NtNtCs9aHzSL9YGbd_12libcontainer9container5stateNtB5_15ContainerStatusNtNtCshypYLURccL2_4core5clone5Clone5cloneB9_
FN:75,_RNvXsa_NtNtCs9aHzSL9YGbd_12libcontainer9container5stateNtB5_5StateNtNtCshypYLURccL2_4core5clone5Clone5cloneB9_
FN:13,_RINvXNvXNvNtNtCs9aHzSL9YGbd_12libcontainer9container5states_1__NtB8_15ContainerStatusNtNtCsdJwOYunNrgH_5serde2de11Deserialize11deserializeNtB3_14___FieldVisitorNtB1n_7Visitor11visit_bytespEBc_
FN:138,_RNvMs1_NtNtCs9aHzSL9YGbd_12libcontainer9container5stateNtB5_5State4load
FN:162,_RNvXsc_NtNtCs9aHzSL9YGbd_12libcontainer9container5stateNtB5_21ContainerProcessStateNtNtCshypYLURccL2_4core3fmt5Debug3fmt
FN:51,_RNvMs_NtNtCs9aHzSL9YGbd_12libcontainer9container5stateNtB4_15ContainerStatus9can_pause
FN:13,_RINvXNvNtNtCs9aHzSL9YGbd_12libcontainer9container5state1__NtB5_15ContainerStatusNtNtCsdJwOYunNrgH_5serde3ser9Serialize9serializeQINtNtCs5MpeWeKc5si_10serde_json3ser10SerializerRNtNtCslIgaOqvXPTn_3std2fs4FileEEB9_
FN:162,_RINvXNvXNvNtNtCs9aHzSL9YGbd_12libcontainer9container5states3_1__NtB8_21ContainerProcessStateNtNtCsdJwOYunNrgH_5serde2de11Deserialize11deserializeNtB3_14___FieldVisitorNtB1u_7Visitor9visit_u64pEBc_
FN:162,_RINvXNvNtNtCs9aHzSL9YGbd_12libcontainer9container5states3_1__NtB5_21ContainerProcessStateNtNtCsdJwOYunNrgH_5serde2de11Deserialize11deserializepEB9_
FN:39,_RNvMs_NtNtCs9aHzSL9YGbd_12libcontainer9container5stateNtB4_15ContainerStatus8can_kill
FN:162,_RINvXs0_NvXNvNtNtCs9aHzSL9YGbd_12libcontainer9container5states3_1__NtBb_21ContainerProcessStateNtNtCsdJwOYunNrgH_5serde2de11Deserialize11deserializeNtB6_9___VisitorNtB1x_7Visitor9visit_seqpEBf_
FN:55,_RNvMs_NtNtCs9aHzSL9YGbd_12libcontainer9container5stateNtB4_15ContainerStatus10can_resume
FN:13,_RINvXNvNtNtCs9aHzSL9YGbd_12libcontainer9container5states_1__NtB5_15ContainerStatusNtNtCsdJwOYunNrgH_5serde2de11Deserialize11deserializeQINtNtCs5MpeWeKc5si_10serde_json2de12DeserializerINtNtB2f_4read6IoReadRNtNtCslIgaOqvXPTn_3std2fs4FileEEEB9_
FN:13,_RINvXs0_NvXNvNtNtCs9aHzSL9YGbd_12libcontainer9container5states_1__NtBb_15ContainerStatusNtNtCsdJwOYunNrgH_5serde2de11Deserialize11deserializeNtB6_9___VisitorNtB1q_7Visitor10visit_enumINtNtCs5MpeWeKc5si_10serde_json2de17UnitVariantAccessINtNtB30_4read6IoReadRNtNtCslIgaOqvXPTn_3std2fs4FileEEEBf_
FN:13,_RNvXs6_NtNtCs9aHzSL9YGbd_12libcontainer9container5stateNtB5_15ContainerStatusNtNtCshypYLURccL2_4core3cmp9PartialEq2eqB9_
FN:140,_RNCNvMs1_NtNtCs9aHzSL9YGbd_12libcontainer9container5stateNtB7_5State4load0Bb_
FN:75,_RINvXNvNtNtCs9aHzSL9YGbd_12libcontainer9container5states0_1__NtB5_5StateNtNtCsdJwOYunNrgH_5serde3ser9Serialize9serializeQINtNtCs5MpeWeKc5si_10serde_json3ser10SerializerQINtNtCsdfjrgz5TZDL_5alloc3vec3VechEEEB9_
FN:13,_RINvXNvXNvNtNtCs9aHzSL9YGbd_12libcontainer9container5states_1__NtB8_15ContainerStatusNtNtCsdJwOYunNrgH_5serde2de11Deserialize11deserializeNtB3_14___FieldVisitorNtB1n_7Visitor9visit_u64pEBc_
FN:13,_RINvXs0_NvXNvNtNtCs9aHzSL9YGbd_12libcontainer9container5states_1__NtBb_15ContainerStatusNtNtCsdJwOYunNrgH_5serde2de11Deserialize11deserializeNtB6_9___VisitorNtB1q_7Visitor10visit_enumINtNtCs5MpeWeKc5si_10serde_json2de13VariantAccessINtNtB30_4read6IoReadRNtNtCslIgaOqvXPTn_3std2fs4FileEEEBf_
FN:47,_RNvMs_NtNtCs9aHzSL9YGbd_12libcontainer9container5stateNtB4_15ContainerStatus10can_delete
FN:35,_RNvMs_NtNtCs9aHzSL9YGbd_12libcontainer9container5stateNtB4_15ContainerStatus9can_start
FN:162,_RINvXs0_NvXNvNtNtCs9aHzSL9YGbd_12libcontainer9container5states3_1__NtBb_21ContainerProcessStateNtNtCsdJwOYunNrgH_5serde2de11Deserialize11deserializeNtB6_9___VisitorNtB1x_7Visitor9visit_mappEBf_
FN:61,_RNvXs0_NtNtCs9aHzSL9YGbd_12libcontainer9container5stateNtB5_15ContainerStatusNtNtCshypYLURccL2_4core3fmt7Display3fmt
FNDA:28,_RNvMs1_NtNtCs4hmKDm3KTCY_12libcontainer9container5stateNtB5_5State3new
FNDA:28,_RINvXs0_NvXNvNtNtCs4hmKDm3KTCY_12libcontainer9container5states_1__NtBb_15ContainerStatusNtNtCsdJwOYunNrgH_5serde2de11Deserialize11deserializeNtB6_9___VisitorNtB1q_7Visitor10visit_enumINtNtCs5MpeWeKc5si_10serde_json2de17UnitVariantAccessINtNtB30_4read6IoReadRNtNtCslIgaOqvXPTn_3std2fs4FileEEEBf_
FNDA:144,_RNvXsb_NtNtCs4hmKDm3KTCY_12libcontainer9container5stateNtB5_5StateNtNtCshypYLURccL2_4core7default7Default7defaultB9_
FNDA:0,_RINvXNvXNvNtNtCs4hmKDm3KTCY_12libcontainer9container5states1_1__NtB8_5StateNtNtCsdJwOYunNrgH_5serde2de11Deserialize11deserializeNtB3_14___FieldVisitorNtB1d_7Visitor11visit_bytespEBc_
FNDA:0,_RNvXNvXNvNtNtCs4hmKDm3KTCY_12libcontainer9container5states1_1__NtB7_5StateNtNtCsdJwOYunNrgH_5serde2de11Deserialize11deserializeNtB2_14___FieldVisitorNtB1c_7Visitor9expecting
FNDA:28,_RINvXNvNtNtCs4hmKDm3KTCY_12libcontainer9container5states_1__NtB5_15ContainerStatusNtNtCsdJwOYunNrgH_5serde2de11Deserialize11deserializeQINtNtCs5MpeWeKc5si_10serde_json2de12DeserializerINtNtB2f_4read6IoReadRNtNtCslIgaOqvXPTn_3std2fs4FileEEEB9_
FNDA:0,_RNvXs0_NvXNvNtNtCs4hmKDm3KTCY_12libcontainer9container5states1_1__NtBa_5StateNtNtCsdJwOYunNrgH_5serde2de11Deserialize11deserializeNtB5_9___VisitorNtB1f_7Visitor9expecting
FNDA:0,_RNvXNvXNvNtNtCs4hmKDm3KTCY_12libcontainer9container5states3_1__NtB7_21ContainerProcessStateNtNtCsdJwOYunNrgH_5serde2de11Deserialize11deserializeNtB2_14___FieldVisitorNtB1t_7Visitor9expecting
FNDA:0,_RINvXNvXNvNtNtCs4hmKDm3KTCY_12libcontainer9container5states_1__NtB8_15ContainerStatusNtNtCsdJwOYunNrgH_5serde2de11Deserialize11deserializeNtB3_14___FieldVisitorNtB1n_7Visitor11visit_bytespEBc_
FNDA:0,_RNCNvMs1_NtNtCs4hmKDm3KTCY_12libcontainer9container5stateNtB7_5State4save0Bb_
FNDA:168,_RINvXNvXNvNtNtCs4hmKDm3KTCY_12libcontainer9container5states1_1__NtB8_5StateNtNtCsdJwOYunNrgH_5serde2de11Deserialize11deserializeNtB3_14___FieldVisitorNtB1d_7Visitor9visit_strNtNtCs5MpeWeKc5si_10serde_json5error5ErrorEBc_
FNDA:84,_RNvMs_NtNtCs4hmKDm3KTCY_12libcontainer9container5stateNtB4_15ContainerStatus10can_resume
FNDA:28,_RINvXNvNtNtCs4hmKDm3KTCY_12libcontainer9container5states1_1__NtB5_5StateNtNtCsdJwOYunNrgH_5serde2de11Deserialize11deserializeQINtNtCs5MpeWeKc5si_10serde_json2de12DeserializerINtNtB25_4read6IoReadRNtNtCslIgaOqvXPTn_3std2fs4FileEEEB9_
FNDA:0,_RINvXNvXNvNtNtCs4hmKDm3KTCY_12libcontainer9container5states3_1__NtB8_21ContainerProcessStateNtNtCsdJwOYunNrgH_5serde2de11Deserialize11deserializeNtB3_14___FieldVisitorNtB1u_7Visitor11visit_bytespEBc_
FNDA:0,_RINvXs0_NvXNvNtNtCs4hmKDm3KTCY_12libcontainer9container5states3_1__NtBb_21ContainerProcessStateNtNtCsdJwOYunNrgH_5serde2de11Deserialize11deserializeNtB6_9___VisitorNtB1x_7Visitor9visit_mappEBf_
FNDA:84,_RNvMs_NtNtCs4hmKDm3KTCY_12libcontainer9container5stateNtB4_15ContainerStatus9can_pause
FNDA:0,_RINvXNvXNvNtNtCs4hmKDm3KTCY_12libcontainer9container5states3_1__NtB8_21ContainerProcessStateNtNtCsdJwOYunNrgH_5serde2de11Deserialize11deserializeNtB3_14___FieldVisitorNtB1u_7Visitor9visit_u64pEBc_
FNDA:28,_RNvMs1_NtNtCs4hmKDm3KTCY_12libcontainer9container5stateNtB5_5State4save
FNDA:56,_RNvMs1_NtNtCs4hmKDm3KTCY_12libcontainer9container5stateNtB5_5State9file_path
FNDA:0,_RNCNvMs1_NtNtCs4hmKDm3KTCY_12libcontainer9container5stateNtB7_5State4load0Bb_
FNDA:168,_RINvXs_NvXNvNtNtCs4hmKDm3KTCY_12libcontainer9container5states1_1__NtBa_5StateNtNtCsdJwOYunNrgH_5serde2de11Deserialize11deserializeNtB5_7___FieldB1d_11deserializeINtNtCs5MpeWeKc5si_10serde_json2de6MapKeyINtNtB2E_4read6IoReadRNtNtCslIgaOqvXPTn_3std2fs4FileEEEBe_
FNDA:0,_RINvXNvXNvNtNtCs4hmKDm3KTCY_12libcontainer9container5states1_1__NtB8_5StateNtNtCsdJwOYunNrgH_5serde2de11Deserialize11deserializeNtB3_14___FieldVisitorNtB1d_7Visitor9visit_u64pEBc_
FNDA:0,_RNvXs0_NtNtCs4hmKDm3KTCY_12libcontainer9container5stateNtB5_15ContainerStatusNtNtCshypYLURccL2_4core3fmt7Display3fmt
FNDA:0,_RNvXsc_NtNtCs4hmKDm3KTCY_12libcontainer9container5stateNtB5_21ContainerProcessStateNtNtCshypYLURccL2_4core3fmt5Debug3fmt
FNDA:0,_RINvXNvNtNtCs4hmKDm3KTCY_12libcontainer9container5states3_1__NtB5_21ContainerProcessStateNtNtCsdJwOYunNrgH_5serde2de11Deserialize11deserializepEB9_
FNDA:84,_RNvMs_NtNtCs4hmKDm3KTCY_12libcontainer9container5stateNtB4_15ContainerStatus8can_kill
FNDA:0,_RNvXNvXNvNtNtCs4hmKDm3KTCY_12libcontainer9container5states_1__NtB7_15ContainerStatusNtNtCsdJwOYunNrgH_5serde2de11Deserialize11deserializeNtB2_14___FieldVisitorNtB1m_7Visitor9expecting
FNDA:0,_RNvXs9_NtNtCs4hmKDm3KTCY_12libcontainer9container5stateNtB5_5StateNtNtCshypYLURccL2_4core3fmt5Debug3fmt
FNDA:50,_RINvXNvNtNtCs4hmKDm3KTCY_12libcontainer9container5state1__NtB5_15ContainerStatusNtNtCsdJwOYunNrgH_5serde3ser9Serialize9serializeQINtNtCs5MpeWeKc5si_10serde_json3ser10SerializerQINtNtCsdfjrgz5TZDL_5alloc3vec3VechEEEB9_
FNDA:0,_RINvXs0_NvXNvNtNtCs4hmKDm3KTCY_12libcontainer9container5states1_1__NtBb_5StateNtNtCsdJwOYunNrgH_5serde2de11Deserialize11deserializeNtB6_9___VisitorNtB1g_7Visitor9visit_seqINtNtCs5MpeWeKc5si_10serde_json2de9SeqAccessINtNtB2O_4read6IoReadRNtNtCslIgaOqvXPTn_3std2fs4FileEEEBf_
FNDA:0,_RINvXs_NvXNvNtNtCs4hmKDm3KTCY_12libcontainer9container5states3_1__NtBa_21ContainerProcessStateNtNtCsdJwOYunNrgH_5serde2de11Deserialize11deserializeNtB5_7___FieldB1u_11deserializepEBe_
FNDA:196,_RINvXs0_NvXNvNtNtCs4hmKDm3KTCY_12libcontainer9container5states1_1__NtBb_5StateNtNtCsdJwOYunNrgH_5serde2de11Deserialize11deserializeNtB6_9___VisitorNtB1g_7Visitor9visit_mapINtNtCs5MpeWeKc5si_10serde_json2de9MapAccessINtNtB2O_4read6IoReadRNtNtCslIgaOqvXPTn_3std2fs4FileEEEBf_
FNDA:0,_RNvXs2_NtNtCs4hmKDm3KTCY_12libcontainer9container5stateNtB5_15ContainerStatusNtNtCshypYLURccL2_4core3fmt5Debug3fmt
FNDA:0,_RNvXs0_NvXNvNtNtCs4hmKDm3KTCY_12libcontainer9container5states3_1__NtBa_21ContainerProcessStateNtNtCsdJwOYunNrgH_5serde2de11Deserialize11deserializeNtB5_9___VisitorNtB1w_7Visitor9expecting
FNDA:8,_RINvXNvNtNtCs4hmKDm3KTCY_12libcontainer9container5states2_1__NtB5_21ContainerProcessStateNtNtCsdJwOYunNrgH_5serde3ser9Serialize9serializeQINtNtCs5MpeWeKc5si_10serde_json3ser10SerializerQINtNtCsdfjrgz5TZDL_5alloc3vec3VechEEEB9_
FNDA:28,_RINvXNvNtNtCs4hmKDm3KTCY_12libcontainer9container5state1__NtB5_15ContainerStatusNtNtCsdJwOYunNrgH_5serde3ser9Serialize9serializeQINtNtCs5MpeWeKc5si_10serde_json3ser10SerializerRNtNtCslIgaOqvXPTn_3std2fs4FileEEB9_
FNDA:158,_RNvXNtNtCs4hmKDm3KTCY_12libcontainer9container5stateNtB2_15ContainerStatusNtNtCshypYLURccL2_4core7default7Default7default
FNDA:84,_RNvMs_NtNtCs4hmKDm3KTCY_12libcontainer9container5stateNtB4_15ContainerStatus10can_delete
FNDA:98,_RNvXs6_NtNtCs4hmKDm3KTCY_12libcontainer9container5stateNtB5_15ContainerStatusNtNtCshypYLURccL2_4core3cmp9PartialEq2eqB9_
FNDA:0,_RNvXsa_NtNtCs4hmKDm3KTCY_12libcontainer9container5stateNtB5_5StateNtNtCshypYLURccL2_4core5clone5Clone5cloneB9_
FNDA:0,_RINvXNvXNvNtNtCs4hmKDm3KTCY_12libcontainer9container5states3_1__NtB8_21ContainerProcessStateNtNtCsdJwOYunNrgH_5serde2de11Deserialize11deserializeNtB3_14___FieldVisitorNtB1u_7Visitor9visit_strpEBc_
FNDA:0,_RINvXs0_NvXNvNtNtCs4hmKDm3KTCY_12libcontainer9container5states3_1__NtBb_21ContainerProcessStateNtNtCsdJwOYunNrgH_5serde2de11Deserialize11deserializeNtB6_9___VisitorNtB1x_7Visitor9visit_seqpEBf_
FNDA:28,_RINvXs_NvXNvNtNtCs4hmKDm3KTCY_12libcontainer9container5states_1__NtBa_15ContainerStatusNtNtCsdJwOYunNrgH_5serde2de11Deserialize11deserializeNtB5_7___FieldB1n_11deserializeQINtNtCs5MpeWeKc5si_10serde_json2de12DeserializerINtNtB2P_4read6IoReadRNtNtCslIgaOqvXPTn_3std2fs4FileEEEBe_
FNDA:4,_RNvXsd_NtNtCs4hmKDm3KTCY_12libcontainer9container5stateNtB5_21ContainerProcessStateNtNtCshypYLURccL2_4core7default7Default7defaultB9_
FNDA:50,_RINvXNvNtNtCs4hmKDm3KTCY_12libcontainer9container5states0_1__NtB5_5StateNtNtCsdJwOYunNrgH_5serde3ser9Serialize9serializeQINtNtCs5MpeWeKc5si_10serde_json3ser10SerializerQINtNtCsdfjrgz5TZDL_5alloc3vec3VechEEEB9_
FNDA:0,_RINvXs0_NvXNvNtNtCs4hmKDm3KTCY_12libcontainer9container5states_1__NtBb_15ContainerStatusNtNtCsdJwOYunNrgH_5serde2de11Deserialize11deserializeNtB6_9___VisitorNtB1q_7Visitor10visit_enumINtNtCs5MpeWeKc5si_10serde_json2de13VariantAccessINtNtB30_4read6IoReadRNtNtCslIgaOqvXPTn_3std2fs4FileEEEBf_
FNDA:28,_RNvMs1_NtNtCs4hmKDm3KTCY_12libcontainer9container5stateNtB5_5State4load
FNDA:84,_RNvMs_NtNtCs4hmKDm3KTCY_12libcontainer9container5stateNtB4_15ContainerStatus9can_start
FNDA:0,_RINvXNvNtNtCs4hmKDm3KTCY_12libcontainer9container5states_1__NtB5_15ContainerStatusNtNtCsdJwOYunNrgH_5serde2de11Deserialize11deserializeINtNvNtNtB1m_9___private2de13missing_field24MissingFieldDeserializerNtNtCs5MpeWeKc5si_10serde_json5error5ErrorEEB9_
FNDA:28,_RINvXNvNtNtCs4hmKDm3KTCY_12libcontainer9container5states0_1__NtB5_5StateNtNtCsdJwOYunNrgH_5serde3ser9Serialize9serializeQINtNtCs5MpeWeKc5si_10serde_json3ser10SerializerRNtNtCslIgaOqvXPTn_3std2fs4FileEEB9_
FNDA:0,_RINvXNvXNvNtNtCs4hmKDm3KTCY_12libcontainer9container5states_1__NtB8_15ContainerStatusNtNtCsdJwOYunNrgH_5serde2de11Deserialize11deserializeNtB3_14___FieldVisitorNtB1n_7Visitor9visit_u64pEBc_
FNDA:0,_RNvXs0_NvXNvNtNtCs4hmKDm3KTCY_12libcontainer9container5states_1__NtBa_15ContainerStatusNtNtCsdJwOYunNrgH_5serde2de11Deserialize11deserializeNtB5_9___VisitorNtB1p_7Visitor9expecting
FNDA:0,_RNvXs4_NtNtCs4hmKDm3KTCY_12libcontainer9container5stateNtB5_15ContainerStatusNtNtCshypYLURccL2_4core5clone5Clone5cloneB9_
FNDA:28,_RINvXNvXNvNtNtCs4hmKDm3KTCY_12libcontainer9container5states_1__NtB8_15ContainerStatusNtNtCsdJwOYunNrgH_5serde2de11Deserialize11deserializeNtB3_14___FieldVisitorNtB1n_7Visitor9visit_strNtNtCs5MpeWeKc5si_10serde_json5error5ErrorEBc_
FNDA:14,_RNCNvNtNtNtCs4hmKDm3KTCY_12libcontainer9container5state5tests18test_paused_status0B9_
FNDA:14,_RNvNtNtNtCs4hmKDm3KTCY_12libcontainer9container5state5testss_19test_running_status
FNDA:14,_RNCNvNtNtNtCs4hmKDm3KTCY_12libcontainer9container5state5tests20test_creating_status0B9_
FNDA:14,_RNCNvNtNtNtCs4hmKDm3KTCY_12libcontainer9container5state5tests18test_create_status0B9_
FNDA:14,_RNvNtNtNtCs4hmKDm3KTCY_12libcontainer9container5state5testss_18test_paused_status
FNDA:14,_RNCNvNtNtNtCs4hmKDm3KTCY_12libcontainer9container5state5tests19test_stopped_status0B9_
FNDA:14,_RNCNvNtNtNtCs4hmKDm3KTCY_12libcontainer9container5state5tests19test_running_status0B9_
FNDA:14,_RNvNtNtNtCs4hmKDm3KTCY_12libcontainer9container5state5testss_20test_creating_status
FNDA:14,_RNvNtNtNtCs4hmKDm3KTCY_12libcontainer9container5state5testss_19test_stopped_status
FNDA:14,_RNvNtNtNtCs4hmKDm3KTCY_12libcontainer9container5state5testss_18test_create_status
FNDA:0,_RNvXNvXNvNtNtCs9aHzSL9YGbd_12libcontainer9container5states_1__NtB7_15ContainerStatusNtNtCsdJwOYunNrgH_5serde2de11Deserialize11deserializeNtB2_14___FieldVisitorNtB1m_7Visitor9expecting
FNDA:0,_RINvXNvXNvNtNtCs9aHzSL9YGbd_12libcontainer9container5states_1__NtB8_15ContainerStatusNtNtCsdJwOYunNrgH_5serde2de11Deserialize11deserializeNtB3_14___FieldVisitorNtB1n_7Visitor9visit_strNtNtCs5MpeWeKc5si_10serde_json5error5ErrorEBc_
FNDA:0,_RNvXs0_NvXNvNtNtCs9aHzSL9YGbd_12libcontainer9container5states3_1__NtBa_21ContainerProcessStateNtNtCsdJwOYunNrgH_5serde2de11Deserialize11deserializeNtB5_9___VisitorNtB1w_7Visitor9expecting
FNDA:0,_RINvXNvXNvNtNtCs9aHzSL9YGbd_12libcontainer9container5states1_1__NtB8_5StateNtNtCsdJwOYunNrgH_5serde2de11Deserialize11deserializeNtB3_14___FieldVisitorNtB1d_7Visitor9visit_u64pEBc_
FNDA:0,_RNvXNvXNvNtNtCs9aHzSL9YGbd_12libcontainer9container5states1_1__NtB7_5StateNtNtCsdJwOYunNrgH_5serde2de11Deserialize11deserializeNtB2_14___FieldVisitorNtB1c_7Visitor9expecting
FNDA:0,_RINvXNvNtNtCs9aHzSL9YGbd_12libcontainer9container5states2_1__NtB5_21ContainerProcessStateNtNtCsdJwOYunNrgH_5serde3ser9Serialize9serializeQINtNtCs5MpeWeKc5si_10serde_json3ser10SerializerQINtNtCsdfjrgz5TZDL_5alloc3vec3VechEEEB9_
FNDA:0,_RINvXNvXNvNtNtCs9aHzSL9YGbd_12libcontainer9container5states1_1__NtB8_5StateNtNtCsdJwOYunNrgH_5serde2de11Deserialize11deserializeNtB3_14___FieldVisitorNtB1d_7Visitor11visit_bytespEBc_
FNDA:0,_RNvMs1_NtNtCs9aHzSL9YGbd_12libcontainer9container5stateNtB5_5State4save
FNDA:0,_RINvXs0_NvXNvNtNtCs9aHzSL9YGbd_12libcontainer9container5states1_1__NtBb_5StateNtNtCsdJwOYunNrgH_5serde2de11Deserialize11deserializeNtB6_9___VisitorNtB1g_7Visitor9visit_mapINtNtCs5MpeWeKc5si_10serde_json2de9MapAccessINtNtB2O_4read6IoReadRNtNtCslIgaOqvXPTn_3std2fs4FileEEEBf_
FNDA:0,_RNvXsb_NtNtCs9aHzSL9YGbd_12libcontainer9container5stateNtB5_5StateNtNtCshypYLURccL2_4core7default7Default7defaultB9_
FNDA:0,_RNvXsd_NtNtCs9aHzSL9YGbd_12libcontainer9container5stateNtB5_21ContainerProcessStateNtNtCshypYLURccL2_4core7default7Default7defaultB9_
FNDA:0,_RNvMs1_NtNtCs9aHzSL9YGbd_12libcontainer9container5stateNtB5_5State9file_path
FNDA:0,_RNvXNvXNvNtNtCs9aHzSL9YGbd_12libcontainer9container5states3_1__NtB7_21ContainerProcessStateNtNtCsdJwOYunNrgH_5serde2de11Deserialize11deserializeNtB2_14___FieldVisitorNtB1t_7Visitor9expecting
FNDA:0,_RINvXNvXNvNtNtCs9aHzSL9YGbd_12libcontainer9container5states3_1__NtB8_21ContainerProcessStateNtNtCsdJwOYunNrgH_5serde2de11Deserialize11deserializeNtB3_14___FieldVisitorNtB1u_7Visitor9visit_strpEBc_
FNDA:0,_RNvXs2_NtNtCs9aHzSL9YGbd_12libcontainer9container5stateNtB5_15ContainerStatusNtNtCshypYLURccL2_4core3fmt5Debug3fmt
FNDA:0,_RNvMs1_NtNtCs9aHzSL9YGbd_12libcontainer9container5stateNtB5_5State3new
FNDA:0,_RINvXNvNtNtCs9aHzSL9YGbd_12libcontainer9container5states1_1__NtB5_5StateNtNtCsdJwOYunNrgH_5serde2de11Deserialize11deserializeQINtNtCs5MpeWeKc5si_10serde_json2de12DeserializerINtNtB25_4read6IoReadRNtNtCslIgaOqvXPTn_3std2fs4FileEEEB9_
FNDA:0,_RINvXNvNtNtCs9aHzSL9YGbd_12libcontainer9container5states_1__NtB5_15ContainerStatusNtNtCsdJwOYunNrgH_5serde2de11Deserialize11deserializeINtNvNtNtB1m_9___private2de13missing_field24MissingFieldDeserializerNtNtCs5MpeWeKc5si_10serde_json5error5ErrorEEB9_
FNDA:0,_RNCNvMs1_NtNtCs9aHzSL9YGbd_12libcontainer9container5stateNtB7_5State4save0Bb_
FNDA:0,_RINvXs_NvXNvNtNtCs9aHzSL9YGbd_12libcontainer9container5states1_1__NtBa_5StateNtNtCsdJwOYunNrgH_5serde2de11Deserialize11deserializeNtB5_7___FieldB1d_11deserializeINtNtCs5MpeWeKc5si_10serde_json2de6MapKeyINtNtB2E_4read6IoReadRNtNtCslIgaOqvXPTn_3std2fs4FileEEEBe_
FNDA:0,_RINvXs0_NvXNvNtNtCs9aHzSL9YGbd_12libcontainer9container5states1_1__NtBb_5StateNtNtCsdJwOYunNrgH_5serde2de11Deserialize11deserializeNtB6_9___VisitorNtB1g_7Visitor9visit_seqINtNtCs5MpeWeKc5si_10serde_json2de9SeqAccessINtNtB2O_4read6IoReadRNtNtCslIgaOqvXPTn_3std2fs4FileEEEBf_
FNDA:0,_RNvXs0_NvXNvNtNtCs9aHzSL9YGbd_12libcontainer9container5states1_1__NtBa_5StateNtNtCsdJwOYunNrgH_5serde2de11Deserialize11deserializeNtB5_9___VisitorNtB1f_7Visitor9expecting
FNDA:0,_RNvXs9_NtNtCs9aHzSL9YGbd_12libcontainer9container5stateNtB5_5StateNtNtCshypYLURccL2_4core3fmt5Debug3fmt
FNDA:0,_RNvXNtNtCs9aHzSL9YGbd_12libcontainer9container5stateNtB2_15ContainerStatusNtNtCshypYLURccL2_4core7default7Default7default
FNDA:0,_RINvXs_NvXNvNtNtCs9aHzSL9YGbd_12libcontainer9container5states_1__NtBa_15ContainerStatusNtNtCsdJwOYunNrgH_5serde2de11Deserialize11deserializeNtB5_7___FieldB1n_11deserializeQINtNtCs5MpeWeKc5si_10serde_json2de12DeserializerINtNtB2P_4read6IoReadRNtNtCslIgaOqvXPTn_3std2fs4FileEEEBe_
FNDA:0,_RINvXNvNtNtCs9aHzSL9YGbd_12libcontainer9container5state1__NtB5_15ContainerStatusNtNtCsdJwOYunNrgH_5serde3ser9Serialize9serializeQINtNtCs5MpeWeKc5si_10serde_json3ser10SerializerQINtNtCsdfjrgz5TZDL_5alloc3vec3VechEEEB9_
FNDA:0,_RNvXs0_NvXNvNtNtCs9aHzSL9YGbd_12libcontainer9container5states_1__NtBa_15ContainerStatusNtNtCsdJwOYunNrgH_5serde2de11Deserialize11deserializeNtB5_9___VisitorNtB1p_7Visitor9expecting
FNDA:0,_RINvXNvXNvNtNtCs9aHzSL9YGbd_12libcontainer9container5states1_1__NtB8_5StateNtNtCsdJwOYunNrgH_5serde2de11Deserialize11deserializeNtB3_14___FieldVisitorNtB1d_7Visitor9visit_strNtNtCs5MpeWeKc5si_10serde_json5error5ErrorEBc_
FNDA:0,_RINvXs_NvXNvNtNtCs9aHzSL9YGbd_12libcontainer9container5states3_1__NtBa_21ContainerProcessStateNtNtCsdJwOYunNrgH_5serde2de11Deserialize11deserializeNtB5_7___FieldB1u_11deserializepEBe_
FNDA:0,_RINvXNvNtNtCs9aHzSL9YGbd_12libcontainer9container5states0_1__NtB5_5StateNtNtCsdJwOYunNrgH_5serde3ser9Serialize9serializeQINtNtCs5MpeWeKc5si_10serde_json3ser10SerializerRNtNtCslIgaOqvXPTn_3std2fs4FileEEB9_
FNDA:0,_RINvXNvXNvNtNtCs9aHzSL9YGbd_12libcontainer9container5states3_1__NtB8_21ContainerProcessStateNtNtCsdJwOYunNrgH_5serde2de11Deserialize11deserializeNtB3_14___FieldVisitorNtB1u_7Visitor11visit_bytespEBc_
FNDA:0,_RNvXs4_NtNtCs9aHzSL9YGbd_12libcontainer9container5stateNtB5_15ContainerStatusNtNtCshypYLURccL2_4core5clone5Clone5cloneB9_
FNDA:0,_RNvXsa_NtNtCs9aHzSL9YGbd_12libcontainer9container5stateNtB5_5StateNtNtCshypYLURccL2_4core5clone5Clone5cloneB9_
FNDA:0,_RINvXNvXNvNtNtCs9aHzSL9YGbd_12libcontainer9container5states_1__NtB8_15ContainerStatusNtNtCsdJwOYunNrgH_5serde2de11Deserialize11deserializeNtB3_14___FieldVisitorNtB1n_7Visitor11visit_bytespEBc_
FNDA:0,_RNvMs1_NtNtCs9aHzSL9YGbd_12libcontainer9container5stateNtB5_5State4load
FNDA:0,_RNvXsc_NtNtCs9aHzSL9YGbd_12libcontainer9container5stateNtB5_21ContainerProcessStateNtNtCshypYLURccL2_4core3fmt5Debug3fmt
FNDA:0,_RNvMs_NtNtCs9aHzSL9YGbd_12libcontainer9container5stateNtB4_15ContainerStatus9can_pause
FNDA:0,_RINvXNvNtNtCs9aHzSL9YGbd_12libcontainer9container5state1__NtB5_15ContainerStatusNtNtCsdJwOYunNrgH_5serde3ser9Serialize9serializeQINtNtCs5MpeWeKc5si_10serde_json3ser10SerializerRNtNtCslIgaOqvXPTn_3std2fs4FileEEB9_
FNDA:0,_RINvXNvXNvNtNtCs9aHzSL9YGbd_12libcontainer9container5states3_1__NtB8_21ContainerProcessStateNtNtCsdJwOYunNrgH_5serde2de11Deserialize11deserializeNtB3_14___FieldVisitorNtB1u_7Visitor9visit_u64pEBc_
FNDA:0,_RINvXNvNtNtCs9aHzSL9YGbd_12libcontainer9container5states3_1__NtB5_21ContainerProcessStateNtNtCsdJwOYunNrgH_5serde2de11Deserialize11deserializepEB9_
FNDA:0,_RNvMs_NtNtCs9aHzSL9YGbd_12libcontainer9container5stateNtB4_15ContainerStatus8can_kill
FNDA:0,_RINvXs0_NvXNvNtNtCs9aHzSL9YGbd_12libcontainer9container5states3_1__NtBb_21ContainerProcessStateNtNtCsdJwOYunNrgH_5serde2de11Deserialize11deserializeNtB6_9___VisitorNtB1x_7Visitor9visit_seqpEBf_
FNDA:0,_RNvMs_NtNtCs9aHzSL9YGbd_12libcontainer9container5stateNtB4_15ContainerStatus10can_resume
FNDA:0,_RINvXNvNtNtCs9aHzSL9YGbd_12libcontainer9container5states_1__NtB5_15ContainerStatusNtNtCsdJwOYunNrgH_5serde2de11Deserialize11deserializeQINtNtCs5MpeWeKc5si_10serde_json2de12DeserializerINtNtB2f_4read6IoReadRNtNtCslIgaOqvXPTn_3std2fs4FileEEEB9_
FNDA:0,_RINvXs0_NvXNvNtNtCs9aHzSL9YGbd_12libcontainer9container5states_1__NtBb_15ContainerStatusNtNtCsdJwOYunNrgH_5serde2de11Deserialize11deserializeNtB6_9___VisitorNtB1q_7Visitor10visit_enumINtNtCs5MpeWeKc5si_10serde_json2de17UnitVariantAccessINtNtB30_4read6IoReadRNtNtCslIgaOqvXPTn_3std2fs4FileEEEBf_
FNDA:0,_RNvXs6_NtNtCs9aHzSL9YGbd_12libcontainer9container5stateNtB5_15ContainerStatusNtNtCshypYLURccL2_4core3cmp9PartialEq2eqB9_
FNDA:0,_RNCNvMs1_NtNtCs9aHzSL9YGbd_12libcontainer9container5stateNtB7_5State4load0Bb_
FNDA:0,_RINvXNvNtNtCs9aHzSL9YGbd_12libcontainer9container5states0_1__NtB5_5StateNtNtCsdJwOYunNrgH_5serde3ser9Serialize9serializeQINtNtCs5MpeWeKc5si_10serde_json3ser10SerializerQINtNtCsdfjrgz5TZDL_5alloc3vec3VechEEEB9_
FNDA:0,_RINvXNvXNvNtNtCs9aHzSL9YGbd_12libcontainer9container5states_1__NtB8_15ContainerStatusNtNtCsdJwOYunNrgH_5serde2de11Deserialize11deserializeNtB3_14___FieldVisitorNtB1n_7Visitor9visit_u64pEBc_
FNDA:0,_RINvXs0_NvXNvNtNtCs9aHzSL9YGbd_12libcontainer9container5states_1__NtBb_15ContainerStatusNtNtCsdJwOYunNrgH_5serde2de11Deserialize11deserializeNtB6_9___VisitorNtB1q_7Visitor10visit_enumINtNtCs5MpeWeKc5si_10serde_json2de13VariantAccessINtNtB30_4read6IoReadRNtNtCslIgaOqvXPTn_3std2fs4FileEEEBf_
FNDA:0,_RNvMs_NtNtCs9aHzSL9YGbd_12libcontainer9container5stateNtB4_15ContainerStatus10can_delete
FNDA:0,_RNvMs_NtNtCs9aHzSL9YGbd_12libcontainer9container5stateNtB4_15ContainerStatus9can_start
FNDA:0,_RINvXs0_NvXNvNtNtCs9aHzSL9YGbd_12libcontainer9container5states3_1__NtBb_21ContainerProcessStateNtNtCsdJwOYunNrgH_5serde2de11Deserialize11deserializeNtB6_9___VisitorNtB1x_7Visitor9visit_mappEBf_
FNDA:0,_RNvXs0_NtNtCs9aHzSL9YGbd_12libcontainer9container5stateNtB5_15ContainerStatusNtNtCshypYLURccL2_4core3fmt7Display3fmt
FNF:37
FNH:28
DA:13,98
DA:29,158
DA:30,158
DA:31,158
DA:35,84
DA:36,84
DA:37,84
DA:39,84
DA:40,84
DA:41,84
DA:42,42
DA:43,42
DA:45,84
DA:47,84
DA:48,84
DA:49,84
DA:51,84
DA:52,84
DA:53,84
DA:55,84
DA:56,84
DA:57,84
DA:61,0
DA:62,0
DA:63,0
DA:64,0
DA:65,0
DA:66,0
DA:67,0
DA:70,0
DA:71,0
DA:75,364
DA:105,28
DA:106,28
DA:107,28
DA:108,28
DA:109,28
DA:110,28
DA:111,28
DA:112,28
DA:113,28
DA:114,28
DA:115,28
DA:116,28
DA:117,28
DA:118,28
DA:119,28
DA:120,28
DA:121,28
DA:122,28
DA:124,28
DA:125,28
DA:126,28
DA:127,28
DA:128,28
DA:129,28
DA:130,28
DA:131,28
DA:132,28
DA:133,28
DA:134,28
DA:135,28
DA:136,28
DA:138,28
DA:139,28
DA:140,28
DA:141,0
DA:142,28
DA:143,28
DA:144,28
DA:145,28
DA:157,56
DA:158,56
DA:159,56
DA:162,8
DA:183,14
DA:184,14
DA:185,14
DA:186,14
DA:187,14
DA:188,14
DA:189,14
DA:190,14
DA:191,14
DA:193,14
DA:194,14
DA:195,14
DA:196,14
DA:197,14
DA:198,14
DA:199,14
DA:200,14
DA:201,14
DA:203,14
DA:204,14
DA:205,14
DA:206,14
DA:207,14
DA:208,14
DA:209,14
DA:210,14
DA:211,14
DA:213,14
DA:214,14
DA:215,14
DA:216,14
DA:217,14
DA:218,14
DA:219,14
DA:220,14
DA:221,14
DA:223,14
DA:224,14
DA:225,14
DA:226,14
DA:227,14
DA:228,14
DA:229,14
DA:230,14
DA:231,14
BRF:0
BRH:0
LF:134
LH:115
end_of_record
SF:crates/libcontainer/src/container/tenant_builder.rs
FN:58,_RNvMNtNtCs9aHzSL9YGbd_12libcontainer9container14tenant_builderNtB2_22TenantContainerBuilder8with_env
FN:244,_RNvMNtNtCs9aHzSL9YGbd_12libcontainer9container14tenant_builderNtB2_22TenantContainerBuilder21get_no_new_privileges
FN:228,_RNvMNtNtCs9aHzSL9YGbd_12libcontainer9container14tenant_builderNtB2_22TenantContainerBuilder8get_args
FN:65,_RNCINvMNtNtCs9aHzSL9YGbd_12libcontainer9container14tenant_builderNtB5_22TenantContainerBuilder8with_cwdpE0B9_
FN:156,_RNvMNtNtCs9aHzSL9YGbd_12libcontainer9container14tenant_builderNtB2_22TenantContainerBuilder20load_container_state
FN:64,_RINvMNtNtCs9aHzSL9YGbd_12libcontainer9container14tenant_builderNtB3_22TenantContainerBuilder8with_cwdpEB7_
FN:339,_RNvMNtNtCs9aHzSL9YGbd_12libcontainer9container14tenant_builderNtB2_22TenantContainerBuilder18should_use_systemd
FN:256,_RNCNvMNtNtCs9aHzSL9YGbd_12libcontainer9container14tenant_builderNtB4_22TenantContainerBuilder16get_capabilities0B8_
FN:45,_RNvMNtNtCs9aHzSL9YGbd_12libcontainer9container14tenant_builderNtB2_22TenantContainerBuilder3new
FN:248,_RNvMNtNtCs9aHzSL9YGbd_12libcontainer9container14tenant_builderNtB2_22TenantContainerBuilder16get_capabilities
FN:140,_RNvMNtNtCs9aHzSL9YGbd_12libcontainer9container14tenant_builderNtB2_22TenantContainerBuilder20lookup_container_dir
FN:368,_RNvMNtNtCs9aHzSL9YGbd_12libcontainer9container14tenant_builderNtB2_22TenantContainerBuilder13generate_name
FN:70,_RNvMNtNtCs9aHzSL9YGbd_12libcontainer9container14tenant_builderNtB2_22TenantContainerBuilder19with_container_args
FN:168,_RNvMNtNtCs9aHzSL9YGbd_12libcontainer9container14tenant_builderNtB2_22TenantContainerBuilder21adapt_spec_for_tenant
FN:149,_RNvMNtNtCs9aHzSL9YGbd_12libcontainer9container14tenant_builderNtB2_22TenantContainerBuilder14load_init_spec
FN:216,_RNvMNtNtCs9aHzSL9YGbd_12libcontainer9container14tenant_builderNtB2_22TenantContainerBuilder15get_working_dir
FN:320,_RNvMNtNtCs9aHzSL9YGbd_12libcontainer9container14tenant_builderNtB2_22TenantContainerBuilder14get_namespaces
FN:324,_RNCNvMNtNtCs9aHzSL9YGbd_12libcontainer9container14tenant_builderNtB4_22TenantContainerBuilder14get_namespaces0B8_
FN:80,_RNvMNtNtCs9aHzSL9YGbd_12libcontainer9container14tenant_builderNtB2_22TenantContainerBuilder17with_capabilities
FN:86,_RNCINvMNtNtCs9aHzSL9YGbd_12libcontainer9container14tenant_builderNtB5_22TenantContainerBuilder12with_processpE0B9_
FN:353,_RNvMNtNtCs9aHzSL9YGbd_12libcontainer9container14tenant_builderNtB2_22TenantContainerBuilder16setup_tty_socket
FN:240,_RNCNvMNtNtCs9aHzSL9YGbd_12libcontainer9container14tenant_builderNtB4_22TenantContainerBuilder15get_environment0B8_
FN:75,_RNvMNtNtCs9aHzSL9YGbd_12libcontainer9container14tenant_builderNtB2_22TenantContainerBuilder17with_no_new_privs
FN:91,_RNvMNtNtCs9aHzSL9YGbd_12libcontainer9container14tenant_builderNtB2_22TenantContainerBuilder5build
FN:202,_RNvMNtNtCs9aHzSL9YGbd_12libcontainer9container14tenant_builderNtB2_22TenantContainerBuilder11get_process
FN:346,_RNvMNtNtCs9aHzSL9YGbd_12libcontainer9container14tenant_builderNtB2_22TenantContainerBuilder21setup_notify_listener
FN:236,_RNvMNtNtCs9aHzSL9YGbd_12libcontainer9container14tenant_builderNtB2_22TenantContainerBuilder15get_environment
FN:85,_RINvMNtNtCs9aHzSL9YGbd_12libcontainer9container14tenant_builderNtB3_22TenantContainerBuilder12with_processpEB7_
FNDA:0,_RNvMNtNtCs9aHzSL9YGbd_12libcontainer9container14tenant_builderNtB2_22TenantContainerBuilder8with_env
FNDA:0,_RNvMNtNtCs9aHzSL9YGbd_12libcontainer9container14tenant_builderNtB2_22TenantContainerBuilder21get_no_new_privileges
FNDA:0,_RNvMNtNtCs9aHzSL9YGbd_12libcontainer9container14tenant_builderNtB2_22TenantContainerBuilder8get_args
FNDA:0,_RNCINvMNtNtCs9aHzSL9YGbd_12libcontainer9container14tenant_builderNtB5_22TenantContainerBuilder8with_cwdpE0B9_
FNDA:0,_RNvMNtNtCs9aHzSL9YGbd_12libcontainer9container14tenant_builderNtB2_22TenantContainerBuilder20load_container_state
FNDA:0,_RINvMNtNtCs9aHzSL9YGbd_12libcontainer9container14tenant_builderNtB3_22TenantContainerBuilder8with_cwdpEB7_
FNDA:0,_RNvMNtNtCs9aHzSL9YGbd_12libcontainer9container14tenant_builderNtB2_22TenantContainerBuilder18should_use_systemd
FNDA:0,_RNCNvMNtNtCs9aHzSL9YGbd_12libcontainer9container14tenant_builderNtB4_22TenantContainerBuilder16get_capabilities0B8_
FNDA:0,_RNvMNtNtCs9aHzSL9YGbd_12libcontainer9container14tenant_builderNtB2_22TenantContainerBuilder3new
FNDA:0,_RNvMNtNtCs9aHzSL9YGbd_12libcontainer9container14tenant_builderNtB2_22TenantContainerBuilder16get_capabilities
FNDA:0,_RNvMNtNtCs9aHzSL9YGbd_12libcontainer9container14tenant_builderNtB2_22TenantContainerBuilder20lookup_container_dir
FNDA:0,_RNvMNtNtCs9aHzSL9YGbd_12libcontainer9container14tenant_builderNtB2_22TenantContainerBuilder13generate_name
FNDA:0,_RNvMNtNtCs9aHzSL9YGbd_12libcontainer9container14tenant_builderNtB2_22TenantContainerBuilder19with_container_args
FNDA:0,_RNvMNtNtCs9aHzSL9YGbd_12libcontainer9container14tenant_builderNtB2_22TenantContainerBuilder21adapt_spec_for_tenant
FNDA:0,_RNvMNtNtCs9aHzSL9YGbd_12libcontainer9container14tenant_builderNtB2_22TenantContainerBuilder14load_init_spec
FNDA:0,_RNvMNtNtCs9aHzSL9YGbd_12libcontainer9container14tenant_builderNtB2_22TenantContainerBuilder15get_working_dir
FNDA:0,_RNvMNtNtCs9aHzSL9YGbd_12libcontainer9container14tenant_builderNtB2_22TenantContainerBuilder14get_namespaces
FNDA:0,_RNCNvMNtNtCs9aHzSL9YGbd_12libcontainer9container14tenant_builderNtB4_22TenantContainerBuilder14get_namespaces0B8_
FNDA:0,_RNvMNtNtCs9aHzSL9YGbd_12libcontainer9container14tenant_builderNtB2_22TenantContainerBuilder17with_capabilities
FNDA:0,_RNCINvMNtNtCs9aHzSL9YGbd_12libcontainer9container14tenant_builderNtB5_22TenantContainerBuilder12with_processpE0B9_
FNDA:0,_RNvMNtNtCs9aHzSL9YGbd_12libcontainer9container14tenant_builderNtB2_22TenantContainerBuilder16setup_tty_socket
FNDA:0,_RNCNvMNtNtCs9aHzSL9YGbd_12libcontainer9container14tenant_builderNtB4_22TenantContainerBuilder15get_environment0B8_
FNDA:0,_RNvMNtNtCs9aHzSL9YGbd_12libcontainer9container14tenant_builderNtB2_22TenantContainerBuilder17with_no_new_privs
FNDA:0,_RNvMNtNtCs9aHzSL9YGbd_12libcontainer9container14tenant_builderNtB2_22TenantContainerBuilder5build
FNDA:0,_RNvMNtNtCs9aHzSL9YGbd_12libcontainer9container14tenant_builderNtB2_22TenantContainerBuilder11get_process
FNDA:0,_RNvMNtNtCs9aHzSL9YGbd_12libcontainer9container14tenant_builderNtB2_22TenantContainerBuilder21setup_notify_listener
FNDA:0,_RNvMNtNtCs9aHzSL9YGbd_12libcontainer9container14tenant_builderNtB2_22TenantContainerBuilder15get_environment
FNDA:0,_RINvMNtNtCs9aHzSL9YGbd_12libcontainer9container14tenant_builderNtB3_22TenantContainerBuilder12with_processpEB7_
FNF:28
FNH:0
DA:45,0
DA:46,0
DA:47,0
DA:48,0
DA:49,0
DA:50,0
DA:51,0
DA:52,0
DA:53,0
DA:54,0
DA:55,0
DA:58,0
DA:59,0
DA:60,0
DA:61,0
DA:64,0
DA:65,0
DA:66,0
DA:67,0
DA:70,0
DA:71,0
DA:72,0
DA:73,0
DA:75,0
DA:76,0
DA:77,0
DA:78,0
DA:80,0
DA:81,0
DA:82,0
DA:83,0
DA:85,0
DA:86,0
DA:87,0
DA:88,0
DA:91,0
DA:92,0
DA:93,0
DA:94,0
DA:95,0
DA:96,0
DA:97,0
DA:98,0
DA:99,0
DA:100,0
DA:101,0
DA:102,0
DA:104,0
DA:106,0
DA:107,0
DA:109,0
DA:113,0
DA:115,0
DA:116,0
DA:118,0
DA:119,0
DA:120,0
DA:121,0
DA:122,0
DA:123,0
DA:124,0
DA:125,0
DA:126,0
DA:127,0
DA:128,0
DA:129,0
DA:130,0
DA:131,0
DA:132,0
DA:133,0
DA:135,0
DA:136,0
DA:137,0
DA:138,0
DA:140,0
DA:141,0
DA:142,0
DA:143,0
DA:144,0
DA:145,0
DA:146,0
DA:147,0
DA:149,0
DA:150,0
DA:152,0
DA:153,0
DA:154,0
DA:156,0
DA:157,0
DA:158,0
DA:159,0
DA:160,0
DA:161,0
DA:162,0
DA:163,0
DA:164,0
DA:165,0
DA:166,0
DA:168,0
DA:169,0
DA:170,0
DA:172,0
DA:173,0
DA:174,0
DA:175,0
DA:176,0
DA:177,0
DA:179,0
DA:180,0
DA:181,0
DA:183,0
DA:184,0
DA:185,0
DA:187,0
DA:190,0
DA:191,0
DA:192,0
DA:194,0
DA:195,0
DA:196,0
DA:198,0
DA:199,0
DA:200,0
DA:202,0
DA:203,0
DA:204,0
DA:205,0
DA:206,0
DA:207,0
DA:208,0
DA:210,0
DA:211,0
DA:212,0
DA:213,0
DA:216,0
DA:217,0
DA:218,0
DA:219,0
DA:220,0
DA:221,0
DA:222,0
DA:223,0
DA:224,0
DA:225,0
DA:226,0
DA:228,0
DA:229,0
DA:230,0
DA:231,0
DA:232,0
DA:233,0
DA:234,0
DA:236,0
DA:237,0
DA:238,0
DA:239,0
DA:240,0
DA:241,0
DA:242,0
DA:244,0
DA:245,0
DA:246,0
DA:248,0
DA:249,0
DA:250,0
DA:251,0
DA:252,0
DA:255,0
DA:256,0
DA:258,0
DA:259,0
DA:260,0
DA:261,0
DA:262,0
DA:264,0
DA:265,0
DA:266,0
DA:267,0
DA:268,0
DA:270,0
DA:272,0
DA:273,0
DA:274,0
DA:275,0
DA:277,0
DA:279,0
DA:280,0
DA:281,0
DA:282,0
DA:284,0
DA:286,0
DA:287,0
DA:288,0
DA:289,0
DA:290,0
DA:292,0
DA:294,0
DA:295,0
DA:296,0
DA:297,0
DA:299,0
DA:302,0
DA:303,0
DA:304,0
DA:305,0
DA:306,0
DA:307,0
DA:308,0
DA:309,0
DA:310,0
DA:311,0
DA:312,0
DA:313,0
DA:315,0
DA:316,0
DA:317,0
DA:318,0
DA:320,0
DA:321,0
DA:323,0
DA:324,0
DA:325,0
DA:327,0
DA:328,0
DA:329,0
DA:330,0
DA:332,0
DA:335,0
DA:336,0
DA:339,0
DA:340,0
DA:341,0
DA:342,0
DA:343,0
DA:344,0
DA:346,0
DA:347,0
DA:348,0
DA:349,0
DA:350,0
DA:351,0
DA:353,0
DA:354,0
DA:355,0
DA:356,0
DA:357,0
DA:358,0
DA:359,0
DA:360,0
DA:362,0
DA:365,0
DA:366,0
DA:368,0
DA:369,0
DA:370,0
DA:371,0
DA:372,0
DA:373,0
DA:374,0
DA:376,0
BRF:0
BRH:0
LF:265
LH:0
end_of_record
SF:crates/libcontainer/src/hooks.rs
FN:16,_RNvXs_NtCs4hmKDm3KTCY_12libcontainer5hooksNtB4_16HookTimeoutErrorNtNtCshypYLURccL2_4core3fmt7Display3fmt
FN:56,_RNCNvNtCs4hmKDm3KTCY_12libcontainer5hooks9run_hookss_0B5_
FN:12,_RNvXs0_NtCs4hmKDm3KTCY_12libcontainer5hooksNtB5_16HookTimeoutErrorNtNtCshypYLURccL2_4core3fmt5Debug3fmt
FN:21,_RNvNtCs4hmKDm3KTCY_12libcontainer5hooks9run_hooks
FN:93,_RNCNvNtCs4hmKDm3KTCY_12libcontainer5hooks9run_hookss0_0B5_
FN:37,_RNCNvNtCs4hmKDm3KTCY_12libcontainer5hooks9run_hooks0B5_
FN:203,_RNCNvNtNtCs4hmKDm3KTCY_12libcontainer5hooks4test21test_run_hook_timeout0B7_
FN:145,_RNvNtNtCs4hmKDm3KTCY_12libcontainer5hooks4test18is_command_in_path
FN:163,_RNCNvNtNtCs4hmKDm3KTCY_12libcontainer5hooks4test13test_run_hook0B7_
FN:164,_RNCNvNtNtCs4hmKDm3KTCY_12libcontainer5hooks4tests_13test_run_hook0B7_
FN:204,_RNvNtNtCs4hmKDm3KTCY_12libcontainer5hooks4tests_21test_run_hook_timeout
FN:204,_RNCNvNtNtCs4hmKDm3KTCY_12libcontainer5hooks4tests_21test_run_hook_timeout0B7_
FN:164,_RNvNtNtCs4hmKDm3KTCY_12libcontainer5hooks4tests_13test_run_hook
FN:21,_RNvNtCs9aHzSL9YGbd_12libcontainer5hooks9run_hooks
FN:93,_RNCNvNtCs9aHzSL9YGbd_12libcontainer5hooks9run_hookss0_0B5_
FN:56,_RNCNvNtCs9aHzSL9YGbd_12libcontainer5hooks9run_hookss_0B5_
FN:37,_RNCNvNtCs9aHzSL9YGbd_12libcontainer5hooks9run_hooks0B5_
FN:16,_RNvXs_NtCs9aHzSL9YGbd_12libcontainer5hooksNtB4_16HookTimeoutErrorNtNtCshypYLURccL2_4core3fmt7Display3fmt
FN:12,_RNvXs0_NtCs9aHzSL9YGbd_12libcontainer5hooksNtB5_16HookTimeoutErrorNtNtCshypYLURccL2_4core3fmt5Debug3fmt
FNDA:0,_RNvXs_NtCs4hmKDm3KTCY_12libcontainer5hooksNtB4_16HookTimeoutErrorNtNtCshypYLURccL2_4core3fmt7Display3fmt
FNDA:0,_RNCNvNtCs4hmKDm3KTCY_12libcontainer5hooks9run_hookss_0B5_
FNDA:0,_RNvXs0_NtCs4hmKDm3KTCY_12libcontainer5hooksNtB5_16HookTimeoutErrorNtNtCshypYLURccL2_4core3fmt5Debug3fmt
FNDA:56,_RNvNtCs4hmKDm3KTCY_12libcontainer5hooks9run_hooks
FNDA:14,_RNCNvNtCs4hmKDm3KTCY_12libcontainer5hooks9run_hookss0_0B5_
FNDA:28,_RNCNvNtCs4hmKDm3KTCY_12libcontainer5hooks9run_hooks0B5_
FNDA:14,_RNCNvNtNtCs4hmKDm3KTCY_12libcontainer5hooks4test21test_run_hook_timeout0B7_
FNDA:28,_RNvNtNtCs4hmKDm3KTCY_12libcontainer5hooks4test18is_command_in_path
FNDA:14,_RNCNvNtNtCs4hmKDm3KTCY_12libcontainer5hooks4test13test_run_hook0B7_
FNDA:14,_RNCNvNtNtCs4hmKDm3KTCY_12libcontainer5hooks4tests_13test_run_hook0B7_
FNDA:14,_RNvNtNtCs4hmKDm3KTCY_12libcontainer5hooks4tests_21test_run_hook_timeout
FNDA:14,_RNCNvNtNtCs4hmKDm3KTCY_12libcontainer5hooks4tests_21test_run_hook_timeout0B7_
FNDA:14,_RNvNtNtCs4hmKDm3KTCY_12libcontainer5hooks4tests_13test_run_hook
FNDA:0,_RNvNtCs9aHzSL9YGbd_12libcontainer5hooks9run_hooks
FNDA:0,_RNCNvNtCs9aHzSL9YGbd_12libcontainer5hooks9run_hookss0_0B5_
FNDA:0,_RNCNvNtCs9aHzSL9YGbd_12libcontainer5hooks9run_hookss_0B5_
FNDA:0,_RNCNvNtCs9aHzSL9YGbd_12libcontainer5hooks9run_hooks0B5_
FNDA:0,_RNvXs_NtCs9aHzSL9YGbd_12libcontainer5hooksNtB4_16HookTimeoutErrorNtNtCshypYLURccL2_4core3fmt7Display3fmt
FNDA:0,_RNvXs0_NtCs9aHzSL9YGbd_12libcontainer5hooksNtB5_16HookTimeoutErrorNtNtCshypYLURccL2_4core3fmt5Debug3fmt
FNF:11
FNH:8
DA:12,0
DA:16,0
DA:17,0
DA:18,0
DA:21,56
DA:22,56
DA:23,0
DA:24,56
DA:25,56
DA:26,56
DA:28,56
DA:29,42
DA:30,42
DA:37,42
DA:38,28
DA:39,28
DA:41,14
DA:44,42
DA:45,14
DA:47,28
DA:49,42
DA:51,42
DA:52,42
DA:53,42
DA:54,42
DA:55,42
DA:56,42
DA:57,42
DA:60,42
DA:69,42
DA:70,42
DA:71,42
DA:72,0
DA:75,0
DA:76,0
DA:77,0
DA:78,42
DA:79,0
DA:81,42
DA:92,14
DA:93,14
DA:94,14
DA:95,14
DA:96,14
DA:97,14
DA:98,0
DA:102,14
DA:103,14
DA:106,0
DA:110,28
DA:113,28
DA:114,28
DA:115,28
DA:116,0
DA:117,0
DA:118,0
DA:119,0
DA:120,0
DA:123,0
DA:126,0
DA:127,0
DA:131,14
DA:133,42
DA:134,56
DA:145,28
DA:146,252
DA:147,252
DA:148,252
DA:149,28
DA:150,224
DA:152,0
DA:153,0
DA:154,28
DA:163,14
DA:164,14
DA:203,14
DA:204,14
BRF:0
BRH:0
LF:81
LH:58
end_of_record
SF:crates/libcontainer/src/lib.rs
FN:1,_RNvCs4hmKDm3KTCY_12libcontainer4main
FNDA:14,_RNvCs4hmKDm3KTCY_12libcontainer4main
FNF:1
FNH:1
DA:1,14
BRF:0
BRH:0
LF:1
LH:1
end_of_record
SF:crates/libcontainer/src/namespaces.rs
FN:127,_RNCNCNvNtNtCs4hmKDm3KTCY_12libcontainer10namespaces5testss_21test_apply_namespaces0s_0B9_
FN:120,_RNCNvNtNtCs4hmKDm3KTCY_12libcontainer10namespaces5tests21test_apply_namespaces0B7_
FN:93,_RNvNtNtCs4hmKDm3KTCY_12libcontainer10namespaces5tests27gen_sample_linux_namespaces
FN:121,_RNCNvNtNtCs4hmKDm3KTCY_12libcontainer10namespaces5testss_21test_apply_namespaces0B7_
FN:121,_RNvNtNtCs4hmKDm3KTCY_12libcontainer10namespaces5testss_21test_apply_namespaces
FN:133,_RNCNCNvNtNtCs4hmKDm3KTCY_12libcontainer10namespaces5testss_21test_apply_namespaces00B9_
FN:81,_RNvMs_NtCs4hmKDm3KTCY_12libcontainer10namespacesNtB4_10Namespaces3get
FN:22,_RNvNtCs4hmKDm3KTCY_12libcontainer10namespaces14get_clone_flag
FN:55,_RNCINvMs_NtCs4hmKDm3KTCY_12libcontainer10namespacesNtB7_10Namespaces16apply_namespacesNCNvNtNtB9_7process22container_init_process21apply_rest_namespaces0E0B9_
FN:64,_RNvMs_NtCs4hmKDm3KTCY_12libcontainer10namespacesNtB4_10Namespaces16unshare_or_setns
FN:40,_RNCNvXNtCs4hmKDm3KTCY_12libcontainer10namespacesNtB4_10NamespacesINtNtCshypYLURccL2_4core7convert4FromINtNtB16_6option6OptionRINtNtCsdfjrgz5TZDL_5alloc3vec3VecNtNtNtCsavfOPrTag7s_8oci_spec7runtime5linux14LinuxNamespaceEEE4from0B6_
FN:35,_RNvXNtCs4hmKDm3KTCY_12libcontainer10namespacesNtB2_10NamespacesINtNtCshypYLURccL2_4core7convert4FromINtNtB14_6option6OptionRINtNtCsdfjrgz5TZDL_5alloc3vec3VecNtNtNtCsavfOPrTag7s_8oci_spec7runtime5linux14LinuxNamespaceEEE4from
FN:71,_RNCNvMs_NtCs4hmKDm3KTCY_12libcontainer10namespacesNtB6_10Namespaces16unshare_or_setns0B8_
FN:51,_RINvMs_NtCs4hmKDm3KTCY_12libcontainer10namespacesNtB5_10Namespaces16apply_namespacesNCNvNtNtB7_7process22container_init_process21apply_rest_namespaces0EB7_
FN:75,_RNCNvMs_NtCs4hmKDm3KTCY_12libcontainer10namespacesNtB6_10Namespaces16unshare_or_setnss0_0B8_
FN:74,_RNCNvMs_NtCs4hmKDm3KTCY_12libcontainer10namespacesNtB6_10Namespaces16unshare_or_setnss_0B8_
FN:55,_RNCINvMs_NtCs4hmKDm3KTCY_12libcontainer10namespacesNtB7_10Namespaces16apply_namespacesNCNCNvNtB7_5testss_21test_apply_namespaces0s_0E0B9_
FN:51,_RINvMs_NtCs4hmKDm3KTCY_12libcontainer10namespacesNtB5_10Namespaces16apply_namespacesNCNCNvNtB5_5testss_21test_apply_namespaces0s_0EB7_
FN:59,_RNCINvMs_NtCs4hmKDm3KTCY_12libcontainer10namespacesNtB7_10Namespaces16apply_namespacesNCNvNtNtB9_7process22container_init_process21apply_rest_namespaces0Es_0B9_
FN:59,_RNCINvMs_NtCs4hmKDm3KTCY_12libcontainer10namespacesNtB7_10Namespaces16apply_namespacesNCNCNvNtB7_5testss_21test_apply_namespaces0s_0Es_0B9_
FN:74,_RNCNvMs_NtCs9aHzSL9YGbd_12libcontainer10namespacesNtB6_10Namespaces16unshare_or_setnss_0B8_
FN:51,_RINvMs_NtCs9aHzSL9YGbd_12libcontainer10namespacesNtB5_10Namespaces16apply_namespacesNCNvNtNtB7_7process22container_init_process21apply_rest_namespaces0EB7_
FN:64,_RNvMs_NtCs9aHzSL9YGbd_12libcontainer10namespacesNtB4_10Namespaces16unshare_or_setns
FN:59,_RNCINvMs_NtCs9aHzSL9YGbd_12libcontainer10namespacesNtB7_10Namespaces16apply_namespacesNCNvNtNtB9_7process22container_init_process21apply_rest_namespaces0Es_0B9_
FN:71,_RNCNvMs_NtCs9aHzSL9YGbd_12libcontainer10namespacesNtB6_10Namespaces16unshare_or_setns0B8_
FN:40,_RNCNvXNtCs9aHzSL9YGbd_12libcontainer10namespacesNtB4_10NamespacesINtNtCshypYLURccL2_4core7convert4FromINtNtB16_6option6OptionRINtNtCsdfjrgz5TZDL_5alloc3vec3VecNtNtNtCsavfOPrTag7s_8oci_spec7runtime5linux14LinuxNamespaceEEE4from0B6_
FN:75,_RNCNvMs_NtCs9aHzSL9YGbd_12libcontainer10namespacesNtB6_10Namespaces16unshare_or_setnss0_0B8_
FN:35,_RNvXNtCs9aHzSL9YGbd_12libcontainer10namespacesNtB2_10NamespacesINtNtCshypYLURccL2_4core7convert4FromINtNtB14_6option6OptionRINtNtCsdfjrgz5TZDL_5alloc3vec3VecNtNtNtCsavfOPrTag7s_8oci_spec7runtime5linux14LinuxNamespaceEEE4from
FN:81,_RNvMs_NtCs9aHzSL9YGbd_12libcontainer10namespacesNtB4_10Namespaces3get
FN:55,_RNCINvMs_NtCs9aHzSL9YGbd_12libcontainer10namespacesNtB7_10Namespaces16apply_namespacesNCNvNtNtB9_7process22container_init_process21apply_rest_namespaces0E0B9_
FN:22,_RNvNtCs9aHzSL9YGbd_12libcontainer10namespaces14get_clone_flag
FNDA:70,_RNCNCNvNtNtCs4hmKDm3KTCY_12libcontainer10namespaces5testss_21test_apply_namespaces0s_0B9_
FNDA:14,_RNCNvNtNtCs4hmKDm3KTCY_12libcontainer10namespaces5tests21test_apply_namespaces0B7_
FNDA:14,_RNvNtNtCs4hmKDm3KTCY_12libcontainer10namespaces5tests27gen_sample_linux_namespaces
FNDA:14,_RNCNvNtNtCs4hmKDm3KTCY_12libcontainer10namespaces5testss_21test_apply_namespaces0B7_
FNDA:14,_RNvNtNtCs4hmKDm3KTCY_12libcontainer10namespaces5testss_21test_apply_namespaces
FNDA:28,_RNCNCNvNtNtCs4hmKDm3KTCY_12libcontainer10namespaces5testss_21test_apply_namespaces00B9_
FNDA:13,_RNvMs_NtCs4hmKDm3KTCY_12libcontainer10namespacesNtB4_10Namespaces3get
FNDA:178,_RNvNtCs4hmKDm3KTCY_12libcontainer10namespaces14get_clone_flag
FNDA:26,_RNCINvMs_NtCs4hmKDm3KTCY_12libcontainer10namespacesNtB7_10Namespaces16apply_namespacesNCNvNtNtB9_7process22container_init_process21apply_rest_namespaces0E0B9_
FNDA:69,_RNvMs_NtCs4hmKDm3KTCY_12libcontainer10namespacesNtB4_10Namespaces16unshare_or_setns
FNDA:96,_RNCNvXNtCs4hmKDm3KTCY_12libcontainer10namespacesNtB4_10NamespacesINtNtCshypYLURccL2_4core7convert4FromINtNtB16_6option6OptionRINtNtCsdfjrgz5TZDL_5alloc3vec3VecNtNtNtCsavfOPrTag7s_8oci_spec7runtime5linux14LinuxNamespaceEEE4from0B6_
FNDA:27,_RNvXNtCs4hmKDm3KTCY_12libcontainer10namespacesNtB2_10NamespacesINtNtCshypYLURccL2_4core7convert4FromINtNtB14_6option6OptionRINtNtCsdfjrgz5TZDL_5alloc3vec3VecNtNtNtCsavfOPrTag7s_8oci_spec7runtime5linux14LinuxNamespaceEEE4from
FNDA:0,_RNCNvMs_NtCs4hmKDm3KTCY_12libcontainer10namespacesNtB6_10Namespaces16unshare_or_setns0B8_
FNDA:13,_RINvMs_NtCs4hmKDm3KTCY_12libcontainer10namespacesNtB5_10Namespaces16apply_namespacesNCNvNtNtB7_7process22container_init_process21apply_rest_namespaces0EB7_
FNDA:0,_RNCNvMs_NtCs4hmKDm3KTCY_12libcontainer10namespacesNtB6_10Namespaces16unshare_or_setnss0_0B8_
FNDA:0,_RNCNvMs_NtCs4hmKDm3KTCY_12libcontainer10namespacesNtB6_10Namespaces16unshare_or_setnss_0B8_
FNDA:70,_RNCINvMs_NtCs4hmKDm3KTCY_12libcontainer10namespacesNtB7_10Namespaces16apply_namespacesNCNCNvNtB7_5testss_21test_apply_namespaces0s_0E0B9_
FNDA:14,_RINvMs_NtCs4hmKDm3KTCY_12libcontainer10namespacesNtB5_10Namespaces16apply_namespacesNCNCNvNtB5_5testss_21test_apply_namespaces0s_0EB7_
FNDA:0,_RNCINvMs_NtCs4hmKDm3KTCY_12libcontainer10namespacesNtB7_10Namespaces16apply_namespacesNCNvNtNtB9_7process22container_init_process21apply_rest_namespaces0Es_0B9_
FNDA:0,_RNCINvMs_NtCs4hmKDm3KTCY_12libcontainer10namespacesNtB7_10Namespaces16apply_namespacesNCNCNvNtB7_5testss_21test_apply_namespaces0s_0Es_0B9_
FNDA:0,_RNCNvMs_NtCs9aHzSL9YGbd_12libcontainer10namespacesNtB6_10Namespaces16unshare_or_setnss_0B8_
FNDA:0,_RINvMs_NtCs9aHzSL9YGbd_12libcontainer10namespacesNtB5_10Namespaces16apply_namespacesNCNvNtNtB7_7process22container_init_process21apply_rest_namespaces0EB7_
FNDA:0,_RNvMs_NtCs9aHzSL9YGbd_12libcontainer10namespacesNtB4_10Namespaces16unshare_or_setns
FNDA:0,_RNCINvMs_NtCs9aHzSL9YGbd_12libcontainer10namespacesNtB7_10Namespaces16apply_namespacesNCNvNtNtB9_7process22container_init_process21apply_rest_namespaces0Es_0B9_
FNDA:0,_RNCNvMs_NtCs9aHzSL9YGbd_12libcontainer10namespacesNtB6_10Namespaces16unshare_or_setns0B8_
FNDA:0,_RNCNvXNtCs9aHzSL9YGbd_12libcontainer10namespacesNtB4_10NamespacesINtNtCshypYLURccL2_4core7convert4FromINtNtB16_6option6OptionRINtNtCsdfjrgz5TZDL_5alloc3vec3VecNtNtNtCsavfOPrTag7s_8oci_spec7runtime5linux14LinuxNamespaceEEE4from0B6_
FNDA:0,_RNCNvMs_NtCs9aHzSL9YGbd_12libcontainer10namespacesNtB6_10Namespaces16unshare_or_setnss0_0B8_
FNDA:0,_RNvXNtCs9aHzSL9YGbd_12libcontainer10namespacesNtB2_10NamespacesINtNtCshypYLURccL2_4core7convert4FromINtNtB14_6option6OptionRINtNtCsdfjrgz5TZDL_5alloc3vec3VecNtNtNtCsavfOPrTag7s_8oci_spec7runtime5linux14LinuxNamespaceEEE4from
FNDA:0,_RNvMs_NtCs9aHzSL9YGbd_12libcontainer10namespacesNtB4_10Namespaces3get
FNDA:0,_RNCINvMs_NtCs9aHzSL9YGbd_12libcontainer10namespacesNtB7_10Namespaces16apply_namespacesNCNvNtNtB9_7process22container_init_process21apply_rest_namespaces0E0B9_
FNDA:0,_RNvNtCs9aHzSL9YGbd_12libcontainer10namespaces14get_clone_flag
FNF:16
FNH:12
DA:22,178
DA:23,178
DA:24,41
DA:25,28
DA:26,39
DA:27,0
DA:28,14
DA:29,28
DA:30,28
DA:32,178
DA:35,27
DA:36,27
DA:37,27
DA:38,27
DA:39,27
DA:40,96
DA:41,27
DA:42,27
DA:43,27
DA:44,27
DA:45,27
DA:46,27
DA:47,27
DA:51,27
DA:52,27
DA:53,27
DA:54,27
DA:55,96
DA:56,27
DA:57,96
DA:58,69
DA:59,69
DA:61,27
DA:62,27
DA:64,69
DA:65,69
DA:66,69
DA:67,41
DA:69,28
DA:70,28
DA:71,28
DA:72,28
DA:73,28
DA:74,28
DA:75,28
DA:78,69
DA:79,69
DA:81,13
DA:82,13
DA:83,13
DA:93,14
DA:94,14
DA:95,14
DA:96,14
DA:97,14
DA:98,14
DA:99,14
DA:100,14
DA:101,14
DA:102,14
DA:103,14
DA:104,14
DA:105,14
DA:106,14
DA:107,14
DA:108,14
DA:109,14
DA:110,14
DA:111,14
DA:112,14
DA:113,14
DA:114,14
DA:115,14
DA:116,14
DA:117,14
DA:118,14
DA:120,14
DA:121,28
DA:127,70
DA:133,28
BRF:0
BRH:0
LF:86
LH:81
end_of_record
SF:crates/libcontainer/src/notify_socket.rs
FN:52,_RNvMNtCs9aHzSL9YGbd_12libcontainer13notify_socketNtB2_14NotifyListener5close
FN:79,_RNvMs_NtCs9aHzSL9YGbd_12libcontainer13notify_socketNtB4_12NotifySocket23notify_container_finish
FN:68,_RNvMs_NtCs9aHzSL9YGbd_12libcontainer13notify_socketNtB4_12NotifySocket22notify_container_start
FN:62,_RINvMs_NtCs9aHzSL9YGbd_12libcontainer13notify_socketNtB5_12NotifySocket3newNtNtCslIgaOqvXPTn_3std4path7PathBufEB7_
FN:38,_RNvMNtCs9aHzSL9YGbd_12libcontainer13notify_socketNtB2_14NotifyListener24wait_for_container_start
FN:16,_RNvMNtCs9aHzSL9YGbd_12libcontainer13notify_socketNtB2_14NotifyListener3new
FN:62,_RINvMs_NtCs9aHzSL9YGbd_12libcontainer13notify_socketNtB5_12NotifySocket3newRNtNtCslIgaOqvXPTn_3std4path7PathBufEB7_
FNDA:0,_RNvMNtCs9aHzSL9YGbd_12libcontainer13notify_socketNtB2_14NotifyListener5close
FNDA:0,_RNvMs_NtCs9aHzSL9YGbd_12libcontainer13notify_socketNtB4_12NotifySocket23notify_container_finish
FNDA:0,_RNvMs_NtCs9aHzSL9YGbd_12libcontainer13notify_socketNtB4_12NotifySocket22notify_container_start
FNDA:0,_RINvMs_NtCs9aHzSL9YGbd_12libcontainer13notify_socketNtB5_12NotifySocket3newNtNtCslIgaOqvXPTn_3std4path7PathBufEB7_
FNDA:0,_RNvMNtCs9aHzSL9YGbd_12libcontainer13notify_socketNtB2_14NotifyListener24wait_for_container_start
FNDA:0,_RNvMNtCs9aHzSL9YGbd_12libcontainer13notify_socketNtB2_14NotifyListener3new
FNDA:0,_RINvMs_NtCs9aHzSL9YGbd_12libcontainer13notify_socketNtB5_12NotifySocket3newRNtNtCslIgaOqvXPTn_3std4path7PathBufEB7_
FNF:6
FNH:0
DA:16,0
DA:17,0
DA:18,0
DA:19,0
DA:20,0
DA:21,0
DA:22,0
DA:23,0
DA:24,0
DA:25,0
DA:26,0
DA:27,0
DA:28,0
DA:29,0
DA:30,0
DA:31,0
DA:32,0
DA:33,0
DA:35,0
DA:36,0
DA:38,0
DA:39,0
DA:40,0
DA:41,0
DA:42,0
DA:43,0
DA:45,0
DA:48,0
DA:49,0
DA:52,0
DA:53,0
DA:54,0
DA:62,0
DA:63,0
DA:64,0
DA:65,0
DA:66,0
DA:68,0
DA:69,0
DA:70,0
DA:71,0
DA:72,0
DA:73,0
DA:74,0
DA:75,0
DA:76,0
DA:77,0
DA:79,0
DA:80,0
DA:81,0
DA:82,0
BRF:0
BRH:0
LF:51
LH:0
end_of_record
SF:crates/libcontainer/src/process/channel.rs
FN:512,_RNCNvNtNtNtCs4hmKDm3KTCY_12libcontainer7process7channel5tests23test_channel_init_ready0B9_
FN:483,_RNCNCNvNtNtNtCs4hmKDm3KTCY_12libcontainer7process7channel5testss_31test_channel_id_mapping_request00Bb_
FN:513,_RNCNvNtNtNtCs4hmKDm3KTCY_12libcontainer7process7channel5testss_23test_channel_init_ready0B9_
FN:534,_RNCNvNtNtNtCs4hmKDm3KTCY_12libcontainer7process7channel5tests31test_channel_main_graceful_exit0B9_
FN:447,_RNvNtNtNtCs4hmKDm3KTCY_12libcontainer7process7channel5testss_31test_channel_intermadiate_ready
FN:493,_RNvNtNtNtCs4hmKDm3KTCY_12libcontainer7process7channel5testss_27test_channel_id_mapping_ack
FN:470,_RNCNvNtNtNtCs4hmKDm3KTCY_12libcontainer7process7channel5tests31test_channel_id_mapping_request0B9_
FN:504,_RNCNCNvNtNtNtCs4hmKDm3KTCY_12libcontainer7process7channel5testss_27test_channel_id_mapping_ack00Bb_
FN:557,_RNCNvNtNtNtCs4hmKDm3KTCY_12libcontainer7process7channel5tests39test_channel_intermediate_graceful_exit0B9_
FN:471,_RNvNtNtNtCs4hmKDm3KTCY_12libcontainer7process7channel5testss_31test_channel_id_mapping_request
FN:446,_RNCNvNtNtNtCs4hmKDm3KTCY_12libcontainer7process7channel5tests31test_channel_intermadiate_ready0B9_
FN:558,_RNvNtNtNtCs4hmKDm3KTCY_12libcontainer7process7channel5testss_39test_channel_intermediate_graceful_exit
FN:492,_RNCNvNtNtNtCs4hmKDm3KTCY_12libcontainer7process7channel5tests27test_channel_id_mapping_ack0B9_
FN:447,_RNCNvNtNtNtCs4hmKDm3KTCY_12libcontainer7process7channel5testss_31test_channel_intermadiate_ready0B9_
FN:455,_RNCNCNvNtNtNtCs4hmKDm3KTCY_12libcontainer7process7channel5testss_31test_channel_intermadiate_ready00Bb_
FN:471,_RNCNvNtNtNtCs4hmKDm3KTCY_12libcontainer7process7channel5testss_31test_channel_id_mapping_request0B9_
FN:525,_RNCNCNvNtNtNtCs4hmKDm3KTCY_12libcontainer7process7channel5testss_23test_channel_init_ready00Bb_
FN:493,_RNCNvNtNtNtCs4hmKDm3KTCY_12libcontainer7process7channel5testss_27test_channel_id_mapping_ack0B9_
FN:535,_RNCNvNtNtNtCs4hmKDm3KTCY_12libcontainer7process7channel5testss_31test_channel_main_graceful_exit0B9_
FN:513,_RNvNtNtNtCs4hmKDm3KTCY_12libcontainer7process7channel5testss_23test_channel_init_ready
FN:558,_RNCNvNtNtNtCs4hmKDm3KTCY_12libcontainer7process7channel5testss_39test_channel_intermediate_graceful_exit0B9_
FN:535,_RNvNtNtNtCs4hmKDm3KTCY_12libcontainer7process7channel5testss_31test_channel_main_graceful_exit
FN:283,_RNvMs4_NtNtCs4hmKDm3KTCY_12libcontainer7process7channelINtB5_6SenderNtNtNtB9_5utils10test_utils10TestResultE4sendB9_
FN:306,_RNvMs5_NtNtCs4hmKDm3KTCY_12libcontainer7process7channelINtB5_8ReceiverNtNtB7_7message7MessageE15peek_size_iovecB9_
FN:347,_RNCINvMs5_NtNtCs4hmKDm3KTCY_12libcontainer7process7channelINtB8_8ReceiverNtNtBa_7message7MessageE15recv_into_iovecAlj0_Es_0Bc_
FN:224,_RNvMs3_NtNtCs4hmKDm3KTCY_12libcontainer7process7channelNtB5_12InitReceiver29wait_for_seccomp_request_done
FN:268,_RNvMs4_NtNtCs4hmKDm3KTCY_12libcontainer7process7channelINtB5_6SenderNtNtNtB9_5utils10test_utils10TestResultE19send_slice_with_lenB9_
FN:341,_RNCINvMs5_NtNtCs4hmKDm3KTCY_12libcontainer7process7channelINtB8_8ReceiverNtNtNtBc_5utils10test_utils10TestResultE15recv_into_iovecAlj0_E0Bc_
FN:198,_RNvNtNtCs4hmKDm3KTCY_12libcontainer7process7channel12init_channel
FN:357,_RINvMs5_NtNtCs4hmKDm3KTCY_12libcontainer7process7channelINtB6_8ReceiverNtNtNtBa_5utils10test_utils10TestResultE22recv_into_buf_with_lenAlj0_EBa_
FN:91,_RNvMs_NtNtCs4hmKDm3KTCY_12libcontainer7process7channelNtB4_12MainReceiver24wait_for_mapping_request
FN:357,_RINvMs5_NtNtCs4hmKDm3KTCY_12libcontainer7process7channelINtB6_8ReceiverNtNtB8_7message7MessageE22recv_into_buf_with_lenAlj1_EBa_
FN:193,_RNvMs1_NtNtCs4hmKDm3KTCY_12libcontainer7process7channelNtB5_20IntermediateReceiver5close
FN:321,_RINvMs5_NtNtCs4hmKDm3KTCY_12libcontainer7process7channelINtB6_8ReceiverNtNtNtBa_5utils10test_utils10TestResultE15recv_into_iovecAlj0_EBa_
FN:64,_RNvMNtNtCs4hmKDm3KTCY_12libcontainer7process7channelNtB2_10MainSender5close
FN:422,_RNvNtNtCs4hmKDm3KTCY_12libcontainer7process7channel12unix_channel
FN:392,_RINvMs5_NtNtCs4hmKDm3KTCY_12libcontainer7process7channelINtB6_8ReceiverNtNtB8_7message7MessageE13recv_with_fdsAlj1_EBa_
FN:76,_RNvMs_NtNtCs4hmKDm3KTCY_12libcontainer7process7channelNtB4_12MainReceiver27wait_for_intermediate_ready
FN:347,_RNCINvMs5_NtNtCs4hmKDm3KTCY_12libcontainer7process7channelINtB8_8ReceiverNtNtBa_7message7MessageE15recv_into_iovecAlj1_Es_0Bc_
FN:347,_RNCINvMs5_NtNtCs4hmKDm3KTCY_12libcontainer7process7channelINtB8_8ReceiverNtNtNtBc_5utils10test_utils10TestResultE15recv_into_iovecAlj0_Es_0Bc_
FN:265,_RNCNvMs4_NtNtCs4hmKDm3KTCY_12libcontainer7process7channelINtB7_6SenderNtNtNtBb_5utils10test_utils10TestResultE10send_iovec0Bb_
FN:306,_RNvMs5_NtNtCs4hmKDm3KTCY_12libcontainer7process7channelINtB5_8ReceiverNtNtNtB9_5utils10test_utils10TestResultE15peek_size_iovecB9_
FN:258,_RNvMs4_NtNtCs4hmKDm3KTCY_12libcontainer7process7channelINtB5_6SenderNtNtNtB9_5utils10test_utils10TestResultE10send_iovecB9_
FN:297,_RNvMs4_NtNtCs4hmKDm3KTCY_12libcontainer7process7channelINtB5_6SenderNtNtB7_7message7MessageE5closeB9_
FN:357,_RINvMs5_NtNtCs4hmKDm3KTCY_12libcontainer7process7channelINtB6_8ReceiverNtNtB8_7message7MessageE22recv_into_buf_with_lenAlj0_EBa_
FN:341,_RNCINvMs5_NtNtCs4hmKDm3KTCY_12libcontainer7process7channelINtB8_8ReceiverNtNtBa_7message7MessageE15recv_into_iovecAlj1_E0Bc_
FN:268,_RNvMs4_NtNtCs4hmKDm3KTCY_12libcontainer7process7channelINtB5_6SenderNtNtB7_7message7MessageE19send_slice_with_lenB9_
FN:290,_RNvMs4_NtNtCs4hmKDm3KTCY_12libcontainer7process7channelINtB5_6SenderNtNtB7_7message7MessageE8send_fdsB9_
FN:50,_RNvMNtNtCs4hmKDm3KTCY_12libcontainer7process7channelNtB2_10MainSender18intermediate_ready
FN:321,_RINvMs5_NtNtCs4hmKDm3KTCY_12libcontainer7process7channelINtB6_8ReceiverNtNtB8_7message7MessageE15recv_into_iovecAlj0_EBa_
FN:384,_RNvMs5_NtNtCs4hmKDm3KTCY_12libcontainer7process7channelINtB5_8ReceiverNtNtNtB9_5utils10test_utils10TestResultE4recvB9_
FN:239,_RNvMs3_NtNtCs4hmKDm3KTCY_12libcontainer7process7channelNtB5_12InitReceiver5close
FN:105,_RNvMs_NtNtCs4hmKDm3KTCY_12libcontainer7process7channelNtB4_12MainReceiver24wait_for_seccomp_request
FN:147,_RNvNtNtCs4hmKDm3KTCY_12libcontainer7process7channel20intermediate_channel
FN:44,_RNvMNtNtCs4hmKDm3KTCY_12libcontainer7process7channelNtB2_10MainSender22seccomp_notify_request
FN:384,_RNvMs5_NtNtCs4hmKDm3KTCY_12libcontainer7process7channelINtB5_8ReceiverNtNtB7_7message7MessageE4recvB9_
FN:400,_RNvMs5_NtNtCs4hmKDm3KTCY_12libcontainer7process7channelINtB5_8ReceiverNtNtB7_7message7MessageE5closeB9_
FN:265,_RNCNvMs4_NtNtCs4hmKDm3KTCY_12libcontainer7process7channelINtB7_6SenderNtNtB9_7message7MessageE10send_iovec0Bb_
FN:214,_RNvMs2_NtNtCs4hmKDm3KTCY_12libcontainer7process7channelNtB5_10InitSender5close
FN:321,_RINvMs5_NtNtCs4hmKDm3KTCY_12libcontainer7process7channelINtB6_8ReceiverNtNtB8_7message7MessageE15recv_into_iovecAlj1_EBa_
FN:341,_RNCINvMs5_NtNtCs4hmKDm3KTCY_12libcontainer7process7channelINtB8_8ReceiverNtNtBa_7message7MessageE15recv_into_iovecAlj0_E0Bc_
FN:405,_RINvNtNtCs4hmKDm3KTCY_12libcontainer7process7channel7channelNtNtB4_7message7MessageEB6_
FN:209,_RNvMs2_NtNtCs4hmKDm3KTCY_12libcontainer7process7channelNtB5_10InitSender19seccomp_notify_done
FN:258,_RNvMs4_NtNtCs4hmKDm3KTCY_12libcontainer7process7channelINtB5_6SenderNtNtB7_7message7MessageE10send_iovecB9_
FN:142,_RNvMs_NtNtCs4hmKDm3KTCY_12libcontainer7process7channelNtB4_12MainReceiver5close
FN:405,_RINvNtNtCs4hmKDm3KTCY_12libcontainer7process7channel7channelNtNtNtB6_5utils10test_utils10TestResultEB6_
FN:128,_RNvMs_NtNtCs4hmKDm3KTCY_12libcontainer7process7channelNtB4_12MainReceiver19wait_for_init_ready
FN:59,_RNvMNtNtCs4hmKDm3KTCY_12libcontainer7process7channelNtB2_10MainSender10init_ready
FN:24,_RNvNtNtCs4hmKDm3KTCY_12libcontainer7process7channel12main_channel
FN:36,_RNvMNtNtCs4hmKDm3KTCY_12libcontainer7process7channelNtB2_10MainSender26identifier_mapping_request
FN:283,_RNvMs4_NtNtCs4hmKDm3KTCY_12libcontainer7process7channelINtB5_6SenderNtNtB7_7message7MessageE4sendB9_
FN:167,_RNvMs0_NtNtCs4hmKDm3KTCY_12libcontainer7process7channelNtB5_18IntermediateSender5close
FN:178,_RNvMs1_NtNtCs4hmKDm3KTCY_12libcontainer7process7channelNtB5_20IntermediateReceiver20wait_for_mapping_ack
FN:160,_RNvMs0_NtNtCs4hmKDm3KTCY_12libcontainer7process7channelNtB5_18IntermediateSender15mapping_written
FN:24,_RNvNtNtCs9aHzSL9YGbd_12libcontainer7process7channel12main_channel
FN:36,_RNvMNtNtCs9aHzSL9YGbd_12libcontainer7process7channelNtB2_10MainSender26identifier_mapping_request
FN:392,_RINvMs5_NtNtCs9aHzSL9YGbd_12libcontainer7process7channelINtB6_8ReceiverNtNtB8_7message7MessageE13recv_with_fdsAlj1_EBa_
FN:306,_RNvMs5_NtNtCs9aHzSL9YGbd_12libcontainer7process7channelINtB5_8ReceiverNtNtB7_7message7MessageE15peek_size_iovecB9_
FN:268,_RNvMs4_NtNtCs9aHzSL9YGbd_12libcontainer7process7channelINtB5_6SenderNtNtB7_7message7MessageE19send_slice_with_lenB9_
FN:160,_RNvMs0_NtNtCs9aHzSL9YGbd_12libcontainer7process7channelNtB5_18IntermediateSender15mapping_written
FN:290,_RNvMs4_NtNtCs9aHzSL9YGbd_12libcontainer7process7channelINtB5_6SenderNtNtB7_7message7MessageE8send_fdsB9_
FN:105,_RNvMs_NtNtCs9aHzSL9YGbd_12libcontainer7process7channelNtB4_12MainReceiver24wait_for_seccomp_request
FN:209,_RNvMs2_NtNtCs9aHzSL9YGbd_12libcontainer7process7channelNtB5_10InitSender19seccomp_notify_done
FN:91,_RNvMs_NtNtCs9aHzSL9YGbd_12libcontainer7process7channelNtB4_12MainReceiver24wait_for_mapping_request
FN:400,_RNvMs5_NtNtCs9aHzSL9YGbd_12libcontainer7process7channelINtB5_8ReceiverNtNtB7_7message7MessageE5closeB9_
FN:321,_RINvMs5_NtNtCs9aHzSL9YGbd_12libcontainer7process7channelINtB6_8ReceiverNtNtB8_7message7MessageE15recv_into_iovecAlj1_EBa_
FN:76,_RNvMs_NtNtCs9aHzSL9YGbd_12libcontainer7process7channelNtB4_12MainReceiver27wait_for_intermediate_ready
FN:283,_RNvMs4_NtNtCs9aHzSL9YGbd_12libcontainer7process7channelINtB5_6SenderNtNtB7_7message7MessageE4sendB9_
FN:167,_RNvMs0_NtNtCs9aHzSL9YGbd_12libcontainer7process7channelNtB5_18IntermediateSender5close
FN:50,_RNvMNtNtCs9aHzSL9YGbd_12libcontainer7process7channelNtB2_10MainSender18intermediate_ready
FN:147,_RNvNtNtCs9aHzSL9YGbd_12libcontainer7process7channel20intermediate_channel
FN:142,_RNvMs_NtNtCs9aHzSL9YGbd_12libcontainer7process7channelNtB4_12MainReceiver5close
FN:384,_RNvMs5_NtNtCs9aHzSL9YGbd_12libcontainer7process7channelINtB5_8ReceiverNtNtB7_7message7MessageE4recvB9_
FN:347,_RNCINvMs5_NtNtCs9aHzSL9YGbd_12libcontainer7process7channelINtB8_8ReceiverNtNtBa_7message7MessageE15recv_into_iovecAlj0_Es_0Bc_
FN:297,_RNvMs4_NtNtCs9aHzSL9YGbd_12libcontainer7process7channelINtB5_6SenderNtNtB7_7message7MessageE5closeB9_
FN:193,_RNvMs1_NtNtCs9aHzSL9YGbd_12libcontainer7process7channelNtB5_20IntermediateReceiver5close
FN:64,_RNvMNtNtCs9aHzSL9YGbd_12libcontainer7process7channelNtB2_10MainSender5close
FN:59,_RNvMNtNtCs9aHzSL9YGbd_12libcontainer7process7channelNtB2_10MainSender10init_ready
FN:239,_RNvMs3_NtNtCs9aHzSL9YGbd_12libcontainer7process7channelNtB5_12InitReceiver5close
FN:224,_RNvMs3_NtNtCs9aHzSL9YGbd_12libcontainer7process7channelNtB5_12InitReceiver29wait_for_seccomp_request_done
FN:405,_RINvNtNtCs9aHzSL9YGbd_12libcontainer7process7channel7channelNtNtB4_7message7MessageEB6_
FN:341,_RNCINvMs5_NtNtCs9aHzSL9YGbd_12libcontainer7process7channelINtB8_8ReceiverNtNtBa_7message7MessageE15recv_into_iovecAlj1_E0Bc_
FN:347,_RNCINvMs5_NtNtCs9aHzSL9YGbd_12libcontainer7process7channelINtB8_8ReceiverNtNtBa_7message7MessageE15recv_into_iovecAlj1_Es_0Bc_
FN:357,_RINvMs5_NtNtCs9aHzSL9YGbd_12libcontainer7process7channelINtB6_8ReceiverNtNtB8_7message7MessageE22recv_into_buf_with_lenAlj0_EBa_
FN:341,_RNCINvMs5_NtNtCs9aHzSL9YGbd_12libcontainer7process7channelINtB8_8ReceiverNtNtBa_7message7MessageE15recv_into_iovecAlj0_E0Bc_
FN:198,_RNvNtNtCs9aHzSL9YGbd_12libcontainer7process7channel12init_channel
FN:258,_RNvMs4_NtNtCs9aHzSL9YGbd_12libcontainer7process7channelINtB5_6SenderNtNtB7_7message7MessageE10send_iovecB9_
FN:422,_RNvNtNtCs9aHzSL9YGbd_12libcontainer7process7channel12unix_channel
FN:128,_RNvMs_NtNtCs9aHzSL9YGbd_12libcontainer7process7channelNtB4_12MainReceiver19wait_for_init_ready
FN:265,_RNCNvMs4_NtNtCs9aHzSL9YGbd_12libcontainer7process7channelINtB7_6SenderNtNtB9_7message7MessageE10send_iovec0Bb_
FN:321,_RINvMs5_NtNtCs9aHzSL9YGbd_12libcontainer7process7channelINtB6_8ReceiverNtNtB8_7message7MessageE15recv_into_iovecAlj0_EBa_
FN:178,_RNvMs1_NtNtCs9aHzSL9YGbd_12libcontainer7process7channelNtB5_20IntermediateReceiver20wait_for_mapping_ack
FN:214,_RNvMs2_NtNtCs9aHzSL9YGbd_12libcontainer7process7channelNtB5_10InitSender5close
FN:44,_RNvMNtNtCs9aHzSL9YGbd_12libcontainer7process7channelNtB2_10MainSender22seccomp_notify_request
FN:357,_RINvMs5_NtNtCs9aHzSL9YGbd_12libcontainer7process7channelINtB6_8ReceiverNtNtB8_7message7MessageE22recv_into_buf_with_lenAlj1_EBa_
FNDA:14,_RNCNvNtNtNtCs4hmKDm3KTCY_12libcontainer7process7channel5tests23test_channel_init_ready0B9_
FNDA:0,_RNCNCNvNtNtNtCs4hmKDm3KTCY_12libcontainer7process7channel5testss_31test_channel_id_mapping_request00Bb_
FNDA:1,_RNCNvNtNtNtCs4hmKDm3KTCY_12libcontainer7process7channel5testss_23test_channel_init_ready0B9_
FNDA:14,_RNCNvNtNtNtCs4hmKDm3KTCY_12libcontainer7process7channel5tests31test_channel_main_graceful_exit0B9_
FNDA:14,_RNvNtNtNtCs4hmKDm3KTCY_12libcontainer7process7channel5testss_31test_channel_intermadiate_ready
FNDA:14,_RNvNtNtNtCs4hmKDm3KTCY_12libcontainer7process7channel5testss_27test_channel_id_mapping_ack
FNDA:14,_RNCNvNtNtNtCs4hmKDm3KTCY_12libcontainer7process7channel5tests31test_channel_id_mapping_request0B9_
FNDA:0,_RNCNCNvNtNtNtCs4hmKDm3KTCY_12libcontainer7process7channel5testss_27test_channel_id_mapping_ack00Bb_
FNDA:14,_RNCNvNtNtNtCs4hmKDm3KTCY_12libcontainer7process7channel5tests39test_channel_intermediate_graceful_exit0B9_
FNDA:14,_RNvNtNtNtCs4hmKDm3KTCY_12libcontainer7process7channel5testss_31test_channel_id_mapping_request
FNDA:14,_RNCNvNtNtNtCs4hmKDm3KTCY_12libcontainer7process7channel5tests31test_channel_intermadiate_ready0B9_
FNDA:14,_RNvNtNtNtCs4hmKDm3KTCY_12libcontainer7process7channel5testss_39test_channel_intermediate_graceful_exit
FNDA:14,_RNCNvNtNtNtCs4hmKDm3KTCY_12libcontainer7process7channel5tests27test_channel_id_mapping_ack0B9_
FNDA:0,_RNCNvNtNtNtCs4hmKDm3KTCY_12libcontainer7process7channel5testss_31test_channel_intermadiate_ready0B9_
FNDA:0,_RNCNCNvNtNtNtCs4hmKDm3KTCY_12libcontainer7process7channel5testss_31test_channel_intermadiate_ready00Bb_
FNDA:1,_RNCNvNtNtNtCs4hmKDm3KTCY_12libcontainer7process7channel5testss_31test_channel_id_mapping_request0B9_
FNDA:0,_RNCNCNvNtNtNtCs4hmKDm3KTCY_12libcontainer7process7channel5testss_23test_channel_init_ready00Bb_
FNDA:1,_RNCNvNtNtNtCs4hmKDm3KTCY_12libcontainer7process7channel5testss_27test_channel_id_mapping_ack0B9_
FNDA:8,_RNCNvNtNtNtCs4hmKDm3KTCY_12libcontainer7process7channel5testss_31test_channel_main_graceful_exit0B9_
FNDA:14,_RNvNtNtNtCs4hmKDm3KTCY_12libcontainer7process7channel5testss_23test_channel_init_ready
FNDA:9,_RNCNvNtNtNtCs4hmKDm3KTCY_12libcontainer7process7channel5testss_39test_channel_intermediate_graceful_exit0B9_
FNDA:14,_RNvNtNtNtCs4hmKDm3KTCY_12libcontainer7process7channel5testss_31test_channel_main_graceful_exit
FNDA:3,_RNvMs4_NtNtCs4hmKDm3KTCY_12libcontainer7process7channelINtB5_6SenderNtNtNtB9_5utils10test_utils10TestResultE4sendB9_
FNDA:94,_RNvMs5_NtNtCs4hmKDm3KTCY_12libcontainer7process7channelINtB5_8ReceiverNtNtB7_7message7MessageE15peek_size_iovecB9_
FNDA:0,_RNCINvMs5_NtNtCs4hmKDm3KTCY_12libcontainer7process7channelINtB8_8ReceiverNtNtBa_7message7MessageE15recv_into_iovecAlj0_Es_0Bc_
FNDA:10,_RNvMs3_NtNtCs4hmKDm3KTCY_12libcontainer7process7channelNtB5_12InitReceiver29wait_for_seccomp_request_done
FNDA:3,_RNvMs4_NtNtCs4hmKDm3KTCY_12libcontainer7process7channelINtB5_6SenderNtNtNtB9_5utils10test_utils10TestResultE19send_slice_with_lenB9_
FNDA:0,_RNCINvMs5_NtNtCs4hmKDm3KTCY_12libcontainer7process7channelINtB8_8ReceiverNtNtNtBc_5utils10test_utils10TestResultE15recv_into_iovecAlj0_E0Bc_
FNDA:10,_RNvNtNtCs4hmKDm3KTCY_12libcontainer7process7channel12init_channel
FNDA:6,_RINvMs5_NtNtCs4hmKDm3KTCY_12libcontainer7process7channelINtB6_8ReceiverNtNtNtBa_5utils10test_utils10TestResultE22recv_into_buf_with_lenAlj0_EBa_
FNDA:21,_RNvMs_NtNtCs4hmKDm3KTCY_12libcontainer7process7channelNtB4_12MainReceiver24wait_for_mapping_request
FNDA:10,_RINvMs5_NtNtCs4hmKDm3KTCY_12libcontainer7process7channelINtB6_8ReceiverNtNtB8_7message7MessageE22recv_into_buf_with_lenAlj1_EBa_
FNDA:2,_RNvMs1_NtNtCs4hmKDm3KTCY_12libcontainer7process7channelNtB5_20IntermediateReceiver5close
FNDA:6,_RINvMs5_NtNtCs4hmKDm3KTCY_12libcontainer7process7channelINtB6_8ReceiverNtNtNtBa_5utils10test_utils10TestResultE15recv_into_iovecAlj0_EBa_
FNDA:22,_RNvMNtNtCs4hmKDm3KTCY_12libcontainer7process7channelNtB2_10MainSender5close
FNDA:120,_RNvNtNtCs4hmKDm3KTCY_12libcontainer7process7channel12unix_channel
FNDA:10,_RINvMs5_NtNtCs4hmKDm3KTCY_12libcontainer7process7channelINtB6_8ReceiverNtNtB8_7message7MessageE13recv_with_fdsAlj1_EBa_
FNDA:18,_RNvMs_NtNtCs4hmKDm3KTCY_12libcontainer7process7channelNtB4_12MainReceiver27wait_for_intermediate_ready
FNDA:10,_RNCINvMs5_NtNtCs4hmKDm3KTCY_12libcontainer7process7channelINtB8_8ReceiverNtNtBa_7message7MessageE15recv_into_iovecAlj1_Es_0Bc_
FNDA:0,_RNCINvMs5_NtNtCs4hmKDm3KTCY_12libcontainer7process7channelINtB8_8ReceiverNtNtNtBc_5utils10test_utils10TestResultE15recv_into_iovecAlj0_Es_0Bc_
FNDA:0,_RNCNvMs4_NtNtCs4hmKDm3KTCY_12libcontainer7process7channelINtB7_6SenderNtNtNtBb_5utils10test_utils10TestResultE10send_iovec0Bb_
FNDA:6,_RNvMs5_NtNtCs4hmKDm3KTCY_12libcontainer7process7channelINtB5_8ReceiverNtNtNtB9_5utils10test_utils10TestResultE15peek_size_iovecB9_
FNDA:3,_RNvMs4_NtNtCs4hmKDm3KTCY_12libcontainer7process7channelINtB5_6SenderNtNtNtB9_5utils10test_utils10TestResultE10send_iovecB9_
FNDA:31,_RNvMs4_NtNtCs4hmKDm3KTCY_12libcontainer7process7channelINtB5_6SenderNtNtB7_7message7MessageE5closeB9_
FNDA:84,_RINvMs5_NtNtCs4hmKDm3KTCY_12libcontainer7process7channelINtB6_8ReceiverNtNtB8_7message7MessageE22recv_into_buf_with_lenAlj0_EBa_
FNDA:10,_RNCINvMs5_NtNtCs4hmKDm3KTCY_12libcontainer7process7channelINtB8_8ReceiverNtNtBa_7message7MessageE15recv_into_iovecAlj1_E0Bc_
FNDA:35,_RNvMs4_NtNtCs4hmKDm3KTCY_12libcontainer7process7channelINtB5_6SenderNtNtB7_7message7MessageE19send_slice_with_lenB9_
FNDA:10,_RNvMs4_NtNtCs4hmKDm3KTCY_12libcontainer7process7channelINtB5_6SenderNtNtB7_7message7MessageE8send_fdsB9_
FNDA:1,_RNvMNtNtCs4hmKDm3KTCY_12libcontainer7process7channelNtB2_10MainSender18intermediate_ready
FNDA:67,_RINvMs5_NtNtCs4hmKDm3KTCY_12libcontainer7process7channelINtB6_8ReceiverNtNtB8_7message7MessageE15recv_into_iovecAlj0_EBa_
FNDA:6,_RNvMs5_NtNtCs4hmKDm3KTCY_12libcontainer7process7channelINtB5_8ReceiverNtNtNtB9_5utils10test_utils10TestResultE4recvB9_
FNDA:0,_RNvMs3_NtNtCs4hmKDm3KTCY_12libcontainer7process7channelNtB5_12InitReceiver5close
FNDA:10,_RNvMs_NtNtCs4hmKDm3KTCY_12libcontainer7process7channelNtB4_12MainReceiver24wait_for_seccomp_request
FNDA:25,_RNvNtNtCs4hmKDm3KTCY_12libcontainer7process7channel20intermediate_channel
FNDA:10,_RNvMNtNtCs4hmKDm3KTCY_12libcontainer7process7channelNtB2_10MainSender22seccomp_notify_request
FNDA:84,_RNvMs5_NtNtCs4hmKDm3KTCY_12libcontainer7process7channelINtB5_8ReceiverNtNtB7_7message7MessageE4recvB9_
FNDA:46,_RNvMs5_NtNtCs4hmKDm3KTCY_12libcontainer7process7channelINtB5_8ReceiverNtNtB7_7message7MessageE5closeB9_
FNDA:0,_RNCNvMs4_NtNtCs4hmKDm3KTCY_12libcontainer7process7channelINtB7_6SenderNtNtB9_7message7MessageE10send_iovec0Bb_
FNDA:0,_RNvMs2_NtNtCs4hmKDm3KTCY_12libcontainer7process7channelNtB5_10InitSender5close
FNDA:10,_RINvMs5_NtNtCs4hmKDm3KTCY_12libcontainer7process7channelINtB6_8ReceiverNtNtB8_7message7MessageE15recv_into_iovecAlj1_EBa_
FNDA:0,_RNCINvMs5_NtNtCs4hmKDm3KTCY_12libcontainer7process7channelINtB8_8ReceiverNtNtBa_7message7MessageE15recv_into_iovecAlj0_E0Bc_
FNDA:111,_RINvNtNtCs4hmKDm3KTCY_12libcontainer7process7channel7channelNtNtB4_7message7MessageEB6_
FNDA:10,_RNvMs2_NtNtCs4hmKDm3KTCY_12libcontainer7process7channelNtB5_10InitSender19seccomp_notify_done
FNDA:35,_RNvMs4_NtNtCs4hmKDm3KTCY_12libcontainer7process7channelINtB5_6SenderNtNtB7_7message7MessageE10send_iovecB9_
FNDA:44,_RNvMs_NtNtCs4hmKDm3KTCY_12libcontainer7process7channelNtB4_12MainReceiver5close
FNDA:9,_RINvNtNtCs4hmKDm3KTCY_12libcontainer7process7channel7channelNtNtNtB6_5utils10test_utils10TestResultEB6_
FNDA:20,_RNvMs_NtNtCs4hmKDm3KTCY_12libcontainer7process7channelNtB4_12MainReceiver19wait_for_init_ready
FNDA:1,_RNvMNtNtCs4hmKDm3KTCY_12libcontainer7process7channelNtB2_10MainSender10init_ready
FNDA:76,_RNvNtNtCs4hmKDm3KTCY_12libcontainer7process7channel12main_channel
FNDA:3,_RNvMNtNtCs4hmKDm3KTCY_12libcontainer7process7channelNtB2_10MainSender26identifier_mapping_request
FNDA:25,_RNvMs4_NtNtCs4hmKDm3KTCY_12libcontainer7process7channelINtB5_6SenderNtNtB7_7message7MessageE4sendB9_
FNDA:9,_RNvMs0_NtNtCs4hmKDm3KTCY_12libcontainer7process7channelNtB5_18IntermediateSender5close
FNDA:15,_RNvMs1_NtNtCs4hmKDm3KTCY_12libcontainer7process7channelNtB5_20IntermediateReceiver20wait_for_mapping_ack
FNDA:10,_RNvMs0_NtNtCs4hmKDm3KTCY_12libcontainer7process7channelNtB5_18IntermediateSender15mapping_written
FNDA:0,_RNvNtNtCs9aHzSL9YGbd_12libcontainer7process7channel12main_channel
FNDA:0,_RNvMNtNtCs9aHzSL9YGbd_12libcontainer7process7channelNtB2_10MainSender26identifier_mapping_request
FNDA:0,_RINvMs5_NtNtCs9aHzSL9YGbd_12libcontainer7process7channelINtB6_8ReceiverNtNtB8_7message7MessageE13recv_with_fdsAlj1_EBa_
FNDA:0,_RNvMs5_NtNtCs9aHzSL9YGbd_12libcontainer7process7channelINtB5_8ReceiverNtNtB7_7message7MessageE15peek_size_iovecB9_
FNDA:0,_RNvMs4_NtNtCs9aHzSL9YGbd_12libcontainer7process7channelINtB5_6SenderNtNtB7_7message7MessageE19send_slice_with_lenB9_
FNDA:0,_RNvMs0_NtNtCs9aHzSL9YGbd_12libcontainer7process7channelNtB5_18IntermediateSender15mapping_written
FNDA:0,_RNvMs4_NtNtCs9aHzSL9YGbd_12libcontainer7process7channelINtB5_6SenderNtNtB7_7message7MessageE8send_fdsB9_
FNDA:0,_RNvMs_NtNtCs9aHzSL9YGbd_12libcontainer7process7channelNtB4_12MainReceiver24wait_for_seccomp_request
FNDA:0,_RNvMs2_NtNtCs9aHzSL9YGbd_12libcontainer7process7channelNtB5_10InitSender19seccomp_notify_done
FNDA:0,_RNvMs_NtNtCs9aHzSL9YGbd_12libcontainer7process7channelNtB4_12MainReceiver24wait_for_mapping_request
FNDA:0,_RNvMs5_NtNtCs9aHzSL9YGbd_12libcontainer7process7channelINtB5_8ReceiverNtNtB7_7message7MessageE5closeB9_
FNDA:0,_RINvMs5_NtNtCs9aHzSL9YGbd_12libcontainer7process7channelINtB6_8ReceiverNtNtB8_7message7MessageE15recv_into_iovecAlj1_EBa_
FNDA:0,_RNvMs_NtNtCs9aHzSL9YGbd_12libcontainer7process7channelNtB4_12MainReceiver27wait_for_intermediate_ready
FNDA:0,_RNvMs4_NtNtCs9aHzSL9YGbd_12libcontainer7process7channelINtB5_6SenderNtNtB7_7message7MessageE4sendB9_
FNDA:0,_RNvMs0_NtNtCs9aHzSL9YGbd_12libcontainer7process7channelNtB5_18IntermediateSender5close
FNDA:0,_RNvMNtNtCs9aHzSL9YGbd_12libcontainer7process7channelNtB2_10MainSender18intermediate_ready
FNDA:0,_RNvNtNtCs9aHzSL9YGbd_12libcontainer7process7channel20intermediate_channel
FNDA:0,_RNvMs_NtNtCs9aHzSL9YGbd_12libcontainer7process7channelNtB4_12MainReceiver5close
FNDA:0,_RNvMs5_NtNtCs9aHzSL9YGbd_12libcontainer7process7channelINtB5_8ReceiverNtNtB7_7message7MessageE4recvB9_
FNDA:0,_RNCINvMs5_NtNtCs9aHzSL9YGbd_12libcontainer7process7channelINtB8_8ReceiverNtNtBa_7message7MessageE15recv_into_iovecAlj0_Es_0Bc_
FNDA:0,_RNvMs4_NtNtCs9aHzSL9YGbd_12libcontainer7process7channelINtB5_6SenderNtNtB7_7message7MessageE5closeB9_
FNDA:0,_RNvMs1_NtNtCs9aHzSL9YGbd_12libcontainer7process7channelNtB5_20IntermediateReceiver5close
FNDA:0,_RNvMNtNtCs9aHzSL9YGbd_12libcontainer7process7channelNtB2_10MainSender5close
FNDA:0,_RNvMNtNtCs9aHzSL9YGbd_12libcontainer7process7channelNtB2_10MainSender10init_ready
FNDA:0,_RNvMs3_NtNtCs9aHzSL9YGbd_12libcontainer7process7channelNtB5_12InitReceiver5close
FNDA:0,_RNvMs3_NtNtCs9aHzSL9YGbd_12libcontainer7process7channelNtB5_12InitReceiver29wait_for_seccomp_request_done
FNDA:0,_RINvNtNtCs9aHzSL9YGbd_12libcontainer7process7channel7channelNtNtB4_7message7MessageEB6_
FNDA:0,_RNCINvMs5_NtNtCs9aHzSL9YGbd_12libcontainer7process7channelINtB8_8ReceiverNtNtBa_7message7MessageE15recv_into_iovecAlj1_E0Bc_
FNDA:0,_RNCINvMs5_NtNtCs9aHzSL9YGbd_12libcontainer7process7channelINtB8_8ReceiverNtNtBa_7message7MessageE15recv_into_iovecAlj1_Es_0Bc_
FNDA:0,_RINvMs5_NtNtCs9aHzSL9YGbd_12libcontainer7process7channelINtB6_8ReceiverNtNtB8_7message7MessageE22recv_into_buf_with_lenAlj0_EBa_
FNDA:0,_RNCINvMs5_NtNtCs9aHzSL9YGbd_12libcontainer7process7channelINtB8_8ReceiverNtNtBa_7message7MessageE15recv_into_iovecAlj0_E0Bc_
FNDA:0,_RNvNtNtCs9aHzSL9YGbd_12libcontainer7process7channel12init_channel
FNDA:0,_RNvMs4_NtNtCs9aHzSL9YGbd_12libcontainer7process7channelINtB5_6SenderNtNtB7_7message7MessageE10send_iovecB9_
FNDA:0,_RNvNtNtCs9aHzSL9YGbd_12libcontainer7process7channel12unix_channel
FNDA:0,_RNvMs_NtNtCs9aHzSL9YGbd_12libcontainer7process7channelNtB4_12MainReceiver19wait_for_init_ready
FNDA:0,_RNCNvMs4_NtNtCs9aHzSL9YGbd_12libcontainer7process7channelINtB7_6SenderNtNtB9_7message7MessageE10send_iovec0Bb_
FNDA:0,_RINvMs5_NtNtCs9aHzSL9YGbd_12libcontainer7process7channelINtB6_8ReceiverNtNtB8_7message7MessageE15recv_into_iovecAlj0_EBa_
FNDA:0,_RNvMs1_NtNtCs9aHzSL9YGbd_12libcontainer7process7channelNtB5_20IntermediateReceiver20wait_for_mapping_ack
FNDA:0,_RNvMs2_NtNtCs9aHzSL9YGbd_12libcontainer7process7channelNtB5_10InitSender5close
FNDA:0,_RNvMNtNtCs9aHzSL9YGbd_12libcontainer7process7channelNtB2_10MainSender22seccomp_notify_request
FNDA:0,_RINvMs5_NtNtCs9aHzSL9YGbd_12libcontainer7process7channelINtB6_8ReceiverNtNtB8_7message7MessageE22recv_into_buf_with_lenAlj1_EBa_
FNF:53
FNH:46
DA:24,76
DA:25,76
DA:26,76
DA:27,76
DA:36,3
DA:37,3
DA:38,3
DA:40,3
DA:41,3
DA:44,10
DA:45,10
DA:47,10
DA:48,10
DA:50,1
DA:51,1
DA:52,1
DA:53,1
DA:55,1
DA:56,1
DA:59,1
DA:61,1
DA:62,1
DA:64,22
DA:65,22
DA:66,22
DA:76,18
DA:77,18
DA:78,18
DA:79,18
DA:80,18
DA:82,11
DA:83,10
DA:84,0
DA:85,0
DA:86,0
DA:87,0
DA:89,17
DA:91,21
DA:92,21
DA:93,21
DA:94,21
DA:95,21
DA:96,21
DA:97,21
DA:98,0
DA:99,0
DA:100,0
DA:101,0
DA:103,21
DA:105,10
DA:106,10
DA:107,10
DA:108,10
DA:109,10
DA:111,10
DA:113,10
DA:114,10
DA:115,0
DA:117,10
DA:119,0
DA:120,0
DA:121,0
DA:122,0
DA:124,10
DA:128,20
DA:129,20
DA:130,20
DA:131,20
DA:132,20
DA:133,11
DA:134,11
DA:135,0
DA:136,0
DA:137,0
DA:138,0
DA:140,20
DA:142,44
DA:143,44
DA:144,44
DA:147,25
DA:148,25
DA:149,25
DA:150,25
DA:151,25
DA:152,25
DA:153,25
DA:160,10
DA:161,10
DA:162,10
DA:164,10
DA:165,10
DA:167,9
DA:168,9
DA:169,9
DA:178,15
DA:179,15
DA:180,15
DA:181,15
DA:182,15
DA:183,15
DA:184,15
DA:185,15
DA:186,0
DA:187,0
DA:188,0
DA:189,0
DA:191,15
DA:193,2
DA:194,2
DA:195,2
DA:198,10
DA:199,10
DA:200,10
DA:201,10
DA:209,10
DA:211,10
DA:212,10
DA:214,0
DA:215,0
DA:216,0
DA:224,10
DA:225,10
DA:226,10
DA:227,10
DA:228,10
DA:230,10
DA:231,10
DA:232,0
DA:233,0
DA:234,0
DA:235,0
DA:237,10
DA:239,0
DA:240,0
DA:241,0
DA:258,38
DA:259,38
DA:260,10
DA:262,28
DA:264,38
DA:265,38
DA:266,38
DA:268,38
DA:269,38
DA:270,38
DA:271,38
DA:272,38
DA:273,38
DA:274,38
DA:275,38
DA:276,38
DA:277,38
DA:278,38
DA:279,38
DA:280,38
DA:281,38
DA:283,28
DA:284,28
DA:285,28
DA:287,28
DA:288,28
DA:290,10
DA:291,10
DA:292,10
DA:294,10
DA:295,10
DA:297,31
DA:298,31
DA:299,31
DA:306,100
DA:307,100
DA:308,100
DA:309,100
DA:310,100
DA:311,100
DA:312,100
DA:313,100
DA:314,100
DA:315,100
DA:316,16
DA:317,83
DA:319,99
DA:321,83
DA:322,83
DA:323,83
DA:324,83
DA:325,83
DA:326,83
DA:327,83
DA:328,83
DA:329,83
DA:330,83
DA:331,83
DA:338,83
DA:339,83
DA:340,83
DA:341,10
DA:342,10
DA:344,0
DA:346,83
DA:347,83
DA:348,10
DA:349,10
DA:350,10
DA:351,10
DA:352,83
DA:353,83
DA:354,83
DA:355,83
DA:357,100
DA:358,100
DA:359,100
DA:360,100
DA:361,100
DA:362,84
DA:363,84
DA:364,84
DA:365,84
DA:366,84
DA:367,84
DA:368,84
DA:369,84
DA:370,84
DA:371,84
DA:372,84
DA:373,84
DA:374,84
DA:377,84
DA:378,0
DA:379,83
DA:381,99
DA:384,90
DA:385,90
DA:386,74
DA:387,89
DA:392,10
DA:393,10
DA:394,10
DA:395,10
DA:396,10
DA:397,10
DA:398,10
DA:400,46
DA:401,46
DA:402,46
DA:405,120
DA:406,120
DA:407,120
DA:408,120
DA:409,120
DA:410,120
DA:411,120
DA:412,120
DA:413,120
DA:414,120
DA:415,120
DA:416,120
DA:417,120
DA:418,120
DA:419,120
DA:422,120
DA:423,120
DA:424,120
DA:425,120
DA:426,120
DA:427,120
DA:428,120
DA:429,120
DA:446,14
DA:447,24
DA:455,0
DA:470,14
DA:471,15
DA:483,0
DA:492,14
DA:493,15
DA:504,0
DA:512,14
DA:513,15
DA:525,0
DA:534,14
DA:535,14
DA:557,14
DA:558,14
BRF:0
BRH:0
LF:288
LH:250
end_of_record
SF:crates/libcontainer/src/process/container_init_process.rs
FN:170,_RNvNtNtCs4hmKDm3KTCY_12libcontainer7process22container_init_process21apply_rest_namespaces
FN:56,_RNvNtNtCs4hmKDm3KTCY_12libcontainer7process22container_init_process24cleanup_file_descriptors
FN:474,_RNCNvNtNtCs4hmKDm3KTCY_12libcontainer7process22container_init_process22set_supplementary_gidss_0B7_
FN:29,_RNCNvNtNtCs4hmKDm3KTCY_12libcontainer7process22container_init_process12get_open_fdss_0B7_
FN:35,_RNCNvNtNtCs4hmKDm3KTCY_12libcontainer7process22container_init_process12get_open_fdss2_0B7_
FN:259,_RNCNvNtNtCs4hmKDm3KTCY_12libcontainer7process22container_init_process22container_init_processs3_0B7_
FN:33,_RNCNvNtNtCs4hmKDm3KTCY_12libcontainer7process22container_init_process12get_open_fdss0_0B7_
FN:276,_RNCNvNtNtCs4hmKDm3KTCY_12libcontainer7process22container_init_process22container_init_processs5_0B7_
FN:253,_RNCNvNtNtCs4hmKDm3KTCY_12libcontainer7process22container_init_process22container_init_processs2_0B7_
FN:262,_RNCNvNtNtCs4hmKDm3KTCY_12libcontainer7process22container_init_process22container_init_processs4_0B7_
FN:498,_RNvNtNtCs4hmKDm3KTCY_12libcontainer7process22container_init_process12sync_seccomp
FN:25,_RNvNtNtCs4hmKDm3KTCY_12libcontainer7process22container_init_process12get_open_fds
FN:469,_RNCNvNtNtCs4hmKDm3KTCY_12libcontainer7process22container_init_process22set_supplementary_gids0B7_
FN:74,_RNvNtNtCs4hmKDm3KTCY_12libcontainer7process22container_init_process6sysctl
FN:204,_RNCNvNtNtCs4hmKDm3KTCY_12libcontainer7process22container_init_process22container_init_process0B7_
FN:479,_RNCNvNtNtCs4hmKDm3KTCY_12libcontainer7process22container_init_process22set_supplementary_gidss0_0B7_
FN:371,_RNCNvNtNtCs4hmKDm3KTCY_12libcontainer7process22container_init_process22container_init_processs7_0B7_
FN:240,_RNCNvNtNtCs4hmKDm3KTCY_12libcontainer7process22container_init_process22container_init_processs0_0B7_
FN:244,_RNCNvNtNtCs4hmKDm3KTCY_12libcontainer7process22container_init_process22container_init_processs1_0B7_
FN:33,_RNCNCNvNtNtCs4hmKDm3KTCY_12libcontainer7process22container_init_process12get_open_fdss0_00B9_
FN:62,_RNCNvNtNtCs4hmKDm3KTCY_12libcontainer7process22container_init_process24cleanup_file_descriptorss_0B7_
FN:171,_RNCNvNtNtCs4hmKDm3KTCY_12libcontainer7process22container_init_process21apply_rest_namespaces0B7_
FN:187,_RNvNtNtCs4hmKDm3KTCY_12libcontainer7process22container_init_process22container_init_process
FN:379,_RNCNvNtNtCs4hmKDm3KTCY_12libcontainer7process22container_init_process22container_init_processs9_0B7_
FN:230,_RNCNvNtNtCs4hmKDm3KTCY_12libcontainer7process22container_init_process22container_init_processs_0B7_
FN:57,_RNCNvNtNtCs4hmKDm3KTCY_12libcontainer7process22container_init_process24cleanup_file_descriptors0B7_
FN:284,_RNCNvNtNtCs4hmKDm3KTCY_12libcontainer7process22container_init_process22container_init_processs6_0B7_
FN:34,_RNCNvNtNtCs4hmKDm3KTCY_12libcontainer7process22container_init_process12get_open_fdss1_0B7_
FN:65,_RNCNvNtNtCs4hmKDm3KTCY_12libcontainer7process22container_init_process24cleanup_file_descriptorss0_0B7_
FN:131,_RNvNtNtCs4hmKDm3KTCY_12libcontainer7process22container_init_process11masked_path
FN:174,_RNCNvNtNtCs4hmKDm3KTCY_12libcontainer7process22container_init_process21apply_rest_namespacess_0B7_
FN:95,_RNvNtNtCs4hmKDm3KTCY_12libcontainer7process22container_init_process13readonly_path
FN:84,_RNCNvNtNtCs4hmKDm3KTCY_12libcontainer7process22container_init_process6sysctl0B7_
FN:451,_RNvNtNtCs4hmKDm3KTCY_12libcontainer7process22container_init_process22set_supplementary_gids
FN:382,_RNCNvNtNtCs4hmKDm3KTCY_12libcontainer7process22container_init_process22container_init_processsa_0B7_
FN:26,_RNCNvNtNtCs4hmKDm3KTCY_12libcontainer7process22container_init_process12get_open_fds0B7_
FN:375,_RNCNvNtNtCs4hmKDm3KTCY_12libcontainer7process22container_init_process22container_init_processs8_0B7_
FN:554,_RNCNvNtNtNtCs4hmKDm3KTCY_12libcontainer7process22container_init_process5testss_29test_cleanup_file_descriptors0B9_
FN:559,_RNCNCNvNtNtNtCs4hmKDm3KTCY_12libcontainer7process22container_init_process5testss_29test_cleanup_file_descriptors00Bb_
FN:735,_RNCNvNtNtNtCs4hmKDm3KTCY_12libcontainer7process22container_init_process5tests38test_masked_path_is_file_with_no_label0B9_
FN:634,_RNvNtNtNtCs4hmKDm3KTCY_12libcontainer7process22container_init_process5testss_27test_set_supplementary_gids
FN:691,_RNCNvNtNtNtCs4hmKDm3KTCY_12libcontainer7process22container_init_process5testss_17test_sync_seccomp0B9_
FN:607,_RNvNtNtNtCs4hmKDm3KTCY_12libcontainer7process22container_init_process5testss_26test_apply_rest_namespaces
FN:606,_RNCNvNtNtNtCs4hmKDm3KTCY_12libcontainer7process22container_init_process5tests26test_apply_rest_namespaces0B9_
FN:759,_RNvNtNtNtCs4hmKDm3KTCY_12libcontainer7process22container_init_process5testss_35test_masked_path_is_file_with_label
FN:535,_RNCNCNvNtNtNtCs4hmKDm3KTCY_12libcontainer7process22container_init_process5testss_17test_get_open_fds00Bb_
FN:545,_RNCNCNvNtNtNtCs4hmKDm3KTCY_12libcontainer7process22container_init_process5testss_17test_get_open_fds0s_0Bb_
FN:569,_RNCNvNtNtNtCs4hmKDm3KTCY_12libcontainer7process22container_init_process5tests18test_readonly_path0B9_
FN:786,_RNCNvNtNtNtCs4hmKDm3KTCY_12libcontainer7process22container_init_process5tests35test_masked_path_with_unknown_error0B9_
FN:529,_RNvNtNtNtCs4hmKDm3KTCY_12libcontainer7process22container_init_process5testss_17test_get_open_fds
FN:721,_RNCNvNtNtNtCs4hmKDm3KTCY_12libcontainer7process22container_init_process5tests31test_masked_path_does_not_exist0B9_
FN:793,_RNCNvNtNtNtCs4hmKDm3KTCY_12libcontainer7process22container_init_process5testss_35test_masked_path_with_unknown_error0B9_
FN:529,_RNCNvNtNtNtCs4hmKDm3KTCY_12libcontainer7process22container_init_process5testss_17test_get_open_fds0B9_
FN:691,_RNvNtNtNtCs4hmKDm3KTCY_12libcontainer7process22container_init_process5testss_17test_sync_seccomp
FN:553,_RNCNvNtNtNtCs4hmKDm3KTCY_12libcontainer7process22container_init_process5tests29test_cleanup_file_descriptors0B9_
FN:742,_RNCNvNtNtNtCs4hmKDm3KTCY_12libcontainer7process22container_init_process5testss_38test_masked_path_is_file_with_no_label0B9_
FN:708,_RNCNCNvNtNtNtCs4hmKDm3KTCY_12libcontainer7process22container_init_process5testss_17test_sync_seccomp00Bb_
FN:787,_RNvNtNtNtCs4hmKDm3KTCY_12libcontainer7process22container_init_process5testss_35test_masked_path_with_unknown_error
FN:758,_RNCNvNtNtNtCs4hmKDm3KTCY_12libcontainer7process22container_init_process5tests35test_masked_path_is_file_with_label0B9_
FN:545,_RNCNCNCNvNtNtNtCs4hmKDm3KTCY_12libcontainer7process22container_init_process5testss_17test_get_open_fds0s_00Bd_
FN:570,_RNvNtNtNtCs4hmKDm3KTCY_12libcontainer7process22container_init_process5testss_18test_readonly_path
FN:528,_RNCNvNtNtNtCs4hmKDm3KTCY_12libcontainer7process22container_init_process5tests17test_get_open_fds0B9_
FN:633,_RNCNvNtNtNtCs4hmKDm3KTCY_12libcontainer7process22container_init_process5tests27test_set_supplementary_gids0B9_
FN:690,_RNCNvNtNtNtCs4hmKDm3KTCY_12libcontainer7process22container_init_process5tests17test_sync_seccomp0B9_
FN:554,_RNvNtNtNtCs4hmKDm3KTCY_12libcontainer7process22container_init_process5testss_29test_cleanup_file_descriptors
FN:722,_RNvNtNtNtCs4hmKDm3KTCY_12libcontainer7process22container_init_process5testss_31test_masked_path_does_not_exist
FN:736,_RNvNtNtNtCs4hmKDm3KTCY_12libcontainer7process22container_init_process5testss_38test_masked_path_is_file_with_no_label
FN:765,_RNCNvNtNtNtCs4hmKDm3KTCY_12libcontainer7process22container_init_process5testss_35test_masked_path_is_file_with_label0B9_
FN:728,_RNCNvNtNtNtCs4hmKDm3KTCY_12libcontainer7process22container_init_process5testss_31test_masked_path_does_not_exist0B9_
FN:375,_RNCNvNtNtCs9aHzSL9YGbd_12libcontainer7process22container_init_process22container_init_processs8_0B7_
FN:230,_RNCNvNtNtCs9aHzSL9YGbd_12libcontainer7process22container_init_process22container_init_processs_0B7_
FN:204,_RNCNvNtNtCs9aHzSL9YGbd_12libcontainer7process22container_init_process22container_init_process0B7_
FN:187,_RNvNtNtCs9aHzSL9YGbd_12libcontainer7process22container_init_process22container_init_process
FN:174,_RNCNvNtNtCs9aHzSL9YGbd_12libcontainer7process22container_init_process21apply_rest_namespacess_0B7_
FN:33,_RNCNCNvNtNtCs9aHzSL9YGbd_12libcontainer7process22container_init_process12get_open_fdss0_00B9_
FN:62,_RNCNvNtNtCs9aHzSL9YGbd_12libcontainer7process22container_init_process24cleanup_file_descriptorss_0B7_
FN:35,_RNCNvNtNtCs9aHzSL9YGbd_12libcontainer7process22container_init_process12get_open_fdss2_0B7_
FN:170,_RNvNtNtCs9aHzSL9YGbd_12libcontainer7process22container_init_process21apply_rest_namespaces
FN:57,_RNCNvNtNtCs9aHzSL9YGbd_12libcontainer7process22container_init_process24cleanup_file_descriptors0B7_
FN:171,_RNCNvNtNtCs9aHzSL9YGbd_12libcontainer7process22container_init_process21apply_rest_namespaces0B7_
FN:56,_RNvNtNtCs9aHzSL9YGbd_12libcontainer7process22container_init_process24cleanup_file_descriptors
FN:29,_RNCNvNtNtCs9aHzSL9YGbd_12libcontainer7process22container_init_process12get_open_fdss_0B7_
FN:25,_RNvNtNtCs9aHzSL9YGbd_12libcontainer7process22container_init_process12get_open_fds
FN:498,_RNvNtNtCs9aHzSL9YGbd_12libcontainer7process22container_init_process12sync_seccomp
FN:276,_RNCNvNtNtCs9aHzSL9YGbd_12libcontainer7process22container_init_process22container_init_processs5_0B7_
FN:253,_RNCNvNtNtCs9aHzSL9YGbd_12libcontainer7process22container_init_process22container_init_processs2_0B7_
FN:240,_RNCNvNtNtCs9aHzSL9YGbd_12libcontainer7process22container_init_process22container_init_processs0_0B7_
FN:131,_RNvNtNtCs9aHzSL9YGbd_12libcontainer7process22container_init_process11masked_path
FN:379,_RNCNvNtNtCs9aHzSL9YGbd_12libcontainer7process22container_init_process22container_init_processs9_0B7_
FN:65,_RNCNvNtNtCs9aHzSL9YGbd_12libcontainer7process22container_init_process24cleanup_file_descriptorss0_0B7_
FN:259,_RNCNvNtNtCs9aHzSL9YGbd_12libcontainer7process22container_init_process22container_init_processs3_0B7_
FN:95,_RNvNtNtCs9aHzSL9YGbd_12libcontainer7process22container_init_process13readonly_path
FN:26,_RNCNvNtNtCs9aHzSL9YGbd_12libcontainer7process22container_init_process12get_open_fds0B7_
FN:34,_RNCNvNtNtCs9aHzSL9YGbd_12libcontainer7process22container_init_process12get_open_fdss1_0B7_
FN:451,_RNvNtNtCs9aHzSL9YGbd_12libcontainer7process22container_init_process22set_supplementary_gids
FN:284,_RNCNvNtNtCs9aHzSL9YGbd_12libcontainer7process22container_init_process22container_init_processs6_0B7_
FN:479,_RNCNvNtNtCs9aHzSL9YGbd_12libcontainer7process22container_init_process22set_supplementary_gidss0_0B7_
FN:469,_RNCNvNtNtCs9aHzSL9YGbd_12libcontainer7process22container_init_process22set_supplementary_gids0B7_
FN:74,_RNvNtNtCs9aHzSL9YGbd_12libcontainer7process22container_init_process6sysctl
FN:474,_RNCNvNtNtCs9aHzSL9YGbd_12libcontainer7process22container_init_process22set_supplementary_gidss_0B7_
FN:382,_RNCNvNtNtCs9aHzSL9YGbd_12libcontainer7process22container_init_process22container_init_processsa_0B7_
FN:84,_RNCNvNtNtCs9aHzSL9YGbd_12libcontainer7process22container_init_process6sysctl0B7_
FN:244,_RNCNvNtNtCs9aHzSL9YGbd_12libcontainer7process22container_init_process22container_init_processs1_0B7_
FN:33,_RNCNvNtNtCs9aHzSL9YGbd_12libcontainer7process22container_init_process12get_open_fdss0_0B7_
FN:371,_RNCNvNtNtCs9aHzSL9YGbd_12libcontainer7process22container_init_process22container_init_processs7_0B7_
FN:262,_RNCNvNtNtCs9aHzSL9YGbd_12libcontainer7process22container_init_process22container_init_processs4_0B7_
FNDA:13,_RNvNtNtCs4hmKDm3KTCY_12libcontainer7process22container_init_process21apply_rest_namespaces
FNDA:7,_RNvNtNtCs4hmKDm3KTCY_12libcontainer7process22container_init_process24cleanup_file_descriptors
FNDA:0,_RNCNvNtNtCs4hmKDm3KTCY_12libcontainer7process22container_init_process22set_supplementary_gidss_0B7_
FNDA:169,_RNCNvNtNtCs4hmKDm3KTCY_12libcontainer7process22container_init_process12get_open_fdss_0B7_
FNDA:169,_RNCNvNtNtCs4hmKDm3KTCY_12libcontainer7process22container_init_process12get_open_fdss2_0B7_
FNDA:0,_RNCNvNtNtCs4hmKDm3KTCY_12libcontainer7process22container_init_process22container_init_processs3_0B7_
FNDA:169,_RNCNvNtNtCs4hmKDm3KTCY_12libcontainer7process22container_init_process12get_open_fdss0_0B7_
FNDA:0,_RNCNvNtNtCs4hmKDm3KTCY_12libcontainer7process22container_init_process22container_init_processs5_0B7_
FNDA:0,_RNCNvNtNtCs4hmKDm3KTCY_12libcontainer7process22container_init_process22container_init_processs2_0B7_
FNDA:0,_RNCNvNtNtCs4hmKDm3KTCY_12libcontainer7process22container_init_process22container_init_processs4_0B7_
FNDA:6,_RNvNtNtCs4hmKDm3KTCY_12libcontainer7process22container_init_process12sync_seccomp
FNDA:13,_RNvNtNtCs4hmKDm3KTCY_12libcontainer7process22container_init_process12get_open_fds
FNDA:48,_RNCNvNtNtCs4hmKDm3KTCY_12libcontainer7process22container_init_process22set_supplementary_gids0B7_
FNDA:0,_RNvNtNtCs4hmKDm3KTCY_12libcontainer7process22container_init_process6sysctl
FNDA:0,_RNCNvNtNtCs4hmKDm3KTCY_12libcontainer7process22container_init_process22container_init_process0B7_
FNDA:0,_RNCNvNtNtCs4hmKDm3KTCY_12libcontainer7process22container_init_process22set_supplementary_gidss0_0B7_
FNDA:0,_RNCNvNtNtCs4hmKDm3KTCY_12libcontainer7process22container_init_process22container_init_processs7_0B7_
FNDA:0,_RNCNvNtNtCs4hmKDm3KTCY_12libcontainer7process22container_init_process22container_init_processs0_0B7_
FNDA:0,_RNCNvNtNtCs4hmKDm3KTCY_12libcontainer7process22container_init_process22container_init_processs1_0B7_
FNDA:169,_RNCNCNvNtNtCs4hmKDm3KTCY_12libcontainer7process22container_init_process12get_open_fdss0_00B9_
FNDA:91,_RNCNvNtNtCs4hmKDm3KTCY_12libcontainer7process22container_init_process24cleanup_file_descriptorss_0B7_
FNDA:26,_RNCNvNtNtCs4hmKDm3KTCY_12libcontainer7process22container_init_process21apply_rest_namespaces0B7_
FNDA:0,_RNvNtNtCs4hmKDm3KTCY_12libcontainer7process22container_init_process22container_init_process
FNDA:0,_RNCNvNtNtCs4hmKDm3KTCY_12libcontainer7process22container_init_process22container_init_processs9_0B7_
FNDA:0,_RNCNvNtNtCs4hmKDm3KTCY_12libcontainer7process22container_init_process22container_init_processs_0B7_
FNDA:0,_RNCNvNtNtCs4hmKDm3KTCY_12libcontainer7process22container_init_process24cleanup_file_descriptors0B7_
FNDA:0,_RNCNvNtNtCs4hmKDm3KTCY_12libcontainer7process22container_init_process22container_init_processs6_0B7_
FNDA:169,_RNCNvNtNtCs4hmKDm3KTCY_12libcontainer7process22container_init_process12get_open_fdss1_0B7_
FNDA:21,_RNCNvNtNtCs4hmKDm3KTCY_12libcontainer7process22container_init_process24cleanup_file_descriptorss0_0B7_
FNDA:48,_RNvNtNtCs4hmKDm3KTCY_12libcontainer7process22container_init_process11masked_path
FNDA:0,_RNCNvNtNtCs4hmKDm3KTCY_12libcontainer7process22container_init_process21apply_rest_namespacess_0B7_
FNDA:0,_RNvNtNtCs4hmKDm3KTCY_12libcontainer7process22container_init_process13readonly_path
FNDA:0,_RNCNvNtNtCs4hmKDm3KTCY_12libcontainer7process22container_init_process6sysctl0B7_
FNDA:48,_RNvNtNtCs4hmKDm3KTCY_12libcontainer7process22container_init_process22set_supplementary_gids
FNDA:0,_RNCNvNtNtCs4hmKDm3KTCY_12libcontainer7process22container_init_process22container_init_processsa_0B7_
FNDA:0,_RNCNvNtNtCs4hmKDm3KTCY_12libcontainer7process22container_init_process12get_open_fds0B7_
FNDA:0,_RNCNvNtNtCs4hmKDm3KTCY_12libcontainer7process22container_init_process22container_init_processs8_0B7_
FNDA:0,_RNCNvNtNtNtCs4hmKDm3KTCY_12libcontainer7process22container_init_process5testss_29test_cleanup_file_descriptors0B9_
FNDA:0,_RNCNCNvNtNtNtCs4hmKDm3KTCY_12libcontainer7process22container_init_process5testss_29test_cleanup_file_descriptors00Bb_
FNDA:12,_RNCNvNtNtNtCs4hmKDm3KTCY_12libcontainer7process22container_init_process5tests38test_masked_path_is_file_with_no_label0B9_
FNDA:12,_RNvNtNtNtCs4hmKDm3KTCY_12libcontainer7process22container_init_process5testss_27test_set_supplementary_gids
FNDA:0,_RNCNvNtNtNtCs4hmKDm3KTCY_12libcontainer7process22container_init_process5testss_17test_sync_seccomp0B9_
FNDA:14,_RNvNtNtNtCs4hmKDm3KTCY_12libcontainer7process22container_init_process5testss_26test_apply_rest_namespaces
FNDA:14,_RNCNvNtNtNtCs4hmKDm3KTCY_12libcontainer7process22container_init_process5tests26test_apply_rest_namespaces0B9_
FNDA:12,_RNvNtNtNtCs4hmKDm3KTCY_12libcontainer7process22container_init_process5testss_35test_masked_path_is_file_with_label
FNDA:54,_RNCNCNvNtNtNtCs4hmKDm3KTCY_12libcontainer7process22container_init_process5testss_17test_get_open_fds00Bb_
FNDA:18,_RNCNCNvNtNtNtCs4hmKDm3KTCY_12libcontainer7process22container_init_process5testss_17test_get_open_fds0s_0Bb_
FNDA:12,_RNCNvNtNtNtCs4hmKDm3KTCY_12libcontainer7process22container_init_process5tests18test_readonly_path0B9_
FNDA:12,_RNCNvNtNtNtCs4hmKDm3KTCY_12libcontainer7process22container_init_process5tests35test_masked_path_with_unknown_error0B9_
FNDA:13,_RNvNtNtNtCs4hmKDm3KTCY_12libcontainer7process22container_init_process5testss_17test_get_open_fds
FNDA:12,_RNCNvNtNtNtCs4hmKDm3KTCY_12libcontainer7process22container_init_process5tests31test_masked_path_does_not_exist0B9_
FNDA:12,_RNCNvNtNtNtCs4hmKDm3KTCY_12libcontainer7process22container_init_process5testss_35test_masked_path_with_unknown_error0B9_
FNDA:0,_RNCNvNtNtNtCs4hmKDm3KTCY_12libcontainer7process22container_init_process5testss_17test_get_open_fds0B9_
FNDA:11,_RNvNtNtNtCs4hmKDm3KTCY_12libcontainer7process22container_init_process5testss_17test_sync_seccomp
FNDA:13,_RNCNvNtNtNtCs4hmKDm3KTCY_12libcontainer7process22container_init_process5tests29test_cleanup_file_descriptors0B9_
FNDA:12,_RNCNvNtNtNtCs4hmKDm3KTCY_12libcontainer7process22container_init_process5testss_38test_masked_path_is_file_with_no_label0B9_
FNDA:6,_RNCNCNvNtNtNtCs4hmKDm3KTCY_12libcontainer7process22container_init_process5testss_17test_sync_seccomp00Bb_
FNDA:12,_RNvNtNtNtCs4hmKDm3KTCY_12libcontainer7process22container_init_process5testss_35test_masked_path_with_unknown_error
FNDA:12,_RNCNvNtNtNtCs4hmKDm3KTCY_12libcontainer7process22container_init_process5tests35test_masked_path_is_file_with_label0B9_
FNDA:36,_RNCNCNCNvNtNtNtCs4hmKDm3KTCY_12libcontainer7process22container_init_process5testss_17test_get_open_fds0s_00Bd_
FNDA:12,_RNvNtNtNtCs4hmKDm3KTCY_12libcontainer7process22container_init_process5testss_18test_readonly_path
FNDA:13,_RNCNvNtNtNtCs4hmKDm3KTCY_12libcontainer7process22container_init_process5tests17test_get_open_fds0B9_
FNDA:12,_RNCNvNtNtNtCs4hmKDm3KTCY_12libcontainer7process22container_init_process5tests27test_set_supplementary_gids0B9_
FNDA:11,_RNCNvNtNtNtCs4hmKDm3KTCY_12libcontainer7process22container_init_process5tests17test_sync_seccomp0B9_
FNDA:13,_RNvNtNtNtCs4hmKDm3KTCY_12libcontainer7process22container_init_process5testss_29test_cleanup_file_descriptors
FNDA:12,_RNvNtNtNtCs4hmKDm3KTCY_12libcontainer7process22container_init_process5testss_31test_masked_path_does_not_exist
FNDA:12,_RNvNtNtNtCs4hmKDm3KTCY_12libcontainer7process22container_init_process5testss_38test_masked_path_is_file_with_no_label
FNDA:12,_RNCNvNtNtNtCs4hmKDm3KTCY_12libcontainer7process22container_init_process5testss_35test_masked_path_is_file_with_label0B9_
FNDA:12,_RNCNvNtNtNtCs4hmKDm3KTCY_12libcontainer7process22container_init_process5testss_31test_masked_path_does_not_exist0B9_
FNDA:0,_RNCNvNtNtCs9aHzSL9YGbd_12libcontainer7process22container_init_process22container_init_processs8_0B7_
FNDA:0,_RNCNvNtNtCs9aHzSL9YGbd_12libcontainer7process22container_init_process22container_init_processs_0B7_
FNDA:0,_RNCNvNtNtCs9aHzSL9YGbd_12libcontainer7process22container_init_process22container_init_process0B7_
FNDA:0,_RNvNtNtCs9aHzSL9YGbd_12libcontainer7process22container_init_process22container_init_process
FNDA:0,_RNCNvNtNtCs9aHzSL9YGbd_12libcontainer7process22container_init_process21apply_rest_namespacess_0B7_
FNDA:0,_RNCNCNvNtNtCs9aHzSL9YGbd_12libcontainer7process22container_init_process12get_open_fdss0_00B9_
FNDA:0,_RNCNvNtNtCs9aHzSL9YGbd_12libcontainer7process22container_init_process24cleanup_file_descriptorss_0B7_
FNDA:0,_RNCNvNtNtCs9aHzSL9YGbd_12libcontainer7process22container_init_process12get_open_fdss2_0B7_
FNDA:0,_RNvNtNtCs9aHzSL9YGbd_12libcontainer7process22container_init_process21apply_rest_namespaces
FNDA:0,_RNCNvNtNtCs9aHzSL9YGbd_12libcontainer7process22container_init_process24cleanup_file_descriptors0B7_
FNDA:0,_RNCNvNtNtCs9aHzSL9YGbd_12libcontainer7process22container_init_process21apply_rest_namespaces0B7_
FNDA:0,_RNvNtNtCs9aHzSL9YGbd_12libcontainer7process22container_init_process24cleanup_file_descriptors
FNDA:0,_RNCNvNtNtCs9aHzSL9YGbd_12libcontainer7process22container_init_process12get_open_fdss_0B7_
FNDA:0,_RNvNtNtCs9aHzSL9YGbd_12libcontainer7process22container_init_process12get_open_fds
FNDA:0,_RNvNtNtCs9aHzSL9YGbd_12libcontainer7process22container_init_process12sync_seccomp
FNDA:0,_RNCNvNtNtCs9aHzSL9YGbd_12libcontainer7process22container_init_process22container_init_processs5_0B7_
FNDA:0,_RNCNvNtNtCs9aHzSL9YGbd_12libcontainer7process22container_init_process22container_init_processs2_0B7_
FNDA:0,_RNCNvNtNtCs9aHzSL9YGbd_12libcontainer7process22container_init_process22container_init_processs0_0B7_
FNDA:0,_RNvNtNtCs9aHzSL9YGbd_12libcontainer7process22container_init_process11masked_path
FNDA:0,_RNCNvNtNtCs9aHzSL9YGbd_12libcontainer7process22container_init_process22container_init_processs9_0B7_
FNDA:0,_RNCNvNtNtCs9aHzSL9YGbd_12libcontainer7process22container_init_process24cleanup_file_descriptorss0_0B7_
FNDA:0,_RNCNvNtNtCs9aHzSL9YGbd_12libcontainer7process22container_init_process22container_init_processs3_0B7_
FNDA:0,_RNvNtNtCs9aHzSL9YGbd_12libcontainer7process22container_init_process13readonly_path
FNDA:0,_RNCNvNtNtCs9aHzSL9YGbd_12libcontainer7process22container_init_process12get_open_fds0B7_
FNDA:0,_RNCNvNtNtCs9aHzSL9YGbd_12libcontainer7process22container_init_process12get_open_fdss1_0B7_
FNDA:0,_RNvNtNtCs9aHzSL9YGbd_12libcontainer7process22container_init_process22set_supplementary_gids
FNDA:0,_RNCNvNtNtCs9aHzSL9YGbd_12libcontainer7process22container_init_process22container_init_processs6_0B7_
FNDA:0,_RNCNvNtNtCs9aHzSL9YGbd_12libcontainer7process22container_init_process22set_supplementary_gidss0_0B7_
FNDA:0,_RNCNvNtNtCs9aHzSL9YGbd_12libcontainer7process22container_init_process22set_supplementary_gids0B7_
FNDA:0,_RNvNtNtCs9aHzSL9YGbd_12libcontainer7process22container_init_process6sysctl
FNDA:0,_RNCNvNtNtCs9aHzSL9YGbd_12libcontainer7process22container_init_process22set_supplementary_gidss_0B7_
FNDA:0,_RNCNvNtNtCs9aHzSL9YGbd_12libcontainer7process22container_init_process22container_init_processsa_0B7_
FNDA:0,_RNCNvNtNtCs9aHzSL9YGbd_12libcontainer7process22container_init_process6sysctl0B7_
FNDA:0,_RNCNvNtNtCs9aHzSL9YGbd_12libcontainer7process22container_init_process22container_init_processs1_0B7_
FNDA:0,_RNCNvNtNtCs9aHzSL9YGbd_12libcontainer7process22container_init_process12get_open_fdss0_0B7_
FNDA:0,_RNCNvNtNtCs9aHzSL9YGbd_12libcontainer7process22container_init_process22container_init_processs7_0B7_
FNDA:0,_RNCNvNtNtCs9aHzSL9YGbd_12libcontainer7process22container_init_process22container_init_processs4_0B7_
FNF:66
FNH:43
DA:25,13
DA:26,13
DA:28,13
DA:29,169
DA:30,169
DA:31,0
DA:32,169
DA:33,169
DA:34,169
DA:35,169
DA:36,169
DA:37,169
DA:38,169
DA:39,169
DA:40,169
DA:41,0
DA:43,169
DA:44,13
DA:45,13
DA:46,13
DA:47,13
DA:56,7
DA:57,7
DA:59,7
DA:60,7
DA:61,7
DA:62,91
DA:63,7
DA:64,7
DA:65,21
DA:66,21
DA:67,21
DA:68,21
DA:69,21
DA:70,7
DA:71,7
DA:72,7
DA:74,0
DA:75,0
DA:76,0
DA:77,0
DA:78,0
DA:79,0
DA:80,0
DA:81,0
DA:83,0
DA:84,0
DA:87,0
DA:88,0
DA:95,12
DA:96,12
DA:97,12
DA:98,12
DA:99,12
DA:100,12
DA:101,12
DA:102,0
DA:104,0
DA:105,0
DA:106,0
DA:107,0
DA:108,0
DA:109,12
DA:110,12
DA:111,12
DA:112,12
DA:113,12
DA:114,12
DA:115,12
DA:116,12
DA:117,12
DA:118,12
DA:119,12
DA:120,12
DA:121,12
DA:122,12
DA:124,12
DA:125,12
DA:126,12
DA:131,48
DA:132,48
DA:133,48
DA:134,48
DA:135,48
DA:136,48
DA:137,48
DA:138,48
DA:139,36
DA:140,12
DA:141,24
DA:142,24
DA:143,12
DA:144,12
DA:146,24
DA:147,24
DA:148,24
DA:149,24
DA:150,24
DA:151,24
DA:152,24
DA:153,0
DA:155,12
DA:157,0
DA:158,36
DA:159,48
DA:170,13
DA:171,26
DA:172,26
DA:173,26
DA:174,13
DA:177,13
DA:178,13
DA:179,13
DA:180,13
DA:181,0
DA:182,0
DA:183,0
DA:184,13
DA:185,13
DA:187,0
DA:188,0
DA:189,0
DA:190,0
DA:191,0
DA:192,0
DA:193,0
DA:194,0
DA:195,0
DA:196,0
DA:197,0
DA:198,0
DA:199,0
DA:200,0
DA:203,0
DA:204,0
DA:205,0
DA:207,0
DA:209,0
DA:210,0
DA:211,0
DA:213,0
DA:216,0
DA:217,0
DA:218,0
DA:219,0
DA:221,0
DA:222,0
DA:223,0
DA:224,0
DA:225,0
DA:226,0
DA:227,0
DA:228,0
DA:229,0
DA:230,0
DA:236,0
DA:238,0
DA:239,0
DA:240,0
DA:242,0
DA:243,0
DA:244,0
DA:247,0
DA:248,0
DA:249,0
DA:251,0
DA:252,0
DA:253,0
DA:254,0
DA:255,0
DA:257,0
DA:258,0
DA:259,0
DA:260,0
DA:262,0
DA:263,0
DA:264,0
DA:265,0
DA:266,0
DA:267,0
DA:268,0
DA:269,0
DA:270,0
DA:272,0
DA:274,0
DA:275,0
DA:276,0
DA:278,0
DA:280,0
DA:282,0
DA:283,0
DA:284,0
DA:286,0
DA:288,0
DA:289,0
DA:290,0
DA:295,0
DA:296,0
DA:297,0
DA:298,0
DA:302,0
DA:303,0
DA:305,0
DA:306,0
DA:307,0
DA:308,0
DA:309,0
DA:310,0
DA:315,0
DA:316,0
DA:317,0
DA:318,0
DA:319,0
DA:320,0
DA:321,0
DA:322,0
DA:324,0
DA:325,0
DA:326,0
DA:327,0
DA:332,0
DA:333,0
DA:334,0
DA:335,0
DA:336,0
DA:337,0
DA:338,0
DA:339,0
DA:342,0
DA:350,0
DA:351,0
DA:352,0
DA:353,0
DA:354,0
DA:355,0
DA:357,0
DA:359,0
DA:360,0
DA:361,0
DA:362,0
DA:363,0
DA:365,0
DA:371,0
DA:374,0
DA:375,0
DA:376,0
DA:379,0
DA:380,0
DA:381,0
DA:382,0
DA:387,0
DA:388,0
DA:389,0
DA:390,0
DA:391,0
DA:392,0
DA:393,0
DA:394,0
DA:400,0
DA:401,0
DA:402,0
DA:403,0
DA:406,0
DA:410,0
DA:411,0
DA:412,0
DA:413,0
DA:414,0
DA:416,0
DA:417,0
DA:419,0
DA:424,0
DA:425,0
DA:451,48
DA:452,48
DA:453,48
DA:454,48
DA:455,48
DA:456,48
DA:457,24
DA:458,0
DA:459,24
DA:461,24
DA:462,24
DA:463,24
DA:464,0
DA:465,24
DA:466,24
DA:467,24
DA:468,24
DA:469,48
DA:470,24
DA:472,12
DA:473,12
DA:474,12
DA:475,0
DA:476,12
DA:479,12
DA:480,0
DA:481,12
DA:484,0
DA:485,0
DA:486,0
DA:488,24
DA:490,48
DA:491,48
DA:498,6
DA:499,6
DA:500,6
DA:501,6
DA:505,6
DA:506,0
DA:508,6
DA:509,6
DA:528,13
DA:529,19
DA:535,54
DA:545,36
DA:553,13
DA:554,20
DA:559,0
DA:569,12
DA:570,12
DA:571,12
DA:572,12
DA:574,12
DA:575,12
DA:576,12
DA:577,12
DA:578,12
DA:579,12
DA:580,12
DA:581,12
DA:582,12
DA:583,12
DA:584,12
DA:585,12
DA:586,12
DA:587,12
DA:588,12
DA:589,12
DA:590,12
DA:591,12
DA:592,12
DA:593,12
DA:594,12
DA:595,12
DA:596,12
DA:597,12
DA:598,12
DA:599,12
DA:600,12
DA:601,12
DA:602,12
DA:603,12
DA:604,12
DA:606,14
DA:607,14
DA:608,14
DA:609,14
DA:610,14
DA:611,14
DA:612,14
DA:613,14
DA:614,14
DA:615,14
DA:616,14
DA:618,14
DA:619,14
DA:620,14
DA:622,14
DA:623,14
DA:624,14
DA:625,14
DA:626,14
DA:627,14
DA:628,14
DA:629,14
DA:630,13
DA:631,13
DA:633,12
DA:634,12
DA:635,12
DA:636,12
DA:637,12
DA:639,12
DA:640,12
DA:641,12
DA:642,12
DA:643,12
DA:644,12
DA:645,12
DA:646,12
DA:647,12
DA:648,12
DA:649,12
DA:650,12
DA:651,12
DA:652,12
DA:653,12
DA:654,12
DA:655,12
DA:656,12
DA:657,12
DA:658,12
DA:659,12
DA:660,12
DA:661,12
DA:662,12
DA:663,12
DA:664,12
DA:665,12
DA:668,36
DA:669,36
DA:670,36
DA:671,36
DA:672,36
DA:673,0
DA:675,36
DA:676,36
DA:677,36
DA:678,36
DA:679,36
DA:680,36
DA:681,36
DA:682,36
DA:684,0
DA:687,12
DA:688,12
DA:690,11
DA:691,17
DA:708,6
DA:709,6
DA:710,6
DA:711,6
DA:721,12
DA:722,12
DA:723,12
DA:724,12
DA:725,12
DA:726,12
DA:727,12
DA:728,12
DA:729,12
DA:730,12
DA:731,12
DA:732,12
DA:733,12
DA:735,12
DA:736,12
DA:737,12
DA:738,12
DA:739,12
DA:740,12
DA:741,12
DA:742,12
DA:743,12
DA:744,12
DA:746,12
DA:747,12
DA:748,12
DA:749,12
DA:750,12
DA:751,12
DA:752,12
DA:753,12
DA:754,12
DA:755,12
DA:756,12
DA:758,12
DA:759,12
DA:760,12
DA:761,12
DA:762,12
DA:763,12
DA:764,12
DA:765,12
DA:766,12
DA:767,12
DA:768,12
DA:769,12
DA:770,12
DA:771,12
DA:772,12
DA:774,12
DA:775,12
DA:776,12
DA:777,12
DA:778,12
DA:779,12
DA:780,12
DA:781,12
DA:782,12
DA:783,12
DA:784,12
DA:786,12
DA:787,12
DA:788,12
DA:789,12
DA:790,12
DA:791,12
DA:792,12
DA:793,12
DA:794,12
DA:795,12
DA:796,12
DA:797,12
DA:798,12
BRF:0
BRH:0
LF:547
LH:336
end_of_record
SF:crates/libcontainer/src/process/container_intermediate_process.rs
FN:178,_RNvNtNtNtCs4hmKDm3KTCY_12libcontainer7process30container_intermediate_process5testss_19apply_cgroup_tenant
FN:158,_RNCNvNtNtNtCs4hmKDm3KTCY_12libcontainer7process30container_intermediate_process5tests17apply_cgroup_init0B9_
FN:196,_RNvNtNtNtCs4hmKDm3KTCY_12libcontainer7process30container_intermediate_process5testss_25apply_cgroup_no_resources
FN:195,_RNCNvNtNtNtCs4hmKDm3KTCY_12libcontainer7process30container_intermediate_process5tests25apply_cgroup_no_resources0B9_
FN:177,_RNCNvNtNtNtCs4hmKDm3KTCY_12libcontainer7process30container_intermediate_process5tests19apply_cgroup_tenant0B9_
FN:159,_RNvNtNtNtCs4hmKDm3KTCY_12libcontainer7process30container_intermediate_process5testss_17apply_cgroup_init
FN:49,_RNCNvNtNtCs4hmKDm3KTCY_12libcontainer7process30container_intermediate_process30container_intermediate_process0B7_
FN:129,_RNCINvNtNtCs4hmKDm3KTCY_12libcontainer7process30container_intermediate_process13apply_cgroupsNtNtCs6dyzbgxNKb8_10libcgroups12test_manager11TestManagerE0B8_
FN:92,_RNCNvNtNtCs4hmKDm3KTCY_12libcontainer7process30container_intermediate_process30container_intermediate_processs0_0B7_
FN:121,_RINvNtNtCs4hmKDm3KTCY_12libcontainer7process30container_intermediate_process13apply_cgroupsNtNtCs6dyzbgxNKb8_10libcgroups12test_manager11TestManagerEB6_
FN:12,_RNvNtNtCs4hmKDm3KTCY_12libcontainer7process30container_intermediate_process30container_intermediate_process
FN:83,_RNCNvNtNtCs4hmKDm3KTCY_12libcontainer7process30container_intermediate_process30container_intermediate_processs_0B7_
FN:92,_RNCNvNtNtCs9aHzSL9YGbd_12libcontainer7process30container_intermediate_process30container_intermediate_processs0_0B7_
FN:12,_RNvNtNtCs9aHzSL9YGbd_12libcontainer7process30container_intermediate_process30container_intermediate_process
FN:83,_RNCNvNtNtCs9aHzSL9YGbd_12libcontainer7process30container_intermediate_process30container_intermediate_processs_0B7_
FN:121,_RINvNtNtCs9aHzSL9YGbd_12libcontainer7process30container_intermediate_process13apply_cgroupsDNtNtCs6dyzbgxNKb8_10libcgroups6common13CgroupManagerEL_EB6_
FN:129,_RNCINvNtNtCs9aHzSL9YGbd_12libcontainer7process30container_intermediate_process13apply_cgroupsDNtNtCs6dyzbgxNKb8_10libcgroups6common13CgroupManagerEL_E0B8_
FN:49,_RNCNvNtNtCs9aHzSL9YGbd_12libcontainer7process30container_intermediate_process30container_intermediate_process0B7_
FNDA:11,_RNvNtNtNtCs4hmKDm3KTCY_12libcontainer7process30container_intermediate_process5testss_19apply_cgroup_tenant
FNDA:11,_RNCNvNtNtNtCs4hmKDm3KTCY_12libcontainer7process30container_intermediate_process5tests17apply_cgroup_init0B9_
FNDA:11,_RNvNtNtNtCs4hmKDm3KTCY_12libcontainer7process30container_intermediate_process5testss_25apply_cgroup_no_resources
FNDA:11,_RNCNvNtNtNtCs4hmKDm3KTCY_12libcontainer7process30container_intermediate_process5tests25apply_cgroup_no_resources0B9_
FNDA:11,_RNCNvNtNtNtCs4hmKDm3KTCY_12libcontainer7process30container_intermediate_process5tests19apply_cgroup_tenant0B9_
FNDA:11,_RNvNtNtNtCs4hmKDm3KTCY_12libcontainer7process30container_intermediate_process5testss_17apply_cgroup_init
FNDA:0,_RNCNvNtNtCs4hmKDm3KTCY_12libcontainer7process30container_intermediate_process30container_intermediate_process0B7_
FNDA:0,_RNCINvNtNtCs4hmKDm3KTCY_12libcontainer7process30container_intermediate_process13apply_cgroupsNtNtCs6dyzbgxNKb8_10libcgroups12test_manager11TestManagerE0B8_
FNDA:0,_RNCNvNtNtCs4hmKDm3KTCY_12libcontainer7process30container_intermediate_process30container_intermediate_processs0_0B7_
FNDA:33,_RINvNtNtCs4hmKDm3KTCY_12libcontainer7process30container_intermediate_process13apply_cgroupsNtNtCs6dyzbgxNKb8_10libcgroups12test_manager11TestManagerEB6_
FNDA:0,_RNvNtNtCs4hmKDm3KTCY_12libcontainer7process30container_intermediate_process30container_intermediate_process
FNDA:0,_RNCNvNtNtCs4hmKDm3KTCY_12libcontainer7process30container_intermediate_process30container_intermediate_processs_0B7_
FNDA:0,_RNCNvNtNtCs9aHzSL9YGbd_12libcontainer7process30container_intermediate_process30container_intermediate_processs0_0B7_
FNDA:0,_RNvNtNtCs9aHzSL9YGbd_12libcontainer7process30container_intermediate_process30container_intermediate_process
FNDA:0,_RNCNvNtNtCs9aHzSL9YGbd_12libcontainer7process30container_intermediate_process30container_intermediate_processs_0B7_
FNDA:0,_RINvNtNtCs9aHzSL9YGbd_12libcontainer7process30container_intermediate_process13apply_cgroupsDNtNtCs6dyzbgxNKb8_10libcgroups6common13CgroupManagerEL_EB6_
FNDA:0,_RNCINvNtNtCs9aHzSL9YGbd_12libcontainer7process30container_intermediate_process13apply_cgroupsDNtNtCs6dyzbgxNKb8_10libcgroups6common13CgroupManagerEL_E0B8_
FNDA:0,_RNCNvNtNtCs9aHzSL9YGbd_12libcontainer7process30container_intermediate_process30container_intermediate_process0B7_
FNF:12
FNH:7
DA:12,0
DA:13,0
DA:14,0
DA:15,0
DA:16,0
DA:17,0
DA:18,0
DA:19,0
DA:20,0
DA:21,0
DA:22,0
DA:23,0
DA:24,0
DA:25,0
DA:26,0
DA:27,0
DA:28,0
DA:29,0
DA:30,0
DA:31,0
DA:32,0
DA:33,0
DA:34,0
DA:35,0
DA:36,0
DA:37,0
DA:38,0
DA:39,0
DA:40,0
DA:46,0
DA:47,0
DA:48,0
DA:49,0
DA:50,0
DA:51,0
DA:54,0
DA:55,0
DA:56,0
DA:57,0
DA:58,0
DA:66,0
DA:67,0
DA:68,0
DA:69,0
DA:72,0
DA:73,0
DA:74,0
DA:75,0
DA:77,0
DA:80,0
DA:81,0
DA:82,0
DA:83,0
DA:84,0
DA:89,0
DA:92,0
DA:93,0
DA:94,0
DA:95,0
DA:96,0
DA:97,0
DA:98,0
DA:99,0
DA:103,0
DA:104,0
DA:105,0
DA:108,0
DA:109,0
DA:110,0
DA:111,0
DA:112,0
DA:113,0
DA:114,0
DA:115,0
DA:116,0
DA:118,0
DA:119,0
DA:121,33
DA:122,33
DA:123,33
DA:124,33
DA:125,33
DA:126,33
DA:127,33
DA:128,33
DA:129,33
DA:131,33
DA:132,22
DA:133,11
DA:134,11
DA:135,11
DA:136,11
DA:137,11
DA:138,11
DA:139,11
DA:140,11
DA:141,11
DA:142,11
DA:143,11
DA:144,11
DA:146,33
DA:147,33
DA:158,11
DA:159,11
DA:160,11
DA:161,11
DA:162,11
DA:163,11
DA:164,11
DA:165,11
DA:168,11
DA:169,11
DA:170,11
DA:171,11
DA:173,11
DA:174,11
DA:175,11
DA:177,11
DA:178,11
DA:179,11
DA:180,11
DA:181,11
DA:182,11
DA:183,11
DA:184,11
DA:187,11
DA:188,11
DA:189,11
DA:191,11
DA:192,11
DA:193,11
DA:195,11
DA:196,11
DA:197,11
DA:198,11
DA:199,11
DA:200,11
DA:201,11
DA:203,11
DA:204,11
DA:205,11
DA:207,11
DA:208,11
DA:209,11
BRF:0
BRH:0
LF:148
LH:67
end_of_record
SF:crates/libcontainer/src/process/container_main_process.rs
FN:282,_RNCNvNtNtNtCs4hmKDm3KTCY_12libcontainer7process22container_main_process5tests17test_sync_seccomp0B9_
FN:309,_RNCNCNvNtNtNtCs4hmKDm3KTCY_12libcontainer7process22container_main_process5testss_17test_sync_seccomp00Bb_
FN:188,_RNCNvNtNtNtCs4hmKDm3KTCY_12libcontainer7process22container_main_process5testss_32setup_uid_mapping_should_succeed0B9_
FN:283,_RNvNtNtNtCs4hmKDm3KTCY_12libcontainer7process22container_main_process5testss_17test_sync_seccomp
FN:234,_RNvNtNtNtCs4hmKDm3KTCY_12libcontainer7process22container_main_process5testss_34setup_gid_mapping_should_successed
FN:188,_RNvNtNtNtCs4hmKDm3KTCY_12libcontainer7process22container_main_process5testss_32setup_uid_mapping_should_succeed
FN:187,_RNCNvNtNtNtCs4hmKDm3KTCY_12libcontainer7process22container_main_process5tests32setup_uid_mapping_should_succeed0B9_
FN:234,_RNCNvNtNtNtCs4hmKDm3KTCY_12libcontainer7process22container_main_process5testss_34setup_gid_mapping_should_successed0B9_
FN:233,_RNCNvNtNtNtCs4hmKDm3KTCY_12libcontainer7process22container_main_process5tests34setup_gid_mapping_should_successed0B9_
FN:283,_RNCNvNtNtNtCs4hmKDm3KTCY_12libcontainer7process22container_main_process5testss_17test_sync_seccomp0B9_
FN:122,_RNvNtNtCs4hmKDm3KTCY_12libcontainer7process22container_main_process21sync_seccomp_send_msg
FN:95,_RNvNtNtCs4hmKDm3KTCY_12libcontainer7process22container_main_process12sync_seccomp
FN:135,_RNCNvNtNtCs4hmKDm3KTCY_12libcontainer7process22container_main_process21sync_seccomp_send_msg0B7_
FN:25,_RNCNvNtNtCs4hmKDm3KTCY_12libcontainer7process22container_main_process22container_main_process0B7_
FN:156,_RNvNtNtCs4hmKDm3KTCY_12libcontainer7process22container_main_process13setup_mapping
FN:15,_RNvNtNtCs4hmKDm3KTCY_12libcontainer7process22container_main_process22container_main_process
FN:15,_RNvNtNtCs9aHzSL9YGbd_12libcontainer7process22container_main_process22container_main_process
FN:122,_RNvNtNtCs9aHzSL9YGbd_12libcontainer7process22container_main_process21sync_seccomp_send_msg
FN:156,_RNvNtNtCs9aHzSL9YGbd_12libcontainer7process22container_main_process13setup_mapping
FN:25,_RNCNvNtNtCs9aHzSL9YGbd_12libcontainer7process22container_main_process22container_main_process0B7_
FN:135,_RNCNvNtNtCs9aHzSL9YGbd_12libcontainer7process22container_main_process21sync_seccomp_send_msg0B7_
FN:95,_RNvNtNtCs9aHzSL9YGbd_12libcontainer7process22container_main_process12sync_seccomp
FNDA:9,_RNCNvNtNtNtCs4hmKDm3KTCY_12libcontainer7process22container_main_process5tests17test_sync_seccomp0B9_
FNDA:4,_RNCNCNvNtNtNtCs4hmKDm3KTCY_12libcontainer7process22container_main_process5testss_17test_sync_seccomp00Bb_
FNDA:5,_RNCNvNtNtNtCs4hmKDm3KTCY_12libcontainer7process22container_main_process5testss_32setup_uid_mapping_should_succeed0B9_
FNDA:9,_RNvNtNtNtCs4hmKDm3KTCY_12libcontainer7process22container_main_process5testss_17test_sync_seccomp
FNDA:11,_RNvNtNtNtCs4hmKDm3KTCY_12libcontainer7process22container_main_process5testss_34setup_gid_mapping_should_successed
FNDA:10,_RNvNtNtNtCs4hmKDm3KTCY_12libcontainer7process22container_main_process5testss_32setup_uid_mapping_should_succeed
FNDA:10,_RNCNvNtNtNtCs4hmKDm3KTCY_12libcontainer7process22container_main_process5tests32setup_uid_mapping_should_succeed0B9_
FNDA:6,_RNCNvNtNtNtCs4hmKDm3KTCY_12libcontainer7process22container_main_process5testss_34setup_gid_mapping_should_successed0B9_
FNDA:11,_RNCNvNtNtNtCs4hmKDm3KTCY_12libcontainer7process22container_main_process5tests34setup_gid_mapping_should_successed0B9_
FNDA:0,_RNCNvNtNtNtCs4hmKDm3KTCY_12libcontainer7process22container_main_process5testss_17test_sync_seccomp0B9_
FNDA:4,_RNvNtNtCs4hmKDm3KTCY_12libcontainer7process22container_main_process21sync_seccomp_send_msg
FNDA:4,_RNvNtNtCs4hmKDm3KTCY_12libcontainer7process22container_main_process12sync_seccomp
FNDA:0,_RNCNvNtNtCs4hmKDm3KTCY_12libcontainer7process22container_main_process21sync_seccomp_send_msg0B7_
FNDA:0,_RNCNvNtNtCs4hmKDm3KTCY_12libcontainer7process22container_main_process22container_main_process0B7_
FNDA:9,_RNvNtNtCs4hmKDm3KTCY_12libcontainer7process22container_main_process13setup_mapping
FNDA:0,_RNvNtNtCs4hmKDm3KTCY_12libcontainer7process22container_main_process22container_main_process
FNDA:0,_RNvNtNtCs9aHzSL9YGbd_12libcontainer7process22container_main_process22container_main_process
FNDA:0,_RNvNtNtCs9aHzSL9YGbd_12libcontainer7process22container_main_process21sync_seccomp_send_msg
FNDA:0,_RNvNtNtCs9aHzSL9YGbd_12libcontainer7process22container_main_process13setup_mapping
FNDA:0,_RNCNvNtNtCs9aHzSL9YGbd_12libcontainer7process22container_main_process22container_main_process0B7_
FNDA:0,_RNCNvNtNtCs9aHzSL9YGbd_12libcontainer7process22container_main_process21sync_seccomp_send_msg0B7_
FNDA:0,_RNvNtNtCs9aHzSL9YGbd_12libcontainer7process22container_main_process12sync_seccomp
FNF:13
FNH:10
DA:15,0
DA:21,0
DA:22,0
DA:23,0
DA:25,0
DA:26,0
DA:27,0
DA:28,0
DA:29,0
DA:30,0
DA:31,0
DA:32,0
DA:33,0
DA:34,0
DA:37,0
DA:38,0
DA:39,0
DA:44,0
DA:45,0
DA:46,0
DA:47,0
DA:48,0
DA:52,0
DA:53,0
DA:54,0
DA:58,0
DA:60,0
DA:61,0
DA:62,0
DA:63,0
DA:64,0
DA:65,0
DA:66,0
DA:67,0
DA:68,0
DA:69,0
DA:70,0
DA:71,0
DA:73,0
DA:74,0
DA:75,0
DA:76,0
DA:77,0
DA:78,0
DA:82,0
DA:83,0
DA:84,0
DA:86,0
DA:87,0
DA:88,0
DA:90,0
DA:92,0
DA:93,0
DA:95,4
DA:96,4
DA:97,4
DA:98,4
DA:99,4
DA:100,4
DA:101,4
DA:102,4
DA:103,4
DA:104,4
DA:105,4
DA:106,4
DA:107,4
DA:108,4
DA:109,4
DA:110,4
DA:111,4
DA:112,4
DA:116,4
DA:117,0
DA:119,4
DA:120,4
DA:122,4
DA:126,4
DA:127,4
DA:128,4
DA:129,4
DA:130,4
DA:131,4
DA:132,4
DA:133,4
DA:134,4
DA:135,4
DA:136,0
DA:137,0
DA:138,0
DA:139,0
DA:140,4
DA:145,4
DA:146,4
DA:147,4
DA:148,4
DA:149,4
DA:151,4
DA:152,4
DA:153,4
DA:154,4
DA:156,9
DA:157,9
DA:158,9
DA:161,5
DA:162,4
DA:164,9
DA:165,9
DA:166,9
DA:167,9
DA:168,9
DA:169,9
DA:170,9
DA:171,9
DA:187,10
DA:188,10
DA:233,11
DA:234,11
DA:282,9
DA:283,13
DA:309,4
DA:310,4
DA:311,4
DA:312,4
DA:313,4
DA:314,4
DA:315,4
DA:316,4
DA:317,4
DA:318,4
DA:319,4
DA:320,4
DA:321,4
DA:322,4
DA:323,4
DA:324,4
BRF:0
BRH:0
LF:139
LH:77
end_of_record
SF:crates/libcontainer/src/process/fork.rs
FN:45,_RNCNvNtNtNtCs4hmKDm3KTCY_12libcontainer7process4fork4test23test_container_err_fork0B9_
FN:46,_RNvNtNtNtCs4hmKDm3KTCY_12libcontainer7process4fork4tests_23test_container_err_fork
FN:34,_RNCNvNtNtNtCs4hmKDm3KTCY_12libcontainer7process4fork4tests_19test_container_fork0B9_
FN:33,_RNvNtNtNtCs4hmKDm3KTCY_12libcontainer7process4fork4tests_19test_container_fork
FN:32,_RNCNvNtNtNtCs4hmKDm3KTCY_12libcontainer7process4fork4test19test_container_fork0B9_
FN:47,_RNCNvNtNtNtCs4hmKDm3KTCY_12libcontainer7process4fork4tests_23test_container_err_fork0B9_
FN:11,_RINvNtNtCs4hmKDm3KTCY_12libcontainer7process4fork14container_forkNCNvNtB2_4tests_19test_container_fork0EB6_
FN:11,_RINvNtNtCs4hmKDm3KTCY_12libcontainer7process4fork14container_forkNCNvNtB2_4tests_23test_container_err_fork0EB6_
FN:11,_RINvNtNtCs9aHzSL9YGbd_12libcontainer7process4fork14container_forkNCNvNtB4_22container_main_process22container_main_process0EB6_
FN:11,_RINvNtNtCs9aHzSL9YGbd_12libcontainer7process4fork14container_forkNCNvNtB4_30container_intermediate_process30container_intermediate_processs0_0EB6_
FNDA:8,_RNCNvNtNtNtCs4hmKDm3KTCY_12libcontainer7process4fork4test23test_container_err_fork0B9_
FNDA:8,_RNvNtNtNtCs4hmKDm3KTCY_12libcontainer7process4fork4tests_23test_container_err_fork
FNDA:1,_RNCNvNtNtNtCs4hmKDm3KTCY_12libcontainer7process4fork4tests_19test_container_fork0B9_
FNDA:7,_RNvNtNtNtCs4hmKDm3KTCY_12libcontainer7process4fork4tests_19test_container_fork
FNDA:7,_RNCNvNtNtNtCs4hmKDm3KTCY_12libcontainer7process4fork4test19test_container_fork0B9_
FNDA:1,_RNCNvNtNtNtCs4hmKDm3KTCY_12libcontainer7process4fork4tests_23test_container_err_fork0B9_
FNDA:7,_RINvNtNtCs4hmKDm3KTCY_12libcontainer7process4fork14container_forkNCNvNtB2_4tests_19test_container_fork0EB6_
FNDA:8,_RINvNtNtCs4hmKDm3KTCY_12libcontainer7process4fork14container_forkNCNvNtB2_4tests_23test_container_err_fork0EB6_
FNDA:0,_RINvNtNtCs9aHzSL9YGbd_12libcontainer7process4fork14container_forkNCNvNtB4_22container_main_process22container_main_process0EB6_
FNDA:0,_RINvNtNtCs9aHzSL9YGbd_12libcontainer7process4fork14container_forkNCNvNtB4_30container_intermediate_process30container_intermediate_processs0_0EB6_
FNF:7
FNH:7
DA:11,15
DA:12,15
DA:13,13
DA:15,2
DA:16,1
DA:17,1
DA:19,1
DA:21,2
DA:24,13
DA:32,7
DA:33,7
DA:34,7
DA:35,7
DA:36,7
DA:37,7
DA:38,7
DA:39,5
DA:41,0
DA:43,5
DA:45,8
DA:46,8
DA:47,8
DA:48,8
DA:49,8
DA:50,8
DA:51,8
DA:52,6
DA:54,0
DA:56,6
BRF:0
BRH:0
LF:31
LH:28
end_of_record
SF:crates/libcontainer/src/process/message.rs
FN:4,_RINvXNvXNvNtNtCs4hmKDm3KTCY_12libcontainer7process7messages_1__NtB8_7MessageNtNtCsdJwOYunNrgH_5serde2de11Deserialize11deserializeNtB3_14___FieldVisitorNtB1e_7Visitor9visit_u64pEBc_
FN:4,_RINvXs0_NvXNvNtNtCs4hmKDm3KTCY_12libcontainer7process7messages_1__NtBb_7MessageNtNtCsdJwOYunNrgH_5serde2de11Deserialize11deserializeNtB6_9___VisitorNtB1h_7Visitor10visit_enumINtNtCs5MpeWeKc5si_10serde_json2de17UnitVariantAccessNtNtB2R_4read9SliceReadEEBf_
FN:4,_RINvXs_NvXNvNtNtCs4hmKDm3KTCY_12libcontainer7process7messages_1__NtBa_7MessageNtNtCsdJwOYunNrgH_5serde2de11Deserialize11deserializeNtB5_7___FieldB1e_11deserializeQINtNtCs5MpeWeKc5si_10serde_json2de12DeserializerNtNtB2G_4read9SliceReadEEBe_
FN:4,_RINvXNvNtNtCs4hmKDm3KTCY_12libcontainer7process7message1__NtB5_7MessageNtNtCsdJwOYunNrgH_5serde3ser9Serialize9serializeQINtNtCs5MpeWeKc5si_10serde_json3ser10SerializerQINtNtCsdfjrgz5TZDL_5alloc3vec3VechEEEB9_
FN:4,_RNvXNtNtCs4hmKDm3KTCY_12libcontainer7process7messageNtB2_7MessageNtNtCshypYLURccL2_4core3fmt5Debug3fmt
FN:4,_RINvXNvNtNtCs4hmKDm3KTCY_12libcontainer7process7messages_1__NtB5_7MessageNtNtCsdJwOYunNrgH_5serde2de11Deserialize11deserializeQINtNtCs5MpeWeKc5si_10serde_json2de12DeserializerNtNtB26_4read9SliceReadEEB9_
FN:4,_RINvXNvXNvNtNtCs4hmKDm3KTCY_12libcontainer7process7messages_1__NtB8_7MessageNtNtCsdJwOYunNrgH_5serde2de11Deserialize11deserializeNtB3_14___FieldVisitorNtB1e_7Visitor11visit_bytespEBc_
FN:4,_RNvXNvXNvNtNtCs4hmKDm3KTCY_12libcontainer7process7messages_1__NtB7_7MessageNtNtCsdJwOYunNrgH_5serde2de11Deserialize11deserializeNtB2_14___FieldVisitorNtB1d_7Visitor9expecting
FN:4,_RNvXs0_NvXNvNtNtCs4hmKDm3KTCY_12libcontainer7process7messages_1__NtBa_7MessageNtNtCsdJwOYunNrgH_5serde2de11Deserialize11deserializeNtB5_9___VisitorNtB1g_7Visitor9expecting
FN:4,_RINvXs0_NvXNvNtNtCs4hmKDm3KTCY_12libcontainer7process7messages_1__NtBb_7MessageNtNtCsdJwOYunNrgH_5serde2de11Deserialize11deserializeNtB6_9___VisitorNtB1h_7Visitor10visit_enumINtNtCs5MpeWeKc5si_10serde_json2de13VariantAccessNtNtB2R_4read9SliceReadEEBf_
FN:4,_RINvXNvXNvNtNtCs4hmKDm3KTCY_12libcontainer7process7messages_1__NtB8_7MessageNtNtCsdJwOYunNrgH_5serde2de11Deserialize11deserializeNtB3_14___FieldVisitorNtB1e_7Visitor9visit_strNtNtCs5MpeWeKc5si_10serde_json5error5ErrorEBc_
FN:4,_RINvXs0_NvXNvNtNtCs9aHzSL9YGbd_12libcontainer7process7messages_1__NtBb_7MessageNtNtCsdJwOYunNrgH_5serde2de11Deserialize11deserializeNtB6_9___VisitorNtB1h_7Visitor10visit_enumINtNtCs5MpeWeKc5si_10serde_json2de17UnitVariantAccessNtNtB2R_4read9SliceReadEEBf_
FN:4,_RINvXNvNtNtCs9aHzSL9YGbd_12libcontainer7process7message1__NtB5_7MessageNtNtCsdJwOYunNrgH_5serde3ser9Serialize9serializeQINtNtCs5MpeWeKc5si_10serde_json3ser10SerializerQINtNtCsdfjrgz5TZDL_5alloc3vec3VechEEEB9_
FN:4,_RINvXNvXNvNtNtCs9aHzSL9YGbd_12libcontainer7process7messages_1__NtB8_7MessageNtNtCsdJwOYunNrgH_5serde2de11Deserialize11deserializeNtB3_14___FieldVisitorNtB1e_7Visitor11visit_bytespEBc_
FN:4,_RINvXNvXNvNtNtCs9aHzSL9YGbd_12libcontainer7process7messages_1__NtB8_7MessageNtNtCsdJwOYunNrgH_5serde2de11Deserialize11deserializeNtB3_14___FieldVisitorNtB1e_7Visitor9visit_u64pEBc_
FN:4,_RINvXNvNtNtCs9aHzSL9YGbd_12libcontainer7process7messages_1__NtB5_7MessageNtNtCsdJwOYunNrgH_5serde2de11Deserialize11deserializeQINtNtCs5MpeWeKc5si_10serde_json2de12DeserializerNtNtB26_4read9SliceReadEEB9_
FN:4,_RNvXNvXNvNtNtCs9aHzSL9YGbd_12libcontainer7process7messages_1__NtB7_7MessageNtNtCsdJwOYunNrgH_5serde2de11Deserialize11deserializeNtB2_14___FieldVisitorNtB1d_7Visitor9expecting
FN:4,_RNvXNtNtCs9aHzSL9YGbd_12libcontainer7process7messageNtB2_7MessageNtNtCshypYLURccL2_4core3fmt5Debug3fmt
FN:4,_RINvXs_NvXNvNtNtCs9aHzSL9YGbd_12libcontainer7process7messages_1__NtBa_7MessageNtNtCsdJwOYunNrgH_5serde2de11Deserialize11deserializeNtB5_7___FieldB1e_11deserializeQINtNtCs5MpeWeKc5si_10serde_json2de12DeserializerNtNtB2G_4read9SliceReadEEBe_
FN:4,_RINvXNvXNvNtNtCs9aHzSL9YGbd_12libcontainer7process7messages_1__NtB8_7MessageNtNtCsdJwOYunNrgH_5serde2de11Deserialize11deserializeNtB3_14___FieldVisitorNtB1e_7Visitor9visit_strNtNtCs5MpeWeKc5si_10serde_json5error5ErrorEBc_
FN:4,_RNvXs0_NvXNvNtNtCs9aHzSL9YGbd_12libcontainer7process7messages_1__NtBa_7MessageNtNtCsdJwOYunNrgH_5serde2de11Deserialize11deserializeNtB5_9___VisitorNtB1g_7Visitor9expecting
FN:4,_RINvXs0_NvXNvNtNtCs9aHzSL9YGbd_12libcontainer7process7messages_1__NtBb_7MessageNtNtCsdJwOYunNrgH_5serde2de11Deserialize11deserializeNtB6_9___VisitorNtB1h_7Visitor10visit_enumINtNtCs5MpeWeKc5si_10serde_json2de13VariantAccessNtNtB2R_4read9SliceReadEEBf_
FNDA:0,_RINvXNvXNvNtNtCs4hmKDm3KTCY_12libcontainer7process7messages_1__NtB8_7MessageNtNtCsdJwOYunNrgH_5serde2de11Deserialize11deserializeNtB3_14___FieldVisitorNtB1e_7Visitor9visit_u64pEBc_
FNDA:67,_RINvXs0_NvXNvNtNtCs4hmKDm3KTCY_12libcontainer7process7messages_1__NtBb_7MessageNtNtCsdJwOYunNrgH_5serde2de11Deserialize11deserializeNtB6_9___VisitorNtB1h_7Visitor10visit_enumINtNtCs5MpeWeKc5si_10serde_json2de17UnitVariantAccessNtNtB2R_4read9SliceReadEEBf_
FNDA:77,_RINvXs_NvXNvNtNtCs4hmKDm3KTCY_12libcontainer7process7messages_1__NtBa_7MessageNtNtCsdJwOYunNrgH_5serde2de11Deserialize11deserializeNtB5_7___FieldB1e_11deserializeQINtNtCs5MpeWeKc5si_10serde_json2de12DeserializerNtNtB2G_4read9SliceReadEEBe_
FNDA:35,_RINvXNvNtNtCs4hmKDm3KTCY_12libcontainer7process7message1__NtB5_7MessageNtNtCsdJwOYunNrgH_5serde3ser9Serialize9serializeQINtNtCs5MpeWeKc5si_10serde_json3ser10SerializerQINtNtCsdfjrgz5TZDL_5alloc3vec3VechEEEB9_
FNDA:0,_RNvXNtNtCs4hmKDm3KTCY_12libcontainer7process7messageNtB2_7MessageNtNtCshypYLURccL2_4core3fmt5Debug3fmt
FNDA:77,_RINvXNvNtNtCs4hmKDm3KTCY_12libcontainer7process7messages_1__NtB5_7MessageNtNtCsdJwOYunNrgH_5serde2de11Deserialize11deserializeQINtNtCs5MpeWeKc5si_10serde_json2de12DeserializerNtNtB26_4read9SliceReadEEB9_
FNDA:0,_RINvXNvXNvNtNtCs4hmKDm3KTCY_12libcontainer7process7messages_1__NtB8_7MessageNtNtCsdJwOYunNrgH_5serde2de11Deserialize11deserializeNtB3_14___FieldVisitorNtB1e_7Visitor11visit_bytespEBc_
FNDA:0,_RNvXNvXNvNtNtCs4hmKDm3KTCY_12libcontainer7process7messages_1__NtB7_7MessageNtNtCsdJwOYunNrgH_5serde2de11Deserialize11deserializeNtB2_14___FieldVisitorNtB1d_7Visitor9expecting
FNDA:0,_RNvXs0_NvXNvNtNtCs4hmKDm3KTCY_12libcontainer7process7messages_1__NtBa_7MessageNtNtCsdJwOYunNrgH_5serde2de11Deserialize11deserializeNtB5_9___VisitorNtB1g_7Visitor9expecting
FNDA:10,_RINvXs0_NvXNvNtNtCs4hmKDm3KTCY_12libcontainer7process7messages_1__NtBb_7MessageNtNtCsdJwOYunNrgH_5serde2de11Deserialize11deserializeNtB6_9___VisitorNtB1h_7Visitor10visit_enumINtNtCs5MpeWeKc5si_10serde_json2de13VariantAccessNtNtB2R_4read9SliceReadEEBf_
FNDA:77,_RINvXNvXNvNtNtCs4hmKDm3KTCY_12libcontainer7process7messages_1__NtB8_7MessageNtNtCsdJwOYunNrgH_5serde2de11Deserialize11deserializeNtB3_14___FieldVisitorNtB1e_7Visitor9visit_strNtNtCs5MpeWeKc5si_10serde_json5error5ErrorEBc_
FNDA:0,_RINvXs0_NvXNvNtNtCs9aHzSL9YGbd_12libcontainer7process7messages_1__NtBb_7MessageNtNtCsdJwOYunNrgH_5serde2de11Deserialize11deserializeNtB6_9___VisitorNtB1h_7Visitor10visit_enumINtNtCs5MpeWeKc5si_10serde_json2de17UnitVariantAccessNtNtB2R_4read9SliceReadEEBf_
FNDA:0,_RINvXNvNtNtCs9aHzSL9YGbd_12libcontainer7process7message1__NtB5_7MessageNtNtCsdJwOYunNrgH_5serde3ser9Serialize9serializeQINtNtCs5MpeWeKc5si_10serde_json3ser10SerializerQINtNtCsdfjrgz5TZDL_5alloc3vec3VechEEEB9_
FNDA:0,_RINvXNvXNvNtNtCs9aHzSL9YGbd_12libcontainer7process7messages_1__NtB8_7MessageNtNtCsdJwOYunNrgH_5serde2de11Deserialize11deserializeNtB3_14___FieldVisitorNtB1e_7Visitor11visit_bytespEBc_
FNDA:0,_RINvXNvXNvNtNtCs9aHzSL9YGbd_12libcontainer7process7messages_1__NtB8_7MessageNtNtCsdJwOYunNrgH_5serde2de11Deserialize11deserializeNtB3_14___FieldVisitorNtB1e_7Visitor9visit_u64pEBc_
FNDA:0,_RINvXNvNtNtCs9aHzSL9YGbd_12libcontainer7process7messages_1__NtB5_7MessageNtNtCsdJwOYunNrgH_5serde2de11Deserialize11deserializeQINtNtCs5MpeWeKc5si_10serde_json2de12DeserializerNtNtB26_4read9SliceReadEEB9_
FNDA:0,_RNvXNvXNvNtNtCs9aHzSL9YGbd_12libcontainer7process7messages_1__NtB7_7MessageNtNtCsdJwOYunNrgH_5serde2de11Deserialize11deserializeNtB2_14___FieldVisitorNtB1d_7Visitor9expecting
FNDA:0,_RNvXNtNtCs9aHzSL9YGbd_12libcontainer7process7messageNtB2_7MessageNtNtCshypYLURccL2_4core3fmt5Debug3fmt
FNDA:0,_RINvXs_NvXNvNtNtCs9aHzSL9YGbd_12libcontainer7process7messages_1__NtBa_7MessageNtNtCsdJwOYunNrgH_5serde2de11Deserialize11deserializeNtB5_7___FieldB1e_11deserializeQINtNtCs5MpeWeKc5si_10serde_json2de12DeserializerNtNtB2G_4read9SliceReadEEBe_
FNDA:0,_RINvXNvXNvNtNtCs9aHzSL9YGbd_12libcontainer7process7messages_1__NtB8_7MessageNtNtCsdJwOYunNrgH_5serde2de11Deserialize11deserializeNtB3_14___FieldVisitorNtB1e_7Visitor9visit_strNtNtCs5MpeWeKc5si_10serde_json5error5ErrorEBc_
FNDA:0,_RNvXs0_NvXNvNtNtCs9aHzSL9YGbd_12libcontainer7process7messages_1__NtBa_7MessageNtNtCsdJwOYunNrgH_5serde2de11Deserialize11deserializeNtB5_9___VisitorNtB1g_7Visitor9expecting
FNDA:0,_RINvXs0_NvXNvNtNtCs9aHzSL9YGbd_12libcontainer7process7messages_1__NtBb_7MessageNtNtCsdJwOYunNrgH_5serde2de11Deserialize11deserializeNtB6_9___VisitorNtB1h_7Visitor10visit_enumINtNtCs5MpeWeKc5si_10serde_json2de13VariantAccessNtNtB2R_4read9SliceReadEEBf_
FNF:3
FNH:2
DA:4,154
BRF:0
BRH:0
LF:3
LH:2
end_of_record
SF:crates/libcontainer/src/rootfs/device.rs
FN:114,_RNCNvNtNtCs4hmKDm3KTCY_12libcontainer6rootfs6device25create_container_dev_paths0_0B7_
FN:55,_RNvMs_NtNtCs4hmKDm3KTCY_12libcontainer6rootfs6deviceNtB4_6Device8bind_dev
FN:57,_RNCNvMs_NtNtCs4hmKDm3KTCY_12libcontainer6rootfs6deviceNtB6_6Device8bind_dev0Ba_
FN:107,_RNCNvNtNtCs4hmKDm3KTCY_12libcontainer6rootfs6device25create_container_dev_path0B7_
FN:85,_RNCNvMs_NtNtCs4hmKDm3KTCY_12libcontainer6rootfs6deviceNtB6_6Device9mknod_dev0Ba_
FN:19,_RNvXNtNtCs4hmKDm3KTCY_12libcontainer6rootfs6deviceNtB2_6DeviceNtNtCshypYLURccL2_4core7default7Default7default
FN:31,_RINvMs_NtNtCs4hmKDm3KTCY_12libcontainer6rootfs6deviceNtB5_6Device14create_devicesRINtNtCsdfjrgz5TZDL_5alloc3vec3VecNtNtNtCsavfOPrTag7s_8oci_spec7runtime5linux11LinuxDeviceEEB9_
FN:103,_RNvNtNtCs4hmKDm3KTCY_12libcontainer6rootfs6device25create_container_dev_path
FN:38,_RNCINvMs_NtNtCs4hmKDm3KTCY_12libcontainer6rootfs6deviceNtB7_6Device14create_devicesRINtNtCsdfjrgz5TZDL_5alloc3vec3VecNtNtNtCsavfOPrTag7s_8oci_spec7runtime5linux11LinuxDeviceEE0Bb_
FN:77,_RNvNvMs_NtNtCs4hmKDm3KTCY_12libcontainer6rootfs6deviceNtB6_6Device9mknod_dev7makedev
FN:25,_RNvMs_NtNtCs4hmKDm3KTCY_12libcontainer6rootfs6deviceNtB4_6Device3new
FN:109,_RNCNvNtNtCs4hmKDm3KTCY_12libcontainer6rootfs6device25create_container_dev_paths_0B7_
FN:76,_RNvMs_NtNtCs4hmKDm3KTCY_12libcontainer6rootfs6deviceNtB4_6Device9mknod_dev
FN:211,_RNvNtNtNtCs4hmKDm3KTCY_12libcontainer6rootfs6device5testss_19test_create_devices
FN:132,_RNCNvNtNtNtCs4hmKDm3KTCY_12libcontainer6rootfs6device5tests13test_bind_dev0B9_
FN:163,_RNvNtNtNtCs4hmKDm3KTCY_12libcontainer6rootfs6device5testss_14test_mknod_dev
FN:210,_RNCNvNtNtNtCs4hmKDm3KTCY_12libcontainer6rootfs6device5tests19test_create_devices0B9_
FN:162,_RNCNvNtNtNtCs4hmKDm3KTCY_12libcontainer6rootfs6device5tests14test_mknod_dev0B9_
FN:133,_RNvNtNtNtCs4hmKDm3KTCY_12libcontainer6rootfs6device5testss_13test_bind_dev
FN:85,_RNCNvMs_NtNtCs9aHzSL9YGbd_12libcontainer6rootfs6deviceNtB6_6Device9mknod_dev0Ba_
FN:107,_RNCNvNtNtCs9aHzSL9YGbd_12libcontainer6rootfs6device25create_container_dev_path0B7_
FN:38,_RNCINvMs_NtNtCs9aHzSL9YGbd_12libcontainer6rootfs6deviceNtB7_6Device14create_devicesINtNtNtNtCshypYLURccL2_4core4iter8adapters5chain5ChainINtNtNtB1s_5slice4iter4IterNtNtNtCsavfOPrTag7s_8oci_spec7runtime5linux11LinuxDeviceEB2b_EE0Bb_
FN:38,_RNCINvMs_NtNtCs9aHzSL9YGbd_12libcontainer6rootfs6deviceNtB7_6Device14create_devicesRINtNtCsdfjrgz5TZDL_5alloc3vec3VecNtNtNtCsavfOPrTag7s_8oci_spec7runtime5linux11LinuxDeviceEE0Bb_
FN:25,_RNvMs_NtNtCs9aHzSL9YGbd_12libcontainer6rootfs6deviceNtB4_6Device3new
FN:77,_RNvNvMs_NtNtCs9aHzSL9YGbd_12libcontainer6rootfs6deviceNtB6_6Device9mknod_dev7makedev
FN:76,_RNvMs_NtNtCs9aHzSL9YGbd_12libcontainer6rootfs6deviceNtB4_6Device9mknod_dev
FN:114,_RNCNvNtNtCs9aHzSL9YGbd_12libcontainer6rootfs6device25create_container_dev_paths0_0B7_
FN:31,_RINvMs_NtNtCs9aHzSL9YGbd_12libcontainer6rootfs6deviceNtB5_6Device14create_devicesINtNtNtNtCshypYLURccL2_4core4iter8adapters5chain5ChainINtNtNtB1q_5slice4iter4IterNtNtNtCsavfOPrTag7s_8oci_spec7runtime5linux11LinuxDeviceEB29_EEB9_
FN:31,_RINvMs_NtNtCs9aHzSL9YGbd_12libcontainer6rootfs6deviceNtB5_6Device14create_devicesRINtNtCsdfjrgz5TZDL_5alloc3vec3VecNtNtNtCsavfOPrTag7s_8oci_spec7runtime5linux11LinuxDeviceEEB9_
FN:103,_RNvNtNtCs9aHzSL9YGbd_12libcontainer6rootfs6device25create_container_dev_path
FN:19,_RNvXNtNtCs9aHzSL9YGbd_12libcontainer6rootfs6deviceNtB2_6DeviceNtNtCshypYLURccL2_4core7default7Default7default
FN:55,_RNvMs_NtNtCs9aHzSL9YGbd_12libcontainer6rootfs6deviceNtB4_6Device8bind_dev
FN:57,_RNCNvMs_NtNtCs9aHzSL9YGbd_12libcontainer6rootfs6deviceNtB6_6Device8bind_dev0Ba_
FN:109,_RNCNvNtNtCs9aHzSL9YGbd_12libcontainer6rootfs6device25create_container_dev_paths_0B7_
FNDA:0,_RNCNvNtNtCs4hmKDm3KTCY_12libcontainer6rootfs6device25create_container_dev_paths0_0B7_
FNDA:12,_RNvMs_NtNtCs4hmKDm3KTCY_12libcontainer6rootfs6deviceNtB4_6Device8bind_dev
FNDA:0,_RNCNvMs_NtNtCs4hmKDm3KTCY_12libcontainer6rootfs6deviceNtB6_6Device8bind_dev0Ba_
FNDA:0,_RNCNvNtNtCs4hmKDm3KTCY_12libcontainer6rootfs6device25create_container_dev_path0B7_
FNDA:0,_RNCNvMs_NtNtCs4hmKDm3KTCY_12libcontainer6rootfs6deviceNtB6_6Device9mknod_dev0Ba_
FNDA:0,_RNvXNtNtCs4hmKDm3KTCY_12libcontainer6rootfs6deviceNtB2_6DeviceNtNtCshypYLURccL2_4core7default7Default7default
FNDA:12,_RINvMs_NtNtCs4hmKDm3KTCY_12libcontainer6rootfs6deviceNtB5_6Device14create_devicesRINtNtCsdfjrgz5TZDL_5alloc3vec3VecNtNtNtCsavfOPrTag7s_8oci_spec7runtime5linux11LinuxDeviceEEB9_
FNDA:24,_RNvNtNtCs4hmKDm3KTCY_12libcontainer6rootfs6device25create_container_dev_path
FNDA:12,_RNCINvMs_NtNtCs4hmKDm3KTCY_12libcontainer6rootfs6deviceNtB7_6Device14create_devicesRINtNtCsdfjrgz5TZDL_5alloc3vec3VecNtNtNtCsavfOPrTag7s_8oci_spec7runtime5linux11LinuxDeviceEE0Bb_
FNDA:12,_RNvNvMs_NtNtCs4hmKDm3KTCY_12libcontainer6rootfs6deviceNtB6_6Device9mknod_dev7makedev
FNDA:18,_RNvMs_NtNtCs4hmKDm3KTCY_12libcontainer6rootfs6deviceNtB4_6Device3new
FNDA:0,_RNCNvNtNtCs4hmKDm3KTCY_12libcontainer6rootfs6device25create_container_dev_paths_0B7_
FNDA:12,_RNvMs_NtNtCs4hmKDm3KTCY_12libcontainer6rootfs6deviceNtB4_6Device9mknod_dev
FNDA:6,_RNvNtNtNtCs4hmKDm3KTCY_12libcontainer6rootfs6device5testss_19test_create_devices
FNDA:6,_RNCNvNtNtNtCs4hmKDm3KTCY_12libcontainer6rootfs6device5tests13test_bind_dev0B9_
FNDA:6,_RNvNtNtNtCs4hmKDm3KTCY_12libcontainer6rootfs6device5testss_14test_mknod_dev
FNDA:6,_RNCNvNtNtNtCs4hmKDm3KTCY_12libcontainer6rootfs6device5tests19test_create_devices0B9_
FNDA:6,_RNCNvNtNtNtCs4hmKDm3KTCY_12libcontainer6rootfs6device5tests14test_mknod_dev0B9_
FNDA:6,_RNvNtNtNtCs4hmKDm3KTCY_12libcontainer6rootfs6device5testss_13test_bind_dev
FNDA:0,_RNCNvMs_NtNtCs9aHzSL9YGbd_12libcontainer6rootfs6deviceNtB6_6Device9mknod_dev0Ba_
FNDA:0,_RNCNvNtNtCs9aHzSL9YGbd_12libcontainer6rootfs6device25create_container_dev_path0B7_
FNDA:0,_RNCINvMs_NtNtCs9aHzSL9YGbd_12libcontainer6rootfs6deviceNtB7_6Device14create_devicesINtNtNtNtCshypYLURccL2_4core4iter8adapters5chain5ChainINtNtNtB1s_5slice4iter4IterNtNtNtCsavfOPrTag7s_8oci_spec7runtime5linux11LinuxDeviceEB2b_EE0Bb_
FNDA:0,_RNCINvMs_NtNtCs9aHzSL9YGbd_12libcontainer6rootfs6deviceNtB7_6Device14create_devicesRINtNtCsdfjrgz5TZDL_5alloc3vec3VecNtNtNtCsavfOPrTag7s_8oci_spec7runtime5linux11LinuxDeviceEE0Bb_
FNDA:0,_RNvMs_NtNtCs9aHzSL9YGbd_12libcontainer6rootfs6deviceNtB4_6Device3new
FNDA:0,_RNvNvMs_NtNtCs9aHzSL9YGbd_12libcontainer6rootfs6deviceNtB6_6Device9mknod_dev7makedev
FNDA:0,_RNvMs_NtNtCs9aHzSL9YGbd_12libcontainer6rootfs6deviceNtB4_6Device9mknod_dev
FNDA:0,_RNCNvNtNtCs9aHzSL9YGbd_12libcontainer6rootfs6device25create_container_dev_paths0_0B7_
FNDA:0,_RINvMs_NtNtCs9aHzSL9YGbd_12libcontainer6rootfs6deviceNtB5_6Device14create_devicesINtNtNtNtCshypYLURccL2_4core4iter8adapters5chain5ChainINtNtNtB1q_5slice4iter4IterNtNtNtCsavfOPrTag7s_8oci_spec7runtime5linux11LinuxDeviceEB29_EEB9_
FNDA:0,_RINvMs_NtNtCs9aHzSL9YGbd_12libcontainer6rootfs6deviceNtB5_6Device14create_devicesRINtNtCsdfjrgz5TZDL_5alloc3vec3VecNtNtNtCsavfOPrTag7s_8oci_spec7runtime5linux11LinuxDeviceEEB9_
FNDA:0,_RNvNtNtCs9aHzSL9YGbd_12libcontainer6rootfs6device25create_container_dev_path
FNDA:0,_RNvXNtNtCs9aHzSL9YGbd_12libcontainer6rootfs6deviceNtB2_6DeviceNtNtCshypYLURccL2_4core7default7Default7default
FNDA:0,_RNvMs_NtNtCs9aHzSL9YGbd_12libcontainer6rootfs6deviceNtB4_6Device8bind_dev
FNDA:0,_RNCNvMs_NtNtCs9aHzSL9YGbd_12libcontainer6rootfs6deviceNtB6_6Device8bind_dev0Ba_
FNDA:0,_RNCNvNtNtCs9aHzSL9YGbd_12libcontainer6rootfs6device25create_container_dev_paths_0B7_
FNF:19
FNH:13
DA:19,0
DA:20,0
DA:21,0
DA:25,18
DA:26,18
DA:27,18
DA:28,18
DA:29,18
DA:31,12
DA:32,12
DA:33,12
DA:34,12
DA:35,12
DA:36,12
DA:37,12
DA:38,12
DA:39,12
DA:40,0
DA:41,12
DA:42,12
DA:43,12
DA:44,6
DA:46,6
DA:48,12
DA:49,12
DA:50,12
DA:51,12
DA:52,12
DA:53,12
DA:55,12
DA:56,12
DA:57,12
DA:59,12
DA:60,12
DA:61,12
DA:62,12
DA:63,12
DA:64,12
DA:65,12
DA:66,12
DA:67,12
DA:68,12
DA:69,12
DA:70,12
DA:71,12
DA:73,12
DA:74,12
DA:76,12
DA:77,12
DA:78,12
DA:79,12
DA:80,12
DA:81,12
DA:82,12
DA:84,12
DA:85,12
DA:87,12
DA:88,12
DA:89,12
DA:90,12
DA:91,12
DA:92,12
DA:93,12
DA:94,12
DA:95,12
DA:96,12
DA:97,12
DA:99,12
DA:100,12
DA:103,24
DA:104,24
DA:105,24
DA:106,24
DA:107,24
DA:108,24
DA:109,24
DA:111,24
DA:112,24
DA:113,24
DA:114,24
DA:115,24
DA:117,24
DA:118,24
DA:132,6
DA:133,6
DA:134,6
DA:135,6
DA:136,6
DA:137,6
DA:138,6
DA:139,6
DA:140,6
DA:141,6
DA:142,6
DA:143,6
DA:144,6
DA:146,6
DA:147,6
DA:148,6
DA:149,6
DA:150,6
DA:151,6
DA:152,6
DA:153,6
DA:154,6
DA:155,6
DA:156,6
DA:157,6
DA:158,6
DA:159,6
DA:160,6
DA:162,6
DA:163,6
DA:164,6
DA:165,6
DA:166,6
DA:167,6
DA:168,6
DA:169,6
DA:170,6
DA:171,6
DA:172,6
DA:173,6
DA:174,6
DA:175,6
DA:176,6
DA:177,6
DA:178,6
DA:179,6
DA:180,6
DA:182,6
DA:183,6
DA:184,6
DA:185,6
DA:186,6
DA:187,6
DA:188,6
DA:189,6
DA:190,6
DA:191,6
DA:192,6
DA:193,6
DA:194,6
DA:196,6
DA:197,6
DA:198,6
DA:199,6
DA:200,6
DA:201,6
DA:202,6
DA:203,6
DA:204,6
DA:205,6
DA:206,6
DA:207,6
DA:208,6
DA:210,6
DA:211,6
DA:212,6
DA:213,6
DA:214,6
DA:215,6
DA:216,6
DA:217,6
DA:218,6
DA:219,6
DA:220,6
DA:221,6
DA:222,6
DA:223,6
DA:224,6
DA:225,6
DA:226,6
DA:227,6
DA:229,6
DA:230,6
DA:231,6
DA:232,6
DA:233,6
DA:234,6
DA:235,6
DA:236,6
DA:237,6
DA:238,6
DA:239,6
DA:240,6
DA:241,6
DA:242,6
DA:244,6
DA:245,6
DA:246,6
DA:248,6
DA:249,6
DA:250,6
DA:251,6
DA:252,6
DA:253,6
DA:254,6
DA:255,6
DA:256,6
DA:257,6
DA:258,6
DA:259,6
DA:260,6
DA:261,6
BRF:0
BRH:0
LF:212
LH:203
end_of_record
SF:crates/libcontainer/src/rootfs/mount.rs
FN:418,_RNCNvMs_NtNtCs4hmKDm3KTCY_12libcontainer6rootfs5mountNtB6_5Mount20mount_into_containers5_0Ba_
FN:131,_RNCNvMs_NtNtCs4hmKDm3KTCY_12libcontainer6rootfs5mountNtB6_5Mount15mount_cgroup_v1s1_0Ba_
FN:324,_RNCNvMs_NtNtCs4hmKDm3KTCY_12libcontainer6rootfs5mountNtB6_5Mount25make_parent_mount_private0Ba_
FN:117,_RNCNvMs_NtNtCs4hmKDm3KTCY_12libcontainer6rootfs5mountNtB6_5Mount15mount_cgroup_v1s0_0Ba_
FN:316,_RNvMs_NtNtCs4hmKDm3KTCY_12libcontainer6rootfs5mountNtB4_5Mount25make_parent_mount_private
FN:37,_RNvXNtNtCs4hmKDm3KTCY_12libcontainer6rootfs5mountNtB2_5MountNtNtCshypYLURccL2_4core7default7Default7default
FN:376,_RNCNvMs_NtNtCs4hmKDm3KTCY_12libcontainer6rootfs5mountNtB6_5Mount20mount_into_containers1_0Ba_
FN:25,_RNvXs0_NtNtCs4hmKDm3KTCY_12libcontainer6rootfs5mountNtB5_12MountOptionsNtNtCshypYLURccL2_4core3fmt5Debug3fmt
FN:359,_RNCNvMs_NtNtCs4hmKDm3KTCY_12libcontainer6rootfs5mountNtB6_5Mount20mount_into_container0Ba_
FN:259,_RNvMs_NtNtCs4hmKDm3KTCY_12libcontainer6rootfs5mountNtB4_5Mount15mount_cgroup_v2
FN:198,_RNCNvMs_NtNtCs4hmKDm3KTCY_12libcontainer6rootfs5mountNtB6_5Mount26setup_namespaced_subsystems0_0Ba_
FN:365,_RNCNvMs_NtNtCs4hmKDm3KTCY_12libcontainer6rootfs5mountNtB6_5Mount20mount_into_containers_0Ba_
FN:288,_RNCNvMs_NtNtCs4hmKDm3KTCY_12libcontainer6rootfs5mountNtB6_5Mount15mount_cgroup_v20Ba_
FN:389,_RNCNvMs_NtNtCs4hmKDm3KTCY_12libcontainer6rootfs5mountNtB6_5Mount20mount_into_containers3_0Ba_
FN:43,_RNvMs_NtNtCs4hmKDm3KTCY_12libcontainer6rootfs5mountNtB4_5Mount3new
FN:75,_RNCNvMs_NtNtCs4hmKDm3KTCY_12libcontainer6rootfs5mountNtB6_5Mount11setup_mount0Ba_
FN:403,_RNCNvMs_NtNtCs4hmKDm3KTCY_12libcontainer6rootfs5mountNtB6_5Mount20mount_into_containers4_0Ba_
FN:338,_RNvMs_NtNtCs4hmKDm3KTCY_12libcontainer6rootfs5mountNtB4_5Mount20mount_into_container
FN:289,_RNCNvMs_NtNtCs4hmKDm3KTCY_12libcontainer6rootfs5mountNtB6_5Mount15mount_cgroup_v2s_0Ba_
FN:85,_RNvMs_NtNtCs4hmKDm3KTCY_12libcontainer6rootfs5mountNtB4_5Mount15mount_cgroup_v1
FN:108,_RNCNvMs_NtNtCs4hmKDm3KTCY_12libcontainer6rootfs5mountNtB6_5Mount15mount_cgroup_v1s_0Ba_
FN:179,_RNCNvMs_NtNtCs4hmKDm3KTCY_12libcontainer6rootfs5mountNtB6_5Mount26setup_namespaced_subsystem0Ba_
FN:251,_RNCNvMs_NtNtCs4hmKDm3KTCY_12libcontainer6rootfs5mountNtB6_5Mount24setup_emulated_subsystems1_0Ba_
FN:201,_RNvMs_NtNtCs4hmKDm3KTCY_12libcontainer6rootfs5mountNtB4_5Mount24setup_emulated_subsystem
FN:383,_RNCNvMs_NtNtCs4hmKDm3KTCY_12libcontainer6rootfs5mountNtB6_5Mount20mount_into_containers2_0Ba_
FN:78,_RNCNvMs_NtNtCs4hmKDm3KTCY_12libcontainer6rootfs5mountNtB6_5Mount11setup_mounts_0Ba_
FN:244,_RNCNvMs_NtNtCs4hmKDm3KTCY_12libcontainer6rootfs5mountNtB6_5Mount24setup_emulated_subsystems0_0Ba_
FN:161,_RNvMs_NtNtCs4hmKDm3KTCY_12libcontainer6rootfs5mountNtB4_5Mount26setup_namespaced_subsystem
FN:49,_RNvMs_NtNtCs4hmKDm3KTCY_12libcontainer6rootfs5mountNtB4_5Mount11setup_mount
FN:95,_RNCNvMs_NtNtCs4hmKDm3KTCY_12libcontainer6rootfs5mountNtB6_5Mount15mount_cgroup_v10Ba_
FN:233,_RNCNvMs_NtNtCs4hmKDm3KTCY_12libcontainer6rootfs5mountNtB6_5Mount24setup_emulated_subsystems_0Ba_
FN:183,_RNCNvMs_NtNtCs4hmKDm3KTCY_12libcontainer6rootfs5mountNtB6_5Mount26setup_namespaced_subsystems_0Ba_
FN:368,_RNCNvMs_NtNtCs4hmKDm3KTCY_12libcontainer6rootfs5mountNtB6_5Mount20mount_into_containers0_0Ba_
FN:290,_RNCNvMs_NtNtCs4hmKDm3KTCY_12libcontainer6rootfs5mountNtB6_5Mount15mount_cgroup_v2s0_0Ba_
FN:222,_RNCNvMs_NtNtCs4hmKDm3KTCY_12libcontainer6rootfs5mountNtB6_5Mount24setup_emulated_subsystem0Ba_
FN:435,_RNvNtNtNtCs4hmKDm3KTCY_12libcontainer6rootfs5mount5testss_23test_mount_to_container
FN:599,_RNvNtNtNtCs4hmKDm3KTCY_12libcontainer6rootfs5mount5testss_31test_emulated_subsystem_success
FN:730,_RNvNtNtNtCs4hmKDm3KTCY_12libcontainer6rootfs5mount5testss_20test_mount_cgroup_v2
FN:525,_RNCNvNtNtNtCs4hmKDm3KTCY_12libcontainer6rootfs5mount5tests30test_make_parent_mount_private0B9_
FN:434,_RNCNvNtNtNtCs4hmKDm3KTCY_12libcontainer6rootfs5mount5tests23test_mount_to_container0B9_
FN:598,_RNCNvNtNtNtCs4hmKDm3KTCY_12libcontainer6rootfs5mount5tests31test_emulated_subsystem_success0B9_
FN:660,_RNCNvNtNtNtCs4hmKDm3KTCY_12libcontainer6rootfs5mount5tests20test_mount_cgroup_v10B9_
FN:661,_RNvNtNtNtCs4hmKDm3KTCY_12libcontainer6rootfs5mount5testss_20test_mount_cgroup_v1
FN:708,_RNCNvNtNtNtCs4hmKDm3KTCY_12libcontainer6rootfs5mount5testss_20test_mount_cgroup_v10B9_
FN:729,_RNCNvNtNtNtCs4hmKDm3KTCY_12libcontainer6rootfs5mount5tests20test_mount_cgroup_v20B9_
FN:551,_RNCNvNtNtNtCs4hmKDm3KTCY_12libcontainer6rootfs5mount5tests33test_namespaced_subsystem_success0B9_
FN:552,_RNvNtNtNtCs4hmKDm3KTCY_12libcontainer6rootfs5mount5testss_33test_namespaced_subsystem_success
FN:526,_RNvNtNtNtCs4hmKDm3KTCY_12libcontainer6rootfs5mount5testss_30test_make_parent_mount_private
FN:25,_RNvXs0_NtNtCs9aHzSL9YGbd_12libcontainer6rootfs5mountNtB5_12MountOptionsNtNtCshypYLURccL2_4core3fmt5Debug3fmt
FN:324,_RNCNvMs_NtNtCs9aHzSL9YGbd_12libcontainer6rootfs5mountNtB6_5Mount25make_parent_mount_private0Ba_
FN:389,_RNCNvMs_NtNtCs9aHzSL9YGbd_12libcontainer6rootfs5mountNtB6_5Mount20mount_into_containers3_0Ba_
FN:244,_RNCNvMs_NtNtCs9aHzSL9YGbd_12libcontainer6rootfs5mountNtB6_5Mount24setup_emulated_subsystems0_0Ba_
FN:290,_RNCNvMs_NtNtCs9aHzSL9YGbd_12libcontainer6rootfs5mountNtB6_5Mount15mount_cgroup_v2s0_0Ba_
FN:403,_RNCNvMs_NtNtCs9aHzSL9YGbd_12libcontainer6rootfs5mountNtB6_5Mount20mount_into_containers4_0Ba_
FN:376,_RNCNvMs_NtNtCs9aHzSL9YGbd_12libcontainer6rootfs5mountNtB6_5Mount20mount_into_containers1_0Ba_
FN:259,_RNvMs_NtNtCs9aHzSL9YGbd_12libcontainer6rootfs5mountNtB4_5Mount15mount_cgroup_v2
FN:251,_RNCNvMs_NtNtCs9aHzSL9YGbd_12libcontainer6rootfs5mountNtB6_5Mount24setup_emulated_subsystems1_0Ba_
FN:37,_RNvXNtNtCs9aHzSL9YGbd_12libcontainer6rootfs5mountNtB2_5MountNtNtCshypYLURccL2_4core7default7Default7default
FN:183,_RNCNvMs_NtNtCs9aHzSL9YGbd_12libcontainer6rootfs5mountNtB6_5Mount26setup_namespaced_subsystems_0Ba_
FN:131,_RNCNvMs_NtNtCs9aHzSL9YGbd_12libcontainer6rootfs5mountNtB6_5Mount15mount_cgroup_v1s1_0Ba_
FN:383,_RNCNvMs_NtNtCs9aHzSL9YGbd_12libcontainer6rootfs5mountNtB6_5Mount20mount_into_containers2_0Ba_
FN:316,_RNvMs_NtNtCs9aHzSL9YGbd_12libcontainer6rootfs5mountNtB4_5Mount25make_parent_mount_private
FN:368,_RNCNvMs_NtNtCs9aHzSL9YGbd_12libcontainer6rootfs5mountNtB6_5Mount20mount_into_containers0_0Ba_
FN:78,_RNCNvMs_NtNtCs9aHzSL9YGbd_12libcontainer6rootfs5mountNtB6_5Mount11setup_mounts_0Ba_
FN:359,_RNCNvMs_NtNtCs9aHzSL9YGbd_12libcontainer6rootfs5mountNtB6_5Mount20mount_into_container0Ba_
FN:117,_RNCNvMs_NtNtCs9aHzSL9YGbd_12libcontainer6rootfs5mountNtB6_5Mount15mount_cgroup_v1s0_0Ba_
FN:75,_RNCNvMs_NtNtCs9aHzSL9YGbd_12libcontainer6rootfs5mountNtB6_5Mount11setup_mount0Ba_
FN:288,_RNCNvMs_NtNtCs9aHzSL9YGbd_12libcontainer6rootfs5mountNtB6_5Mount15mount_cgroup_v20Ba_
FN:85,_RNvMs_NtNtCs9aHzSL9YGbd_12libcontainer6rootfs5mountNtB4_5Mount15mount_cgroup_v1
FN:338,_RNvMs_NtNtCs9aHzSL9YGbd_12libcontainer6rootfs5mountNtB4_5Mount20mount_into_container
FN:289,_RNCNvMs_NtNtCs9aHzSL9YGbd_12libcontainer6rootfs5mountNtB6_5Mount15mount_cgroup_v2s_0Ba_
FN:233,_RNCNvMs_NtNtCs9aHzSL9YGbd_12libcontainer6rootfs5mountNtB6_5Mount24setup_emulated_subsystems_0Ba_
FN:179,_RNCNvMs_NtNtCs9aHzSL9YGbd_12libcontainer6rootfs5mountNtB6_5Mount26setup_namespaced_subsystem0Ba_
FN:49,_RNvMs_NtNtCs9aHzSL9YGbd_12libcontainer6rootfs5mountNtB4_5Mount11setup_mount
FN:95,_RNCNvMs_NtNtCs9aHzSL9YGbd_12libcontainer6rootfs5mountNtB6_5Mount15mount_cgroup_v10Ba_
FN:222,_RNCNvMs_NtNtCs9aHzSL9YGbd_12libcontainer6rootfs5mountNtB6_5Mount24setup_emulated_subsystem0Ba_
FN:201,_RNvMs_NtNtCs9aHzSL9YGbd_12libcontainer6rootfs5mountNtB4_5Mount24setup_emulated_subsystem
FN:365,_RNCNvMs_NtNtCs9aHzSL9YGbd_12libcontainer6rootfs5mountNtB6_5Mount20mount_into_containers_0Ba_
FN:198,_RNCNvMs_NtNtCs9aHzSL9YGbd_12libcontainer6rootfs5mountNtB6_5Mount26setup_namespaced_subsystems0_0Ba_
FN:43,_RNvMs_NtNtCs9aHzSL9YGbd_12libcontainer6rootfs5mountNtB4_5Mount3new
FN:418,_RNCNvMs_NtNtCs9aHzSL9YGbd_12libcontainer6rootfs5mountNtB6_5Mount20mount_into_containers5_0Ba_
FN:108,_RNCNvMs_NtNtCs9aHzSL9YGbd_12libcontainer6rootfs5mountNtB6_5Mount15mount_cgroup_v1s_0Ba_
FN:161,_RNvMs_NtNtCs9aHzSL9YGbd_12libcontainer6rootfs5mountNtB4_5Mount26setup_namespaced_subsystem
FNDA:0,_RNCNvMs_NtNtCs4hmKDm3KTCY_12libcontainer6rootfs5mountNtB6_5Mount20mount_into_containers5_0Ba_
FNDA:48,_RNCNvMs_NtNtCs4hmKDm3KTCY_12libcontainer6rootfs5mountNtB6_5Mount15mount_cgroup_v1s1_0Ba_
FNDA:0,_RNCNvMs_NtNtCs4hmKDm3KTCY_12libcontainer6rootfs5mountNtB6_5Mount25make_parent_mount_private0Ba_
FNDA:52,_RNCNvMs_NtNtCs4hmKDm3KTCY_12libcontainer6rootfs5mountNtB6_5Mount15mount_cgroup_v1s0_0Ba_
FNDA:5,_RNvMs_NtNtCs4hmKDm3KTCY_12libcontainer6rootfs5mountNtB4_5Mount25make_parent_mount_private
FNDA:0,_RNvXNtNtCs4hmKDm3KTCY_12libcontainer6rootfs5mountNtB2_5MountNtNtCshypYLURccL2_4core7default7Default7default
FNDA:0,_RNCNvMs_NtNtCs4hmKDm3KTCY_12libcontainer6rootfs5mountNtB6_5Mount20mount_into_containers1_0Ba_
FNDA:0,_RNvXs0_NtNtCs4hmKDm3KTCY_12libcontainer6rootfs5mountNtB5_12MountOptionsNtNtCshypYLURccL2_4core3fmt5Debug3fmt
FNDA:0,_RNCNvMs_NtNtCs4hmKDm3KTCY_12libcontainer6rootfs5mountNtB6_5Mount20mount_into_container0Ba_
FNDA:5,_RNvMs_NtNtCs4hmKDm3KTCY_12libcontainer6rootfs5mountNtB4_5Mount15mount_cgroup_v2
FNDA:0,_RNCNvMs_NtNtCs4hmKDm3KTCY_12libcontainer6rootfs5mountNtB6_5Mount26setup_namespaced_subsystems0_0Ba_
FNDA:0,_RNCNvMs_NtNtCs4hmKDm3KTCY_12libcontainer6rootfs5mountNtB6_5Mount20mount_into_containers_0Ba_
FNDA:0,_RNCNvMs_NtNtCs4hmKDm3KTCY_12libcontainer6rootfs5mountNtB6_5Mount15mount_cgroup_v20Ba_
FNDA:0,_RNCNvMs_NtNtCs4hmKDm3KTCY_12libcontainer6rootfs5mountNtB6_5Mount20mount_into_containers3_0Ba_
FNDA:34,_RNvMs_NtNtCs4hmKDm3KTCY_12libcontainer6rootfs5mountNtB4_5Mount3new
FNDA:0,_RNCNvMs_NtNtCs4hmKDm3KTCY_12libcontainer6rootfs5mountNtB6_5Mount11setup_mount0Ba_
FNDA:0,_RNCNvMs_NtNtCs4hmKDm3KTCY_12libcontainer6rootfs5mountNtB6_5Mount20mount_into_containers4_0Ba_
FNDA:76,_RNvMs_NtNtCs4hmKDm3KTCY_12libcontainer6rootfs5mountNtB4_5Mount20mount_into_container
FNDA:0,_RNCNvMs_NtNtCs4hmKDm3KTCY_12libcontainer6rootfs5mountNtB6_5Mount15mount_cgroup_v2s_0Ba_
FNDA:5,_RNvMs_NtNtCs4hmKDm3KTCY_12libcontainer6rootfs5mountNtB4_5Mount15mount_cgroup_v1
FNDA:48,_RNCNvMs_NtNtCs4hmKDm3KTCY_12libcontainer6rootfs5mountNtB6_5Mount15mount_cgroup_v1s_0Ba_
FNDA:156,_RNCNvMs_NtNtCs4hmKDm3KTCY_12libcontainer6rootfs5mountNtB6_5Mount26setup_namespaced_subsystem0Ba_
FNDA:0,_RNCNvMs_NtNtCs4hmKDm3KTCY_12libcontainer6rootfs5mountNtB6_5Mount24setup_emulated_subsystems1_0Ba_
FNDA:5,_RNvMs_NtNtCs4hmKDm3KTCY_12libcontainer6rootfs5mountNtB4_5Mount24setup_emulated_subsystem
FNDA:0,_RNCNvMs_NtNtCs4hmKDm3KTCY_12libcontainer6rootfs5mountNtB6_5Mount20mount_into_containers2_0Ba_
FNDA:0,_RNCNvMs_NtNtCs4hmKDm3KTCY_12libcontainer6rootfs5mountNtB6_5Mount11setup_mounts_0Ba_
FNDA:10,_RNCNvMs_NtNtCs4hmKDm3KTCY_12libcontainer6rootfs5mountNtB6_5Mount24setup_emulated_subsystems0_0Ba_
FNDA:52,_RNvMs_NtNtCs4hmKDm3KTCY_12libcontainer6rootfs5mountNtB4_5Mount26setup_namespaced_subsystem
FNDA:10,_RNvMs_NtNtCs4hmKDm3KTCY_12libcontainer6rootfs5mountNtB4_5Mount11setup_mount
FNDA:20,_RNCNvMs_NtNtCs4hmKDm3KTCY_12libcontainer6rootfs5mountNtB6_5Mount15mount_cgroup_v10Ba_
FNDA:0,_RNCNvMs_NtNtCs4hmKDm3KTCY_12libcontainer6rootfs5mountNtB6_5Mount24setup_emulated_subsystems_0Ba_
FNDA:0,_RNCNvMs_NtNtCs4hmKDm3KTCY_12libcontainer6rootfs5mountNtB6_5Mount26setup_namespaced_subsystems_0Ba_
FNDA:0,_RNCNvMs_NtNtCs4hmKDm3KTCY_12libcontainer6rootfs5mountNtB6_5Mount20mount_into_containers0_0Ba_
FNDA:0,_RNCNvMs_NtNtCs4hmKDm3KTCY_12libcontainer6rootfs5mountNtB6_5Mount15mount_cgroup_v2s0_0Ba_
FNDA:0,_RNCNvMs_NtNtCs4hmKDm3KTCY_12libcontainer6rootfs5mountNtB6_5Mount24setup_emulated_subsystem0Ba_
FNDA:5,_RNvNtNtNtCs4hmKDm3KTCY_12libcontainer6rootfs5mount5testss_23test_mount_to_container
FNDA:6,_RNvNtNtNtCs4hmKDm3KTCY_12libcontainer6rootfs5mount5testss_31test_emulated_subsystem_success
FNDA:5,_RNvNtNtNtCs4hmKDm3KTCY_12libcontainer6rootfs5mount5testss_20test_mount_cgroup_v2
FNDA:6,_RNCNvNtNtNtCs4hmKDm3KTCY_12libcontainer6rootfs5mount5tests30test_make_parent_mount_private0B9_
FNDA:5,_RNCNvNtNtNtCs4hmKDm3KTCY_12libcontainer6rootfs5mount5tests23test_mount_to_container0B9_
FNDA:6,_RNCNvNtNtNtCs4hmKDm3KTCY_12libcontainer6rootfs5mount5tests31test_emulated_subsystem_success0B9_
FNDA:5,_RNCNvNtNtNtCs4hmKDm3KTCY_12libcontainer6rootfs5mount5tests20test_mount_cgroup_v10B9_
FNDA:5,_RNvNtNtNtCs4hmKDm3KTCY_12libcontainer6rootfs5mount5testss_20test_mount_cgroup_v1
FNDA:48,_RNCNvNtNtNtCs4hmKDm3KTCY_12libcontainer6rootfs5mount5testss_20test_mount_cgroup_v10B9_
FNDA:5,_RNCNvNtNtNtCs4hmKDm3KTCY_12libcontainer6rootfs5mount5tests20test_mount_cgroup_v20B9_
FNDA:4,_RNCNvNtNtNtCs4hmKDm3KTCY_12libcontainer6rootfs5mount5tests33test_namespaced_subsystem_success0B9_
FNDA:4,_RNvNtNtNtCs4hmKDm3KTCY_12libcontainer6rootfs5mount5testss_33test_namespaced_subsystem_success
FNDA:6,_RNvNtNtNtCs4hmKDm3KTCY_12libcontainer6rootfs5mount5testss_30test_make_parent_mount_private
FNDA:0,_RNvXs0_NtNtCs9aHzSL9YGbd_12libcontainer6rootfs5mountNtB5_12MountOptionsNtNtCshypYLURccL2_4core3fmt5Debug3fmt
FNDA:0,_RNCNvMs_NtNtCs9aHzSL9YGbd_12libcontainer6rootfs5mountNtB6_5Mount25make_parent_mount_private0Ba_
FNDA:0,_RNCNvMs_NtNtCs9aHzSL9YGbd_12libcontainer6rootfs5mountNtB6_5Mount20mount_into_containers3_0Ba_
FNDA:0,_RNCNvMs_NtNtCs9aHzSL9YGbd_12libcontainer6rootfs5mountNtB6_5Mount24setup_emulated_subsystems0_0Ba_
FNDA:0,_RNCNvMs_NtNtCs9aHzSL9YGbd_12libcontainer6rootfs5mountNtB6_5Mount15mount_cgroup_v2s0_0Ba_
FNDA:0,_RNCNvMs_NtNtCs9aHzSL9YGbd_12libcontainer6rootfs5mountNtB6_5Mount20mount_into_containers4_0Ba_
FNDA:0,_RNCNvMs_NtNtCs9aHzSL9YGbd_12libcontainer6rootfs5mountNtB6_5Mount20mount_into_containers1_0Ba_
FNDA:0,_RNvMs_NtNtCs9aHzSL9YGbd_12libcontainer6rootfs5mountNtB4_5Mount15mount_cgroup_v2
FNDA:0,_RNCNvMs_NtNtCs9aHzSL9YGbd_12libcontainer6rootfs5mountNtB6_5Mount24setup_emulated_subsystems1_0Ba_
FNDA:0,_RNvXNtNtCs9aHzSL9YGbd_12libcontainer6rootfs5mountNtB2_5MountNtNtCshypYLURccL2_4core7default7Default7default
FNDA:0,_RNCNvMs_NtNtCs9aHzSL9YGbd_12libcontainer6rootfs5mountNtB6_5Mount26setup_namespaced_subsystems_0Ba_
FNDA:0,_RNCNvMs_NtNtCs9aHzSL9YGbd_12libcontainer6rootfs5mountNtB6_5Mount15mount_cgroup_v1s1_0Ba_
FNDA:0,_RNCNvMs_NtNtCs9aHzSL9YGbd_12libcontainer6rootfs5mountNtB6_5Mount20mount_into_containers2_0Ba_
FNDA:0,_RNvMs_NtNtCs9aHzSL9YGbd_12libcontainer6rootfs5mountNtB4_5Mount25make_parent_mount_private
FNDA:0,_RNCNvMs_NtNtCs9aHzSL9YGbd_12libcontainer6rootfs5mountNtB6_5Mount20mount_into_containers0_0Ba_
FNDA:0,_RNCNvMs_NtNtCs9aHzSL9YGbd_12libcontainer6rootfs5mountNtB6_5Mount11setup_mounts_0Ba_
FNDA:0,_RNCNvMs_NtNtCs9aHzSL9YGbd_12libcontainer6rootfs5mountNtB6_5Mount20mount_into_container0Ba_
FNDA:0,_RNCNvMs_NtNtCs9aHzSL9YGbd_12libcontainer6rootfs5mountNtB6_5Mount15mount_cgroup_v1s0_0Ba_
FNDA:0,_RNCNvMs_NtNtCs9aHzSL9YGbd_12libcontainer6rootfs5mountNtB6_5Mount11setup_mount0Ba_
FNDA:0,_RNCNvMs_NtNtCs9aHzSL9YGbd_12libcontainer6rootfs5mountNtB6_5Mount15mount_cgroup_v20Ba_
FNDA:0,_RNvMs_NtNtCs9aHzSL9YGbd_12libcontainer6rootfs5mountNtB4_5Mount15mount_cgroup_v1
FNDA:0,_RNvMs_NtNtCs9aHzSL9YGbd_12libcontainer6rootfs5mountNtB4_5Mount20mount_into_container
FNDA:0,_RNCNvMs_NtNtCs9aHzSL9YGbd_12libcontainer6rootfs5mountNtB6_5Mount15mount_cgroup_v2s_0Ba_
FNDA:0,_RNCNvMs_NtNtCs9aHzSL9YGbd_12libcontainer6rootfs5mountNtB6_5Mount24setup_emulated_subsystems_0Ba_
FNDA:0,_RNCNvMs_NtNtCs9aHzSL9YGbd_12libcontainer6rootfs5mountNtB6_5Mount26setup_namespaced_subsystem0Ba_
FNDA:0,_RNvMs_NtNtCs9aHzSL9YGbd_12libcontainer6rootfs5mountNtB4_5Mount11setup_mount
FNDA:0,_RNCNvMs_NtNtCs9aHzSL9YGbd_12libcontainer6rootfs5mountNtB6_5Mount15mount_cgroup_v10Ba_
FNDA:0,_RNCNvMs_NtNtCs9aHzSL9YGbd_12libcontainer6rootfs5mountNtB6_5Mount24setup_emulated_subsystem0Ba_
FNDA:0,_RNvMs_NtNtCs9aHzSL9YGbd_12libcontainer6rootfs5mountNtB4_5Mount24setup_emulated_subsystem
FNDA:0,_RNCNvMs_NtNtCs9aHzSL9YGbd_12libcontainer6rootfs5mountNtB6_5Mount20mount_into_containers_0Ba_
FNDA:0,_RNCNvMs_NtNtCs9aHzSL9YGbd_12libcontainer6rootfs5mountNtB6_5Mount26setup_namespaced_subsystems0_0Ba_
FNDA:0,_RNvMs_NtNtCs9aHzSL9YGbd_12libcontainer6rootfs5mountNtB4_5Mount3new
FNDA:0,_RNCNvMs_NtNtCs9aHzSL9YGbd_12libcontainer6rootfs5mountNtB6_5Mount20mount_into_containers5_0Ba_
FNDA:0,_RNCNvMs_NtNtCs9aHzSL9YGbd_12libcontainer6rootfs5mountNtB6_5Mount15mount_cgroup_v1s_0Ba_
FNDA:0,_RNvMs_NtNtCs9aHzSL9YGbd_12libcontainer6rootfs5mountNtB4_5Mount26setup_namespaced_subsystem
FNF:48
FNH:27
DA:25,0
DA:37,0
DA:38,0
DA:39,0
DA:43,34
DA:44,34
DA:45,34
DA:46,34
DA:47,34
DA:49,10
DA:50,10
DA:51,10
DA:52,10
DA:53,10
DA:54,10
DA:55,0
DA:56,0
DA:58,0
DA:59,0
DA:60,0
DA:61,0
DA:62,0
DA:63,0
DA:67,10
DA:68,0
DA:69,0
DA:70,0
DA:71,0
DA:72,0
DA:73,0
DA:74,0
DA:75,0
DA:77,10
DA:78,10
DA:83,9
DA:84,9
DA:85,5
DA:86,5
DA:88,5
DA:89,5
DA:90,5
DA:91,5
DA:92,5
DA:93,5
DA:94,5
DA:95,20
DA:96,5
DA:97,5
DA:98,5
DA:99,5
DA:101,5
DA:102,5
DA:105,5
DA:106,5
DA:107,5
DA:108,48
DA:109,5
DA:110,5
DA:113,4
DA:114,4
DA:115,4
DA:116,4
DA:117,52
DA:118,4
DA:119,4
DA:121,4
DA:122,4
DA:123,4
DA:124,4
DA:125,4
DA:127,4
DA:130,48
DA:131,48
DA:132,48
DA:133,48
DA:134,48
DA:135,48
DA:136,48
DA:137,48
DA:138,48
DA:140,0
DA:141,0
DA:142,0
DA:143,0
DA:144,0
DA:145,0
DA:146,0
DA:147,0
DA:150,48
DA:152,0
DA:156,4
DA:157,4
DA:161,52
DA:162,52
DA:163,52
DA:164,52
DA:165,52
DA:166,52
DA:167,52
DA:168,52
DA:169,0
DA:170,0
DA:172,52
DA:173,52
DA:174,52
DA:175,52
DA:176,52
DA:177,52
DA:178,52
DA:179,156
DA:180,52
DA:181,52
DA:182,52
DA:183,52
DA:185,52
DA:186,4
DA:188,48
DA:191,52
DA:192,52
DA:193,52
DA:194,52
DA:195,52
DA:196,52
DA:197,52
DA:198,52
DA:199,52
DA:201,5
DA:202,5
DA:203,5
DA:204,5
DA:205,5
DA:206,5
DA:207,5
DA:208,5
DA:209,5
DA:210,5
DA:211,5
DA:212,0
DA:214,5
DA:217,5
DA:218,5
DA:219,5
DA:220,5
DA:221,5
DA:222,5
DA:223,0
DA:224,0
DA:225,0
DA:226,0
DA:227,5
DA:230,5
DA:231,5
DA:232,5
DA:233,5
DA:234,0
DA:235,0
DA:236,0
DA:237,0
DA:238,5
DA:240,5
DA:241,5
DA:242,5
DA:243,5
DA:244,10
DA:245,5
DA:246,5
DA:247,5
DA:248,5
DA:250,5
DA:251,5
DA:253,0
DA:256,5
DA:257,5
DA:259,5
DA:260,5
DA:261,5
DA:262,5
DA:263,5
DA:264,5
DA:265,5
DA:266,5
DA:268,5
DA:269,5
DA:270,5
DA:271,5
DA:272,5
DA:273,5
DA:274,5
DA:276,5
DA:277,5
DA:278,5
DA:279,5
DA:281,0
DA:282,0
DA:284,0
DA:285,0
DA:286,0
DA:287,0
DA:288,0
DA:289,0
DA:290,0
DA:292,0
DA:293,0
DA:294,0
DA:295,0
DA:296,0
DA:297,0
DA:298,0
DA:299,0
DA:301,0
DA:302,0
DA:303,0
DA:304,0
DA:305,0
DA:306,0
DA:307,0
DA:308,0
DA:309,5
DA:311,5
DA:312,5
DA:316,5
DA:317,5
DA:318,5
DA:321,5
DA:322,5
DA:323,5
DA:324,5
DA:326,5
DA:327,5
DA:328,5
DA:329,5
DA:330,5
DA:331,5
DA:332,5
DA:333,0
DA:335,4
DA:336,4
DA:338,76
DA:339,76
DA:340,76
DA:341,76
DA:342,76
DA:343,76
DA:344,76
DA:345,76
DA:346,76
DA:347,76
DA:349,76
DA:350,5
DA:351,5
DA:352,0
DA:353,5
DA:355,0
DA:356,71
DA:358,76
DA:359,76
DA:361,76
DA:362,76
DA:363,76
DA:364,76
DA:365,76
DA:366,76
DA:367,9
DA:368,9
DA:369,9
DA:370,4
DA:372,5
DA:375,9
DA:376,9
DA:378,9
DA:379,4
DA:380,4
DA:381,4
DA:382,4
DA:383,4
DA:384,5
DA:386,9
DA:388,67
DA:389,67
DA:391,67
DA:394,76
DA:395,2
DA:396,2
DA:397,0
DA:398,0
DA:399,0
DA:401,0
DA:402,0
DA:403,0
DA:404,74
DA:406,74
DA:407,9
DA:408,9
DA:409,9
DA:410,9
DA:411,9
DA:412,9
DA:413,9
DA:414,9
DA:416,4
DA:417,4
DA:418,4
DA:419,70
DA:421,74
DA:422,74
DA:434,5
DA:435,5
DA:436,5
DA:437,5
DA:438,5
DA:439,5
DA:440,5
DA:441,5
DA:442,5
DA:443,5
DA:444,5
DA:445,5
DA:446,5
DA:447,5
DA:448,5
DA:449,5
DA:450,5
DA:451,5
DA:452,5
DA:453,5
DA:454,5
DA:455,5
DA:456,5
DA:457,5
DA:459,5
DA:460,5
DA:461,5
DA:462,5
DA:463,5
DA:464,5
DA:465,5
DA:466,5
DA:467,5
DA:468,5
DA:469,5
DA:470,5
DA:471,5
DA:472,5
DA:473,5
DA:474,5
DA:475,5
DA:478,5
DA:479,5
DA:480,5
DA:481,5
DA:482,5
DA:483,5
DA:484,5
DA:485,5
DA:486,5
DA:487,5
DA:488,5
DA:489,5
DA:490,5
DA:491,5
DA:492,5
DA:493,5
DA:494,5
DA:495,5
DA:497,5
DA:498,5
DA:499,5
DA:500,5
DA:501,5
DA:502,5
DA:503,5
DA:504,5
DA:505,5
DA:506,5
DA:507,5
DA:508,5
DA:509,5
DA:510,5
DA:511,5
DA:512,5
DA:513,5
DA:514,5
DA:515,5
DA:516,5
DA:517,5
DA:518,5
DA:519,5
DA:520,5
DA:521,5
DA:523,5
DA:525,6
DA:526,6
DA:527,6
DA:528,6
DA:529,6
DA:531,6
DA:532,6
DA:533,6
DA:534,6
DA:535,6
DA:536,6
DA:537,6
DA:538,6
DA:540,6
DA:541,6
DA:542,6
DA:543,6
DA:544,6
DA:548,6
DA:549,6
DA:551,4
DA:552,4
DA:553,4
DA:554,4
DA:555,4
DA:556,4
DA:558,4
DA:559,4
DA:560,4
DA:561,4
DA:562,4
DA:563,4
DA:565,4
DA:566,4
DA:567,4
DA:568,4
DA:569,4
DA:570,4
DA:571,4
DA:572,4
DA:573,4
DA:574,4
DA:575,4
DA:577,4
DA:578,4
DA:579,4
DA:580,4
DA:581,4
DA:582,4
DA:583,4
DA:584,4
DA:585,4
DA:586,4
DA:587,4
DA:588,4
DA:589,4
DA:590,4
DA:591,4
DA:592,4
DA:593,4
DA:595,4
DA:596,4
DA:598,6
DA:599,6
DA:601,6
DA:602,6
DA:603,6
DA:604,6
DA:606,6
DA:607,6
DA:609,6
DA:610,6
DA:611,6
DA:612,6
DA:613,6
DA:614,6
DA:616,6
DA:617,6
DA:618,6
DA:619,6
DA:620,6
DA:621,6
DA:622,6
DA:623,6
DA:624,6
DA:625,6
DA:626,6
DA:627,6
DA:628,6
DA:629,6
DA:630,6
DA:631,6
DA:632,6
DA:633,6
DA:634,6
DA:635,6
DA:636,6
DA:639,6
DA:640,6
DA:641,6
DA:642,6
DA:643,6
DA:644,6
DA:645,6
DA:646,6
DA:647,6
DA:648,6
DA:649,6
DA:650,6
DA:651,6
DA:652,6
DA:653,6
DA:654,6
DA:655,6
DA:657,5
DA:658,5
DA:660,5
DA:661,5
DA:663,5
DA:664,5
DA:666,5
DA:667,5
DA:668,5
DA:669,5
DA:670,5
DA:671,5
DA:673,5
DA:674,5
DA:675,5
DA:676,5
DA:677,5
DA:678,5
DA:679,5
DA:680,5
DA:681,5
DA:682,5
DA:683,5
DA:684,5
DA:687,5
DA:688,5
DA:689,5
DA:690,5
DA:691,5
DA:692,5
DA:693,5
DA:695,5
DA:696,5
DA:698,5
DA:699,5
DA:700,5
DA:701,5
DA:702,5
DA:703,5
DA:704,5
DA:705,5
DA:707,48
DA:708,48
DA:709,48
DA:710,48
DA:711,48
DA:712,48
DA:713,48
DA:714,48
DA:715,48
DA:716,4
DA:718,44
DA:720,48
DA:721,48
DA:722,48
DA:723,48
DA:726,4
DA:727,4
DA:729,5
DA:730,5
DA:732,5
DA:733,5
DA:735,5
DA:736,5
DA:737,5
DA:738,5
DA:739,5
DA:740,5
DA:742,5
DA:743,5
DA:744,5
DA:745,5
DA:746,5
DA:747,5
DA:748,5
DA:749,5
DA:750,5
DA:751,5
DA:752,5
DA:753,5
DA:754,5
DA:757,5
DA:758,5
DA:759,5
DA:760,5
DA:761,5
DA:762,5
DA:763,5
DA:764,5
DA:765,5
DA:766,5
DA:767,5
DA:768,5
DA:769,5
DA:770,5
DA:771,5
DA:772,5
DA:773,5
DA:775,4
DA:776,4
BRF:0
BRH:0
LF:632
LH:537
end_of_record
SF:crates/libcontainer/src/rootfs/rootfs.rs
FN:19,_RNvXNtNtCs9aHzSL9YGbd_12libcontainer6rootfs6rootfsNtB2_6RootFSNtNtCshypYLURccL2_4core7default7Default7default
FN:106,_RNvMs_NtNtCs9aHzSL9YGbd_12libcontainer6rootfs6rootfsNtB4_6RootFS29adjust_root_mount_propagation
FN:25,_RNvMs_NtNtCs9aHzSL9YGbd_12libcontainer6rootfs6rootfsNtB4_6RootFS3new
FN:78,_RNCNvMs_NtNtCs9aHzSL9YGbd_12libcontainer6rootfs6rootfsNtB6_6RootFS14prepare_rootfs0Ba_
FN:31,_RNvMs_NtNtCs9aHzSL9YGbd_12libcontainer6rootfs6rootfsNtB4_6RootFS14prepare_rootfs
FNDA:0,_RNvXNtNtCs9aHzSL9YGbd_12libcontainer6rootfs6rootfsNtB2_6RootFSNtNtCshypYLURccL2_4core7default7Default7default
FNDA:0,_RNvMs_NtNtCs9aHzSL9YGbd_12libcontainer6rootfs6rootfsNtB4_6RootFS29adjust_root_mount_propagation
FNDA:0,_RNvMs_NtNtCs9aHzSL9YGbd_12libcontainer6rootfs6rootfsNtB4_6RootFS3new
FNDA:0,_RNCNvMs_NtNtCs9aHzSL9YGbd_12libcontainer6rootfs6rootfsNtB6_6RootFS14prepare_rootfs0Ba_
FNDA:0,_RNvMs_NtNtCs9aHzSL9YGbd_12libcontainer6rootfs6rootfsNtB4_6RootFS14prepare_rootfs
FNF:5
FNH:0
DA:19,0
DA:20,0
DA:21,0
DA:25,0
DA:26,0
DA:27,0
DA:28,0
DA:29,0
DA:31,0
DA:32,0
DA:33,0
DA:34,0
DA:35,0
DA:36,0
DA:37,0
DA:38,0
DA:39,0
DA:40,0
DA:42,0
DA:43,0
DA:44,0
DA:45,0
DA:46,0
DA:49,0
DA:50,0
DA:51,0
DA:53,0
DA:54,0
DA:55,0
DA:56,0
DA:57,0
DA:59,0
DA:60,0
DA:61,0
DA:62,0
DA:63,0
DA:64,0
DA:65,0
DA:66,0
DA:68,0
DA:69,0
DA:70,0
DA:71,0
DA:72,0
DA:74,0
DA:75,0
DA:76,0
DA:77,0
DA:78,0
DA:80,0
DA:82,0
DA:83,0
DA:84,0
DA:85,0
DA:86,0
DA:87,0
DA:88,0
DA:90,0
DA:91,0
DA:92,0
DA:93,0
DA:94,0
DA:95,0
DA:96,0
DA:98,0
DA:99,0
DA:101,0
DA:102,0
DA:103,0
DA:106,0
DA:107,0
DA:108,0
DA:109,0
DA:110,0
DA:111,0
DA:114,0
DA:115,0
DA:116,0
DA:117,0
DA:118,0
DA:120,0
DA:121,0
BRF:0
BRH:0
LF:83
LH:0
end_of_record
SF:crates/libcontainer/src/rootfs/symlink.rs
FN:137,_RNvNtNtNtCs4hmKDm3KTCY_12libcontainer6rootfs7symlink5testss_27test_setup_default_symlinks
FN:169,_RNvNtNtNtCs4hmKDm3KTCY_12libcontainer6rootfs7symlink5testss_32setup_comounted_symlinks_success
FN:211,_RNvNtNtNtCs4hmKDm3KTCY_12libcontainer6rootfs7symlink5testss_36setup_comounted_symlinks_no_comounts
FN:168,_RNCNvNtNtNtCs4hmKDm3KTCY_12libcontainer6rootfs7symlink5tests32setup_comounted_symlinks_success0B9_
FN:136,_RNCNvNtNtNtCs4hmKDm3KTCY_12libcontainer6rootfs7symlink5tests27test_setup_default_symlinks0B9_
FN:210,_RNCNvNtNtNtCs4hmKDm3KTCY_12libcontainer6rootfs7symlink5tests36setup_comounted_symlinks_no_comounts0B9_
FN:97,_RNvNtNtNtCs4hmKDm3KTCY_12libcontainer6rootfs7symlink5testss_15test_setup_ptmx
FN:96,_RNCNvNtNtNtCs4hmKDm3KTCY_12libcontainer6rootfs7symlink5tests15test_setup_ptmx0B9_
FN:11,_RNvXNtNtCs4hmKDm3KTCY_12libcontainer6rootfs7symlinkNtB2_7SymlinkNtNtCshypYLURccL2_4core7default7Default7default
FN:66,_RNvMs_NtNtCs4hmKDm3KTCY_12libcontainer6rootfs7symlinkNtB4_7Symlink22setup_default_symlinks
FN:17,_RNvMs_NtNtCs4hmKDm3KTCY_12libcontainer6rootfs7symlinkNtB4_7Symlink3new
FN:41,_RNvMs_NtNtCs4hmKDm3KTCY_12libcontainer6rootfs7symlinkNtB4_7Symlink10setup_ptmx
FN:35,_RNCNvMs_NtNtCs4hmKDm3KTCY_12libcontainer6rootfs7symlinkNtB6_7Symlink22setup_comount_symlinks0Ba_
FN:26,_RNvMs_NtNtCs4hmKDm3KTCY_12libcontainer6rootfs7symlinkNtB4_7Symlink22setup_comount_symlinks
FN:21,_RNvMs_NtNtCs4hmKDm3KTCY_12libcontainer6rootfs7symlinkNtB4_7Symlink12with_syscall
FN:57,_RNvMs_NtNtCs4hmKDm3KTCY_12libcontainer6rootfs7symlinkNtB4_7Symlink19setup_kcore_symlink
FN:26,_RNvMs_NtNtCs9aHzSL9YGbd_12libcontainer6rootfs7symlinkNtB4_7Symlink22setup_comount_symlinks
FN:17,_RNvMs_NtNtCs9aHzSL9YGbd_12libcontainer6rootfs7symlinkNtB4_7Symlink3new
FN:11,_RNvXNtNtCs9aHzSL9YGbd_12libcontainer6rootfs7symlinkNtB2_7SymlinkNtNtCshypYLURccL2_4core7default7Default7default
FN:35,_RNCNvMs_NtNtCs9aHzSL9YGbd_12libcontainer6rootfs7symlinkNtB6_7Symlink22setup_comount_symlinks0Ba_
FN:66,_RNvMs_NtNtCs9aHzSL9YGbd_12libcontainer6rootfs7symlinkNtB4_7Symlink22setup_default_symlinks
FN:57,_RNvMs_NtNtCs9aHzSL9YGbd_12libcontainer6rootfs7symlinkNtB4_7Symlink19setup_kcore_symlink
FN:41,_RNvMs_NtNtCs9aHzSL9YGbd_12libcontainer6rootfs7symlinkNtB4_7Symlink10setup_ptmx
FN:21,_RNvMs_NtNtCs9aHzSL9YGbd_12libcontainer6rootfs7symlinkNtB4_7Symlink12with_syscall
FNDA:4,_RNvNtNtNtCs4hmKDm3KTCY_12libcontainer6rootfs7symlink5testss_27test_setup_default_symlinks
FNDA:4,_RNvNtNtNtCs4hmKDm3KTCY_12libcontainer6rootfs7symlink5testss_32setup_comounted_symlinks_success
FNDA:4,_RNvNtNtNtCs4hmKDm3KTCY_12libcontainer6rootfs7symlink5testss_36setup_comounted_symlinks_no_comounts
FNDA:4,_RNCNvNtNtNtCs4hmKDm3KTCY_12libcontainer6rootfs7symlink5tests32setup_comounted_symlinks_success0B9_
FNDA:4,_RNCNvNtNtNtCs4hmKDm3KTCY_12libcontainer6rootfs7symlink5tests27test_setup_default_symlinks0B9_
FNDA:4,_RNCNvNtNtNtCs4hmKDm3KTCY_12libcontainer6rootfs7symlink5tests36setup_comounted_symlinks_no_comounts0B9_
FNDA:4,_RNvNtNtNtCs4hmKDm3KTCY_12libcontainer6rootfs7symlink5testss_15test_setup_ptmx
FNDA:4,_RNCNvNtNtNtCs4hmKDm3KTCY_12libcontainer6rootfs7symlink5tests15test_setup_ptmx0B9_
FNDA:0,_RNvXNtNtCs4hmKDm3KTCY_12libcontainer6rootfs7symlinkNtB2_7SymlinkNtNtCshypYLURccL2_4core7default7Default7default
FNDA:4,_RNvMs_NtNtCs4hmKDm3KTCY_12libcontainer6rootfs7symlinkNtB4_7Symlink22setup_default_symlinks
FNDA:16,_RNvMs_NtNtCs4hmKDm3KTCY_12libcontainer6rootfs7symlinkNtB4_7Symlink3new
FNDA:8,_RNvMs_NtNtCs4hmKDm3KTCY_12libcontainer6rootfs7symlinkNtB4_7Symlink10setup_ptmx
FNDA:0,_RNCNvMs_NtNtCs4hmKDm3KTCY_12libcontainer6rootfs7symlinkNtB6_7Symlink22setup_comount_symlinks0Ba_
FNDA:56,_RNvMs_NtNtCs4hmKDm3KTCY_12libcontainer6rootfs7symlinkNtB4_7Symlink22setup_comount_symlinks
FNDA:24,_RNvMs_NtNtCs4hmKDm3KTCY_12libcontainer6rootfs7symlinkNtB4_7Symlink12with_syscall
FNDA:0,_RNvMs_NtNtCs4hmKDm3KTCY_12libcontainer6rootfs7symlinkNtB4_7Symlink19setup_kcore_symlink
FNDA:0,_RNvMs_NtNtCs9aHzSL9YGbd_12libcontainer6rootfs7symlinkNtB4_7Symlink22setup_comount_symlinks
FNDA:0,_RNvMs_NtNtCs9aHzSL9YGbd_12libcontainer6rootfs7symlinkNtB4_7Symlink3new
FNDA:0,_RNvXNtNtCs9aHzSL9YGbd_12libcontainer6rootfs7symlinkNtB2_7SymlinkNtNtCshypYLURccL2_4core7default7Default7default
FNDA:0,_RNCNvMs_NtNtCs9aHzSL9YGbd_12libcontainer6rootfs7symlinkNtB6_7Symlink22setup_comount_symlinks0Ba_
FNDA:0,_RNvMs_NtNtCs9aHzSL9YGbd_12libcontainer6rootfs7symlinkNtB4_7Symlink22setup_default_symlinks
FNDA:0,_RNvMs_NtNtCs9aHzSL9YGbd_12libcontainer6rootfs7symlinkNtB4_7Symlink19setup_kcore_symlink
FNDA:0,_RNvMs_NtNtCs9aHzSL9YGbd_12libcontainer6rootfs7symlinkNtB4_7Symlink10setup_ptmx
FNDA:0,_RNvMs_NtNtCs9aHzSL9YGbd_12libcontainer6rootfs7symlinkNtB4_7Symlink12with_syscall
FNF:16
FNH:13
DA:11,0
DA:12,0
DA:13,0
DA:17,16
DA:18,16
DA:19,16
DA:21,24
DA:22,24
DA:23,24
DA:26,56
DA:27,56
DA:28,40
DA:29,16
DA:31,32
DA:32,32
DA:33,32
DA:34,32
DA:35,32
DA:38,16
DA:39,56
DA:41,8
DA:42,8
DA:43,8
DA:44,8
DA:45,4
DA:46,4
DA:47,0
DA:49,4
DA:50,4
DA:51,4
DA:52,4
DA:53,8
DA:57,0
DA:58,0
DA:59,0
DA:60,0
DA:61,0
DA:62,0
DA:63,0
DA:64,0
DA:66,4
DA:67,4
DA:68,4
DA:69,4
DA:70,4
DA:71,4
DA:72,4
DA:73,20
DA:74,16
DA:75,16
DA:76,16
DA:79,4
DA:80,4
DA:96,4
DA:97,4
DA:98,4
DA:99,4
DA:100,4
DA:101,4
DA:102,4
DA:103,4
DA:104,4
DA:105,4
DA:106,4
DA:107,4
DA:108,4
DA:109,4
DA:113,4
DA:114,4
DA:115,4
DA:116,4
DA:117,4
DA:118,4
DA:119,4
DA:120,4
DA:121,4
DA:122,4
DA:123,4
DA:124,4
DA:125,4
DA:126,4
DA:127,4
DA:128,4
DA:129,4
DA:130,4
DA:131,4
DA:132,4
DA:134,4
DA:136,4
DA:137,4
DA:138,4
DA:139,4
DA:140,4
DA:141,4
DA:142,4
DA:143,4
DA:144,4
DA:145,4
DA:146,4
DA:147,4
DA:148,4
DA:149,4
DA:150,4
DA:151,4
DA:152,4
DA:153,4
DA:154,4
DA:155,4
DA:156,4
DA:157,4
DA:158,4
DA:159,4
DA:160,4
DA:161,4
DA:162,4
DA:163,4
DA:164,4
DA:165,4
DA:166,4
DA:168,4
DA:169,4
DA:171,4
DA:172,4
DA:173,4
DA:174,4
DA:175,4
DA:176,4
DA:177,4
DA:178,4
DA:179,4
DA:180,4
DA:181,4
DA:184,4
DA:185,4
DA:187,4
DA:188,4
DA:189,0
DA:191,4
DA:192,4
DA:193,0
DA:196,4
DA:197,4
DA:198,4
DA:199,0
DA:201,4
DA:202,4
DA:203,4
DA:204,0
DA:207,4
DA:208,4
DA:210,4
DA:211,4
DA:213,4
DA:214,4
DA:215,4
DA:216,4
DA:217,4
DA:218,4
DA:219,4
DA:220,4
DA:221,4
DA:222,4
DA:223,4
DA:224,4
BRF:0
BRH:0
LF:165
LH:148
end_of_record
SF:crates/libcontainer/src/rootfs/utils.rs
FN:140,_RNCNvNtNtNtCs4hmKDm3KTCY_12libcontainer6rootfs5utils5tests22test_find_parent_mount0B9_
FN:176,_RNvNtNtNtCs4hmKDm3KTCY_12libcontainer6rootfs5utils5testss_45test_find_parent_mount_with_empty_mount_infos
FN:182,_RNCNvNtNtNtCs4hmKDm3KTCY_12libcontainer6rootfs5utils5tests13test_to_sflag0B9_
FN:195,_RNvNtNtNtCs4hmKDm3KTCY_12libcontainer6rootfs5utils5testss_16test_parse_mount
FN:141,_RNvNtNtNtCs4hmKDm3KTCY_12libcontainer6rootfs5utils5testss_22test_find_parent_mount
FN:175,_RNCNvNtNtNtCs4hmKDm3KTCY_12libcontainer6rootfs5utils5tests45test_find_parent_mount_with_empty_mount_infos0B9_
FN:194,_RNCNvNtNtNtCs4hmKDm3KTCY_12libcontainer6rootfs5utils5tests16test_parse_mount0B9_
FN:183,_RNvNtNtNtCs4hmKDm3KTCY_12libcontainer6rootfs5utils5testss_13test_to_sflag
FN:128,_RNCNvNtNtCs4hmKDm3KTCY_12libcontainer6rootfs5utils17find_parent_mount0B7_
FN:60,_RNvNtNtCs4hmKDm3KTCY_12libcontainer6rootfs5utils8to_sflag
FN:130,_RNCNvNtNtCs4hmKDm3KTCY_12libcontainer6rootfs5utils17find_parent_mounts0_0B7_
FN:129,_RNCNvNtNtCs4hmKDm3KTCY_12libcontainer6rootfs5utils17find_parent_mounts_0B7_
FN:124,_RNvNtNtCs4hmKDm3KTCY_12libcontainer6rootfs5utils17find_parent_mount
FN:7,_RNvNtNtCs4hmKDm3KTCY_12libcontainer6rootfs5utils15default_devices
FN:69,_RNvNtNtCs4hmKDm3KTCY_12libcontainer6rootfs5utils11parse_mount
FN:130,_RNCNvNtNtCs9aHzSL9YGbd_12libcontainer6rootfs5utils17find_parent_mounts0_0B7_
FN:128,_RNCNvNtNtCs9aHzSL9YGbd_12libcontainer6rootfs5utils17find_parent_mount0B7_
FN:129,_RNCNvNtNtCs9aHzSL9YGbd_12libcontainer6rootfs5utils17find_parent_mounts_0B7_
FN:124,_RNvNtNtCs9aHzSL9YGbd_12libcontainer6rootfs5utils17find_parent_mount
FN:69,_RNvNtNtCs9aHzSL9YGbd_12libcontainer6rootfs5utils11parse_mount
FN:7,_RNvNtNtCs9aHzSL9YGbd_12libcontainer6rootfs5utils15default_devices
FN:60,_RNvNtNtCs9aHzSL9YGbd_12libcontainer6rootfs5utils8to_sflag
FNDA:4,_RNCNvNtNtNtCs4hmKDm3KTCY_12libcontainer6rootfs5utils5tests22test_find_parent_mount0B9_
FNDA:4,_RNvNtNtNtCs4hmKDm3KTCY_12libcontainer6rootfs5utils5testss_45test_find_parent_mount_with_empty_mount_infos
FNDA:4,_RNCNvNtNtNtCs4hmKDm3KTCY_12libcontainer6rootfs5utils5tests13test_to_sflag0B9_
FNDA:4,_RNvNtNtNtCs4hmKDm3KTCY_12libcontainer6rootfs5utils5testss_16test_parse_mount
FNDA:4,_RNvNtNtNtCs4hmKDm3KTCY_12libcontainer6rootfs5utils5testss_22test_find_parent_mount
FNDA:4,_RNCNvNtNtNtCs4hmKDm3KTCY_12libcontainer6rootfs5utils5tests45test_find_parent_mount_with_empty_mount_infos0B9_
FNDA:4,_RNCNvNtNtNtCs4hmKDm3KTCY_12libcontainer6rootfs5utils5tests16test_parse_mount0B9_
FNDA:4,_RNvNtNtNtCs4hmKDm3KTCY_12libcontainer6rootfs5utils5testss_13test_to_sflag
FNDA:304,_RNCNvNtNtCs4hmKDm3KTCY_12libcontainer6rootfs5utils17find_parent_mount0B7_
FNDA:32,_RNvNtNtCs4hmKDm3KTCY_12libcontainer6rootfs5utils8to_sflag
FNDA:4,_RNCNvNtNtCs4hmKDm3KTCY_12libcontainer6rootfs5utils17find_parent_mounts0_0B7_
FNDA:0,_RNCNvNtNtCs4hmKDm3KTCY_12libcontainer6rootfs5utils17find_parent_mounts_0B7_
FNDA:12,_RNvNtNtCs4hmKDm3KTCY_12libcontainer6rootfs5utils17find_parent_mount
FNDA:0,_RNvNtNtCs4hmKDm3KTCY_12libcontainer6rootfs5utils15default_devices
FNDA:51,_RNvNtNtCs4hmKDm3KTCY_12libcontainer6rootfs5utils11parse_mount
FNDA:0,_RNCNvNtNtCs9aHzSL9YGbd_12libcontainer6rootfs5utils17find_parent_mounts0_0B7_
FNDA:0,_RNCNvNtNtCs9aHzSL9YGbd_12libcontainer6rootfs5utils17find_parent_mount0B7_
FNDA:0,_RNCNvNtNtCs9aHzSL9YGbd_12libcontainer6rootfs5utils17find_parent_mounts_0B7_
FNDA:0,_RNvNtNtCs9aHzSL9YGbd_12libcontainer6rootfs5utils17find_parent_mount
FNDA:0,_RNvNtNtCs9aHzSL9YGbd_12libcontainer6rootfs5utils11parse_mount
FNDA:0,_RNvNtNtCs9aHzSL9YGbd_12libcontainer6rootfs5utils15default_devices
FNDA:0,_RNvNtNtCs9aHzSL9YGbd_12libcontainer6rootfs5utils8to_sflag
FNF:15
FNH:13
DA:7,0
DA:8,0
DA:9,0
DA:10,0
DA:11,0
DA:12,0
DA:13,0
DA:14,0
DA:15,0
DA:16,0
DA:17,0
DA:18,0
DA:19,0
DA:20,0
DA:21,0
DA:22,0
DA:23,0
DA:24,0
DA:25,0
DA:26,0
DA:27,0
DA:28,0
DA:29,0
DA:30,0
DA:31,0
DA:32,0
DA:33,0
DA:34,0
DA:35,0
DA:36,0
DA:37,0
DA:38,0
DA:39,0
DA:40,0
DA:41,0
DA:42,0
DA:43,0
DA:44,0
DA:45,0
DA:46,0
DA:47,0
DA:48,0
DA:49,0
DA:50,0
DA:51,0
DA:52,0
DA:53,0
DA:54,0
DA:55,0
DA:56,0
DA:57,0
DA:58,0
DA:60,32
DA:61,32
DA:62,4
DA:63,4
DA:64,20
DA:65,4
DA:67,32
DA:69,51
DA:70,51
DA:71,51
DA:72,51
DA:73,304
DA:74,304
DA:75,304
DA:76,300
DA:77,284
DA:78,275
DA:79,271
DA:80,233
DA:81,229
DA:82,204
DA:83,200
DA:84,166
DA:85,162
DA:86,158
DA:87,154
DA:88,150
DA:89,146
DA:90,142
DA:91,138
DA:92,134
DA:93,130
DA:94,126
DA:95,122
DA:96,113
DA:97,109
DA:98,105
DA:99,101
DA:100,97
DA:101,93
DA:102,89
DA:103,85
DA:104,81
DA:105,73
DA:106,69
DA:107,61
DA:108,57
DA:110,247
DA:111,85
DA:112,162
DA:113,162
DA:114,162
DA:115,57
DA:116,57
DA:117,57
DA:119,4
DA:120,51
DA:121,51
DA:124,12
DA:126,12
DA:127,12
DA:128,304
DA:129,12
DA:130,12
DA:131,8
DA:132,12
DA:140,4
DA:141,4
DA:142,4
DA:143,4
DA:144,4
DA:145,4
DA:146,4
DA:147,4
DA:148,4
DA:149,4
DA:150,4
DA:151,4
DA:152,4
DA:153,4
DA:154,4
DA:155,4
DA:156,4
DA:157,4
DA:158,4
DA:159,4
DA:160,4
DA:161,4
DA:162,4
DA:163,4
DA:164,4
DA:165,4
DA:166,4
DA:167,4
DA:169,4
DA:170,4
DA:171,4
DA:172,4
DA:173,4
DA:175,4
DA:176,4
DA:177,4
DA:178,4
DA:179,4
DA:180,4
DA:182,4
DA:183,4
DA:184,4
DA:185,4
DA:186,4
DA:187,4
DA:188,4
DA:189,4
DA:190,4
DA:191,4
DA:192,4
DA:194,4
DA:195,4
DA:196,4
DA:197,4
DA:198,4
DA:199,4
DA:200,4
DA:201,4
DA:202,4
DA:203,4
DA:204,4
DA:205,4
DA:206,4
DA:207,4
DA:208,4
DA:209,4
DA:210,4
DA:211,4
DA:212,4
DA:213,4
DA:214,4
DA:215,4
DA:216,4
DA:217,4
DA:218,4
DA:219,4
DA:220,4
DA:221,4
DA:222,4
DA:223,4
DA:224,4
DA:225,4
DA:226,4
DA:227,4
DA:228,4
DA:229,4
DA:230,4
DA:231,4
DA:232,4
DA:233,4
DA:234,4
DA:235,4
DA:236,4
DA:237,4
DA:238,4
DA:239,4
DA:240,4
DA:241,4
DA:242,4
DA:243,4
DA:244,4
DA:245,4
DA:246,4
DA:247,4
DA:248,4
DA:249,4
DA:250,4
DA:251,4
DA:252,4
DA:253,4
DA:254,4
DA:255,4
DA:256,4
DA:257,4
DA:258,4
DA:259,4
DA:260,4
DA:261,4
DA:262,4
DA:263,4
DA:264,4
DA:265,4
DA:266,4
DA:267,4
DA:268,4
DA:269,4
DA:270,4
DA:271,4
DA:272,4
DA:273,4
DA:274,4
DA:275,4
DA:276,4
DA:277,4
DA:278,4
DA:279,4
DA:280,4
DA:281,4
DA:282,4
DA:283,4
DA:284,4
DA:285,4
DA:286,4
DA:287,4
DA:288,4
DA:289,4
DA:290,4
DA:291,4
DA:292,4
DA:293,4
DA:294,4
DA:295,4
DA:296,4
DA:297,4
DA:298,4
DA:299,4
DA:300,4
DA:301,4
DA:302,4
DA:303,4
DA:304,4
DA:305,4
DA:306,4
DA:307,4
DA:308,4
DA:309,4
DA:310,4
DA:311,4
DA:312,4
DA:313,4
DA:314,4
DA:315,4
DA:316,4
DA:317,4
DA:318,4
DA:319,4
DA:320,4
DA:321,4
DA:322,4
DA:323,4
DA:324,4
DA:325,4
DA:326,4
DA:328,4
DA:329,4
DA:330,4
DA:331,4
DA:332,4
DA:333,4
DA:334,4
DA:335,4
DA:336,4
DA:337,4
DA:338,4
DA:339,4
DA:340,4
DA:341,4
DA:342,4
DA:343,4
DA:344,4
DA:345,4
DA:346,4
DA:347,4
DA:348,4
DA:349,4
DA:350,4
DA:351,4
DA:352,4
DA:353,4
DA:354,4
DA:355,4
DA:356,4
DA:357,4
DA:358,4
DA:359,4
DA:360,4
DA:361,4
DA:362,4
DA:363,4
DA:364,4
DA:365,4
DA:366,4
DA:367,4
DA:368,4
DA:369,4
DA:370,4
DA:371,4
DA:372,4
DA:373,4
DA:374,4
DA:375,4
DA:376,4
DA:377,4
DA:378,4
DA:379,4
DA:380,4
DA:381,4
DA:382,4
BRF:0
BRH:0
LF:359
LH:306
end_of_record
SF:crates/libcontainer/src/rootless.rs
FN:126,_RNvNtCs4hmKDm3KTCY_12libcontainer8rootless8validate
FN:238,_RNCNvNtCs4hmKDm3KTCY_12libcontainer8rootless17lookup_map_binarys_0B5_
FN:10,_RNvXs1_NtCs4hmKDm3KTCY_12libcontainer8rootlessNtB5_8RootlessNtNtCshypYLURccL2_4core5clone5Clone5cloneB7_
FN:108,_RNvNtCs4hmKDm3KTCY_12libcontainer8rootless28unprivileged_user_ns_enabled
FN:100,_RNvNtCs4hmKDm3KTCY_12libcontainer8rootless17rootless_required
FN:55,_RNvMNtCs4hmKDm3KTCY_12libcontainer8rootlessNtB2_8Rootless17write_uid_mapping
FN:10,_RNvXs0_NtCs4hmKDm3KTCY_12libcontainer8rootlessNtB5_8RootlessNtNtCshypYLURccL2_4core3fmt5Debug3fmt
FN:27,_RNvMNtCs4hmKDm3KTCY_12libcontainer8rootlessNtB2_8Rootless3new
FN:159,_RNCNvNtCs4hmKDm3KTCY_12libcontainer8rootless8validate0B5_
FN:254,_RNCNvNtCs4hmKDm3KTCY_12libcontainer8rootless16write_id_mapping0B5_
FN:261,_RNCNvNtCs4hmKDm3KTCY_12libcontainer8rootless16write_id_mappings_0B5_
FN:237,_RNCNvNtCs4hmKDm3KTCY_12libcontainer8rootless17lookup_map_binary0B5_
FN:207,_RNvNtCs4hmKDm3KTCY_12libcontainer8rootless12is_id_mapped
FN:69,_RNvMNtCs4hmKDm3KTCY_12libcontainer8rootlessNtB2_8Rootless17write_gid_mapping
FN:10,_RNvXs2_NtCs4hmKDm3KTCY_12libcontainer8rootlessNtB5_8RootlessNtNtCshypYLURccL2_4core7default7Default7defaultB7_
FN:185,_RNvNtCs4hmKDm3KTCY_12libcontainer8rootless15validate_mounts
FN:210,_RNCNvNtCs4hmKDm3KTCY_12libcontainer8rootless12is_id_mapped0B5_
FN:241,_RNvNtCs4hmKDm3KTCY_12libcontainer8rootless16write_id_mapping
FN:233,_RNvNtCs4hmKDm3KTCY_12libcontainer8rootless17lookup_map_binary
FN:274,_RNCNvNtCs4hmKDm3KTCY_12libcontainer8rootless16write_id_mappings0_0B5_
FN:85,_RNvXs_NtCs4hmKDm3KTCY_12libcontainer8rootlessNtB4_8RootlessINtNtCshypYLURccL2_4core7convert4FromRNtNtNtCsavfOPrTag7s_8oci_spec7runtime5linux5LinuxE4from
FN:216,_RNvNtCs4hmKDm3KTCY_12libcontainer8rootless19lookup_map_binaries
FN:233,_RNvNtCs9aHzSL9YGbd_12libcontainer8rootless17lookup_map_binary
FN:185,_RNvNtCs9aHzSL9YGbd_12libcontainer8rootless15validate_mounts
FN:85,_RNvXs_NtCs9aHzSL9YGbd_12libcontainer8rootlessNtB4_8RootlessINtNtCshypYLURccL2_4core7convert4FromRNtNtNtCsavfOPrTag7s_8oci_spec7runtime5linux5LinuxE4from
FN:254,_RNCNvNtCs9aHzSL9YGbd_12libcontainer8rootless16write_id_mapping0B5_
FN:55,_RNvMNtCs9aHzSL9YGbd_12libcontainer8rootlessNtB2_8Rootless17write_uid_mapping
FN:274,_RNCNvNtCs9aHzSL9YGbd_12libcontainer8rootless16write_id_mappings0_0B5_
FN:69,_RNvMNtCs9aHzSL9YGbd_12libcontainer8rootlessNtB2_8Rootless17write_gid_mapping
FN:159,_RNCNvNtCs9aHzSL9YGbd_12libcontainer8rootless8validate0B5_
FN:261,_RNCNvNtCs9aHzSL9YGbd_12libcontainer8rootless16write_id_mappings_0B5_
FN:210,_RNCNvNtCs9aHzSL9YGbd_12libcontainer8rootless12is_id_mapped0B5_
FN:10,_RNvXs2_NtCs9aHzSL9YGbd_12libcontainer8rootlessNtB5_8RootlessNtNtCshypYLURccL2_4core7default7Default7defaultB7_
FN:237,_RNCNvNtCs9aHzSL9YGbd_12libcontainer8rootless17lookup_map_binary0B5_
FN:207,_RNvNtCs9aHzSL9YGbd_12libcontainer8rootless12is_id_mapped
FN:27,_RNvMNtCs9aHzSL9YGbd_12libcontainer8rootlessNtB2_8Rootless3new
FN:100,_RNvNtCs9aHzSL9YGbd_12libcontainer8rootless17rootless_required
FN:241,_RNvNtCs9aHzSL9YGbd_12libcontainer8rootless16write_id_mapping
FN:10,_RNvXs0_NtCs9aHzSL9YGbd_12libcontainer8rootlessNtB5_8RootlessNtNtCshypYLURccL2_4core3fmt5Debug3fmt
FN:216,_RNvNtCs9aHzSL9YGbd_12libcontainer8rootless19lookup_map_binaries
FN:126,_RNvNtCs9aHzSL9YGbd_12libcontainer8rootless8validate
FN:10,_RNvXs1_NtCs9aHzSL9YGbd_12libcontainer8rootlessNtB5_8RootlessNtNtCshypYLURccL2_4core5clone5Clone5cloneB7_
FN:108,_RNvNtCs9aHzSL9YGbd_12libcontainer8rootless28unprivileged_user_ns_enabled
FN:238,_RNCNvNtCs9aHzSL9YGbd_12libcontainer8rootless17lookup_map_binarys_0B5_
FNDA:0,_RNvNtCs4hmKDm3KTCY_12libcontainer8rootless8validate
FNDA:0,_RNCNvNtCs4hmKDm3KTCY_12libcontainer8rootless17lookup_map_binarys_0B5_
FNDA:0,_RNvXs1_NtCs4hmKDm3KTCY_12libcontainer8rootlessNtB5_8RootlessNtNtCshypYLURccL2_4core5clone5Clone5cloneB7_
FNDA:0,_RNvNtCs4hmKDm3KTCY_12libcontainer8rootless28unprivileged_user_ns_enabled
FNDA:0,_RNvNtCs4hmKDm3KTCY_12libcontainer8rootless17rootless_required
FNDA:9,_RNvMNtCs4hmKDm3KTCY_12libcontainer8rootlessNtB2_8Rootless17write_uid_mapping
FNDA:0,_RNvXs0_NtCs4hmKDm3KTCY_12libcontainer8rootlessNtB5_8RootlessNtNtCshypYLURccL2_4core3fmt5Debug3fmt
FNDA:0,_RNvMNtCs4hmKDm3KTCY_12libcontainer8rootlessNtB2_8Rootless3new
FNDA:0,_RNCNvNtCs4hmKDm3KTCY_12libcontainer8rootless8validate0B5_
FNDA:9,_RNCNvNtCs4hmKDm3KTCY_12libcontainer8rootless16write_id_mapping0B5_
FNDA:0,_RNCNvNtCs4hmKDm3KTCY_12libcontainer8rootless16write_id_mappings_0B5_
FNDA:0,_RNCNvNtCs4hmKDm3KTCY_12libcontainer8rootless17lookup_map_binary0B5_
FNDA:0,_RNvNtCs4hmKDm3KTCY_12libcontainer8rootless12is_id_mapped
FNDA:9,_RNvMNtCs4hmKDm3KTCY_12libcontainer8rootlessNtB2_8Rootless17write_gid_mapping
FNDA:23,_RNvXs2_NtCs4hmKDm3KTCY_12libcontainer8rootlessNtB5_8RootlessNtNtCshypYLURccL2_4core7default7Default7defaultB7_
FNDA:0,_RNvNtCs4hmKDm3KTCY_12libcontainer8rootless15validate_mounts
FNDA:0,_RNCNvNtCs4hmKDm3KTCY_12libcontainer8rootless12is_id_mapped0B5_
FNDA:9,_RNvNtCs4hmKDm3KTCY_12libcontainer8rootless16write_id_mapping
FNDA:0,_RNvNtCs4hmKDm3KTCY_12libcontainer8rootless17lookup_map_binary
FNDA:0,_RNCNvNtCs4hmKDm3KTCY_12libcontainer8rootless16write_id_mappings0_0B5_
FNDA:0,_RNvXs_NtCs4hmKDm3KTCY_12libcontainer8rootlessNtB4_8RootlessINtNtCshypYLURccL2_4core7convert4FromRNtNtNtCsavfOPrTag7s_8oci_spec7runtime5linux5LinuxE4from
FNDA:0,_RNvNtCs4hmKDm3KTCY_12libcontainer8rootless19lookup_map_binaries
FNDA:0,_RNvNtCs9aHzSL9YGbd_12libcontainer8rootless17lookup_map_binary
FNDA:0,_RNvNtCs9aHzSL9YGbd_12libcontainer8rootless15validate_mounts
FNDA:0,_RNvXs_NtCs9aHzSL9YGbd_12libcontainer8rootlessNtB4_8RootlessINtNtCshypYLURccL2_4core7convert4FromRNtNtNtCsavfOPrTag7s_8oci_spec7runtime5linux5LinuxE4from
FNDA:0,_RNCNvNtCs9aHzSL9YGbd_12libcontainer8rootless16write_id_mapping0B5_
FNDA:0,_RNvMNtCs9aHzSL9YGbd_12libcontainer8rootlessNtB2_8Rootless17write_uid_mapping
FNDA:0,_RNCNvNtCs9aHzSL9YGbd_12libcontainer8rootless16write_id_mappings0_0B5_
FNDA:0,_RNvMNtCs9aHzSL9YGbd_12libcontainer8rootlessNtB2_8Rootless17write_gid_mapping
FNDA:0,_RNCNvNtCs9aHzSL9YGbd_12libcontainer8rootless8validate0B5_
FNDA:0,_RNCNvNtCs9aHzSL9YGbd_12libcontainer8rootless16write_id_mappings_0B5_
FNDA:0,_RNCNvNtCs9aHzSL9YGbd_12libcontainer8rootless12is_id_mapped0B5_
FNDA:0,_RNvXs2_NtCs9aHzSL9YGbd_12libcontainer8rootlessNtB5_8RootlessNtNtCshypYLURccL2_4core7default7Default7defaultB7_
FNDA:0,_RNCNvNtCs9aHzSL9YGbd_12libcontainer8rootless17lookup_map_binary0B5_
FNDA:0,_RNvNtCs9aHzSL9YGbd_12libcontainer8rootless12is_id_mapped
FNDA:0,_RNvMNtCs9aHzSL9YGbd_12libcontainer8rootlessNtB2_8Rootless3new
FNDA:0,_RNvNtCs9aHzSL9YGbd_12libcontainer8rootless17rootless_required
FNDA:0,_RNvNtCs9aHzSL9YGbd_12libcontainer8rootless16write_id_mapping
FNDA:0,_RNvXs0_NtCs9aHzSL9YGbd_12libcontainer8rootlessNtB5_8RootlessNtNtCshypYLURccL2_4core3fmt5Debug3fmt
FNDA:0,_RNvNtCs9aHzSL9YGbd_12libcontainer8rootless19lookup_map_binaries
FNDA:0,_RNvNtCs9aHzSL9YGbd_12libcontainer8rootless8validate
FNDA:0,_RNvXs1_NtCs9aHzSL9YGbd_12libcontainer8rootlessNtB5_8RootlessNtNtCshypYLURccL2_4core5clone5Clone5cloneB7_
FNDA:0,_RNvNtCs9aHzSL9YGbd_12libcontainer8rootless28unprivileged_user_ns_enabled
FNDA:0,_RNCNvNtCs9aHzSL9YGbd_12libcontainer8rootless17lookup_map_binarys_0B5_
FNF:22
FNH:5
DA:10,23
DA:27,0
DA:28,0
DA:29,0
DA:30,0
DA:31,0
DA:32,0
DA:33,0
DA:34,0
DA:35,0
DA:36,0
DA:37,0
DA:38,0
DA:39,0
DA:41,0
DA:42,0
DA:43,0
DA:44,0
DA:45,0
DA:46,0
DA:48,0
DA:50,0
DA:51,0
DA:53,0
DA:55,9
DA:56,9
DA:57,9
DA:58,4
DA:59,4
DA:60,4
DA:61,4
DA:62,4
DA:63,4
DA:65,5
DA:67,9
DA:69,9
DA:70,9
DA:71,9
DA:72,5
DA:73,5
DA:74,5
DA:75,5
DA:76,5
DA:77,5
DA:79,4
DA:81,9
DA:85,0
DA:86,0
DA:87,0
DA:88,0
DA:89,0
DA:90,0
DA:91,0
DA:92,0
DA:93,0
DA:94,0
DA:95,0
DA:96,0
DA:100,0
DA:101,0
DA:102,0
DA:103,0
DA:105,0
DA:106,0
DA:108,0
DA:109,0
DA:110,0
DA:111,0
DA:112,0
DA:114,0
DA:115,0
DA:117,0
DA:118,0
DA:119,0
DA:120,0
DA:122,0
DA:126,0
DA:127,0
DA:128,0
DA:129,0
DA:130,0
DA:131,0
DA:133,0
DA:134,0
DA:135,0
DA:136,0
DA:137,0
DA:138,0
DA:139,0
DA:140,0
DA:142,0
DA:143,0
DA:144,0
DA:145,0
DA:146,0
DA:147,0
DA:148,0
DA:149,0
DA:150,0
DA:151,0
DA:152,0
DA:153,0
DA:154,0
DA:156,0
DA:157,0
DA:158,0
DA:159,0
DA:161,0
DA:162,0
DA:163,0
DA:165,0
DA:166,0
DA:167,0
DA:168,0
DA:172,0
DA:173,0
DA:174,0
DA:175,0
DA:176,0
DA:178,0
DA:180,0
DA:182,0
DA:183,0
DA:185,0
DA:186,0
DA:187,0
DA:188,0
DA:189,0
DA:190,0
DA:191,0
DA:192,0
DA:193,0
DA:194,0
DA:195,0
DA:196,0
DA:197,0
DA:198,0
DA:199,0
DA:201,0
DA:204,0
DA:205,0
DA:207,0
DA:208,0
DA:209,0
DA:210,0
DA:211,0
DA:216,0
DA:217,0
DA:218,0
DA:219,0
DA:221,0
DA:222,0
DA:224,0
DA:225,0
DA:226,0
DA:229,0
DA:231,0
DA:233,0
DA:234,0
DA:235,0
DA:236,0
DA:237,0
DA:238,0
DA:239,0
DA:241,9
DA:242,9
DA:243,9
DA:244,9
DA:245,9
DA:246,9
DA:247,9
DA:249,9
DA:250,0
DA:252,9
DA:253,9
DA:254,9
DA:255,9
DA:256,9
DA:259,0
DA:260,0
DA:261,0
DA:262,0
DA:263,0
DA:264,0
DA:265,0
